---
triple:          'arm64-apple-darwin'
binary-path:     main
relocations:
  - { offsetInCU: 0x2F42, offset: 0x2F42, size: 0x8, addend: 0x0, symName: __ZNSt3__124__put_character_sequenceB8ue170006IcNS_11char_traitsIcEEEERNS_13basic_ostreamIT_T0_EES7_PKS4_m, symObjAddr: 0xAD4, symBinAddr: 0x100003F58, symSize: 0x1EC }
  - { offsetInCU: 0x48A8, offset: 0x48A8, size: 0x8, addend: 0x0, symName: __ZNSt3__1eqB8ue170006INS_9allocatorIcEEEEbRKNS_12basic_stringIcNS_11char_traitsIcEET_EES9_, symObjAddr: 0x4B0, symBinAddr: 0x100003934, symSize: 0x148 }
  - { offsetInCU: 0x491B, offset: 0x491B, size: 0x8, addend: 0x0, symName: __ZNSt3__1lsB8ue170006INS_11char_traitsIcEEEERNS_13basic_ostreamIcT_EES6_PKc, symObjAddr: 0x5F8, symBinAddr: 0x100003A7C, symSize: 0x48 }
  - { offsetInCU: 0x4961, offset: 0x4961, size: 0x8, addend: 0x0, symName: __ZNSt3__1lsB8ue170006IcNS_11char_traitsIcEENS_9allocatorIcEEEERNS_13basic_ostreamIT_T0_EES9_RKNS_12basic_stringIS6_S7_T1_EE, symObjAddr: 0x640, symBinAddr: 0x100003AC4, symSize: 0x4C }
  - { offsetInCU: 0x49B9, offset: 0x49B9, size: 0x8, addend: 0x0, symName: __ZNSt3__14endlB8ue170006IcNS_11char_traitsIcEEEERNS_13basic_ostreamIT_T0_EES7_, symObjAddr: 0x6B8, symBinAddr: 0x100003B3C, symSize: 0x58 }
  - { offsetInCU: 0x49F9, offset: 0x49F9, size: 0x8, addend: 0x0, symName: __ZNSt3__112__to_addressB8ue170006IKcEEPT_S3_, symObjAddr: 0xA08, symBinAddr: 0x100003E8C, symSize: 0x14 }
  - { offsetInCU: 0x4A61, offset: 0x4A61, size: 0x8, addend: 0x0, symName: __ZNSt3__116__pad_and_outputB8ue170006IcNS_11char_traitsIcEEEENS_19ostreambuf_iteratorIT_T0_EES6_PKS4_S8_S8_RNS_8ios_baseES4_, symObjAddr: 0xCDC, symBinAddr: 0x100004160, symSize: 0x240 }
  - { offsetInCU: 0x4B30, offset: 0x4B30, size: 0x8, addend: 0x0, symName: __ZNSt3__19use_facetB8ue170006INS_5ctypeIcEEEERKT_RKNS_6localeE, symObjAddr: 0x136C, symBinAddr: 0x1000047F0, symSize: 0x2C }
  - { offsetInCU: 0x4FFD, offset: 0x4FFD, size: 0x8, addend: 0x0, symName: __ZNSt3__118__constexpr_strlenB8ue170006EPKc, symObjAddr: 0x1438, symBinAddr: 0x1000048BC, symSize: 0x24 }
  - { offsetInCU: 0x7992, offset: 0x7992, size: 0x8, addend: 0x0, symName: __ZN4RingD2Ev, symObjAddr: 0x0, symBinAddr: 0x100003484, symSize: 0x14 }
  - { offsetInCU: 0x79BC, offset: 0x79BC, size: 0x8, addend: 0x0, symName: __ZN4RingD1Ev, symObjAddr: 0x14, symBinAddr: 0x100003498, symSize: 0x2C }
  - { offsetInCU: 0x79E6, offset: 0x79E6, size: 0x8, addend: 0x0, symName: __ZN4Ring10addNewNodeENSt3__112basic_stringIcNS0_11char_traitsIcEENS0_9allocatorIcEEEES6_, symObjAddr: 0x40, symBinAddr: 0x1000034C4, symSize: 0x2E4 }
  - { offsetInCU: 0x7A64, offset: 0x7A64, size: 0x8, addend: 0x0, symName: __ZN4Ring6searchENSt3__112basic_stringIcNS0_11char_traitsIcEENS0_9allocatorIcEEEE, symObjAddr: 0x324, symBinAddr: 0x1000037A8, symSize: 0x18C }
  - { offsetInCU: 0x7AA7, offset: 0x7AA7, size: 0x8, addend: 0x0, symName: __ZNSt3__113basic_ostreamIcNS_11char_traitsIcEEElsB8ue170006EPFRS3_S4_E, symObjAddr: 0x68C, symBinAddr: 0x100003B10, symSize: 0x2C }
  - { offsetInCU: 0x7AD9, offset: 0x7AD9, size: 0x8, addend: 0x0, symName: __ZN4Ring5printEv, symObjAddr: 0x710, symBinAddr: 0x100003B94, symSize: 0x17C }
  - { offsetInCU: 0x7B0D, offset: 0x7B0D, size: 0x8, addend: 0x0, symName: __ZNKSt3__112basic_stringIcNS_11char_traitsIcEENS_9allocatorIcEEE4sizeB8ue170006Ev, symObjAddr: 0x88C, symBinAddr: 0x100003D10, symSize: 0x54 }
  - { offsetInCU: 0x7B31, offset: 0x7B31, size: 0x8, addend: 0x0, symName: __ZNKSt3__112basic_stringIcNS_11char_traitsIcEENS_9allocatorIcEEE4dataB8ue170006Ev, symObjAddr: 0x8E0, symBinAddr: 0x100003D64, symSize: 0x28 }
  - { offsetInCU: 0x7B55, offset: 0x7B55, size: 0x8, addend: 0x0, symName: __ZNKSt3__112basic_stringIcNS_11char_traitsIcEENS_9allocatorIcEEE9__is_longB8ue170006Ev, symObjAddr: 0x908, symBinAddr: 0x100003D8C, symSize: 0x38 }
  - { offsetInCU: 0x7B79, offset: 0x7B79, size: 0x8, addend: 0x0, symName: __ZNSt3__111char_traitsIcE7compareB8ue170006EPKcS3_m, symObjAddr: 0x940, symBinAddr: 0x100003DC4, symSize: 0x34 }
  - { offsetInCU: 0x7BB7, offset: 0x7BB7, size: 0x8, addend: 0x0, symName: __ZNKSt3__112basic_stringIcNS_11char_traitsIcEENS_9allocatorIcEEE15__get_long_sizeB8ue170006Ev, symObjAddr: 0x974, symBinAddr: 0x100003DF8, symSize: 0x28 }
  - { offsetInCU: 0x7BDB, offset: 0x7BDB, size: 0x8, addend: 0x0, symName: __ZNKSt3__112basic_stringIcNS_11char_traitsIcEENS_9allocatorIcEEE16__get_short_sizeB8ue170006Ev, symObjAddr: 0x99C, symBinAddr: 0x100003E20, symSize: 0x34 }
  - { offsetInCU: 0x7BFF, offset: 0x7BFF, size: 0x8, addend: 0x0, symName: __ZNKSt3__117__compressed_pairINS_12basic_stringIcNS_11char_traitsIcEENS_9allocatorIcEEE5__repES5_E5firstB8ue170006Ev, symObjAddr: 0x9D0, symBinAddr: 0x100003E54, symSize: 0x24 }
  - { offsetInCU: 0x7C23, offset: 0x7C23, size: 0x8, addend: 0x0, symName: __ZNKSt3__122__compressed_pair_elemINS_12basic_stringIcNS_11char_traitsIcEENS_9allocatorIcEEE5__repELi0ELb0EE5__getB8ue170006Ev, symObjAddr: 0x9F4, symBinAddr: 0x100003E78, symSize: 0x14 }
  - { offsetInCU: 0x7C47, offset: 0x7C47, size: 0x8, addend: 0x0, symName: __ZNKSt3__112basic_stringIcNS_11char_traitsIcEENS_9allocatorIcEEE13__get_pointerB8ue170006Ev, symObjAddr: 0xA1C, symBinAddr: 0x100003EA0, symSize: 0x54 }
  - { offsetInCU: 0x7C6B, offset: 0x7C6B, size: 0x8, addend: 0x0, symName: __ZNKSt3__112basic_stringIcNS_11char_traitsIcEENS_9allocatorIcEEE18__get_long_pointerB8ue170006Ev, symObjAddr: 0xA70, symBinAddr: 0x100003EF4, symSize: 0x28 }
  - { offsetInCU: 0x7C8F, offset: 0x7C8F, size: 0x8, addend: 0x0, symName: __ZNKSt3__112basic_stringIcNS_11char_traitsIcEENS_9allocatorIcEEE19__get_short_pointerB8ue170006Ev, symObjAddr: 0xA98, symBinAddr: 0x100003F1C, symSize: 0x28 }
  - { offsetInCU: 0x7CB3, offset: 0x7CB3, size: 0x8, addend: 0x0, symName: __ZNSt3__114pointer_traitsIPKcE10pointer_toB8ue170006ERS1_, symObjAddr: 0xAC0, symBinAddr: 0x100003F44, symSize: 0x14 }
  - { offsetInCU: 0x7CEE, offset: 0x7CEE, size: 0x8, addend: 0x0, symName: __ZNKSt3__113basic_ostreamIcNS_11char_traitsIcEEE6sentrycvbB8ue170006Ev, symObjAddr: 0xCC0, symBinAddr: 0x100004144, symSize: 0x1C }
  - { offsetInCU: 0x7D12, offset: 0x7D12, size: 0x8, addend: 0x0, symName: __ZNSt3__119ostreambuf_iteratorIcNS_11char_traitsIcEEEC1B8ue170006ERNS_13basic_ostreamIcS2_EE, symObjAddr: 0xF1C, symBinAddr: 0x1000043A0, symSize: 0x34 }
  - { offsetInCU: 0x7D48, offset: 0x7D48, size: 0x8, addend: 0x0, symName: __ZNKSt3__18ios_base5flagsB8ue170006Ev, symObjAddr: 0xF50, symBinAddr: 0x1000043D4, symSize: 0x18 }
  - { offsetInCU: 0x7D6E, offset: 0x7D6E, size: 0x8, addend: 0x0, symName: __ZNKSt3__19basic_iosIcNS_11char_traitsIcEEE4fillB8ue170006Ev, symObjAddr: 0xF68, symBinAddr: 0x1000043EC, symSize: 0x64 }
  - { offsetInCU: 0x7D94, offset: 0x7D94, size: 0x8, addend: 0x0, symName: __ZNKSt3__119ostreambuf_iteratorIcNS_11char_traitsIcEEE6failedB8ue170006Ev, symObjAddr: 0xFCC, symBinAddr: 0x100004450, symSize: 0x24 }
  - { offsetInCU: 0x7DB8, offset: 0x7DB8, size: 0x8, addend: 0x0, symName: __ZNSt3__19basic_iosIcNS_11char_traitsIcEEE8setstateB8ue170006Ej, symObjAddr: 0xFF0, symBinAddr: 0x100004474, symSize: 0x2C }
  - { offsetInCU: 0x7DEB, offset: 0x7DEB, size: 0x8, addend: 0x0, symName: __ZNKSt3__18ios_base5widthB8ue170006Ev, symObjAddr: 0x1028, symBinAddr: 0x1000044AC, symSize: 0x18 }
  - { offsetInCU: 0x7E11, offset: 0x7E11, size: 0x8, addend: 0x0, symName: __ZNSt3__115basic_streambufIcNS_11char_traitsIcEEE5sputnB8ue170006EPKcl, symObjAddr: 0x1040, symBinAddr: 0x1000044C4, symSize: 0x3C }
  - { offsetInCU: 0x7E51, offset: 0x7E51, size: 0x8, addend: 0x0, symName: __ZNSt3__112basic_stringIcNS_11char_traitsIcEENS_9allocatorIcEEEC1B8ue170006Emc, symObjAddr: 0x107C, symBinAddr: 0x100004500, symSize: 0x3C }
  - { offsetInCU: 0x7E97, offset: 0x7E97, size: 0x8, addend: 0x0, symName: __ZNSt3__18ios_base5widthB8ue170006El, symObjAddr: 0x10B8, symBinAddr: 0x10000453C, symSize: 0x2C }
  - { offsetInCU: 0x7EDB, offset: 0x7EDB, size: 0x8, addend: 0x0, symName: __ZNSt3__112basic_stringIcNS_11char_traitsIcEENS_9allocatorIcEEEC2B8ue170006Emc, symObjAddr: 0x10E4, symBinAddr: 0x100004568, symSize: 0x4C }
  - { offsetInCU: 0x7F26, offset: 0x7F26, size: 0x8, addend: 0x0, symName: __ZNSt3__117__compressed_pairINS_12basic_stringIcNS_11char_traitsIcEENS_9allocatorIcEEE5__repES5_EC1B8ue170006INS_18__default_init_tagESA_EEOT_OT0_, symObjAddr: 0x1130, symBinAddr: 0x1000045B4, symSize: 0x3C }
  - { offsetInCU: 0x7F7C, offset: 0x7F7C, size: 0x8, addend: 0x0, symName: __ZNSt3__117__compressed_pairINS_12basic_stringIcNS_11char_traitsIcEENS_9allocatorIcEEE5__repES5_EC2B8ue170006INS_18__default_init_tagESA_EEOT_OT0_, symObjAddr: 0x116C, symBinAddr: 0x1000045F0, symSize: 0x3C }
  - { offsetInCU: 0x7FD2, offset: 0x7FD2, size: 0x8, addend: 0x0, symName: __ZNSt3__122__compressed_pair_elemINS_12basic_stringIcNS_11char_traitsIcEENS_9allocatorIcEEE5__repELi0ELb0EEC2B8ue170006ENS_18__default_init_tagE, symObjAddr: 0x11A8, symBinAddr: 0x10000462C, symSize: 0x14 }
  - { offsetInCU: 0x8004, offset: 0x8004, size: 0x8, addend: 0x0, symName: __ZNSt3__122__compressed_pair_elemINS_9allocatorIcEELi1ELb1EEC2B8ue170006ENS_18__default_init_tagE, symObjAddr: 0x11BC, symBinAddr: 0x100004640, symSize: 0x2C }
  - { offsetInCU: 0x8036, offset: 0x8036, size: 0x8, addend: 0x0, symName: __ZNSt3__19allocatorIcEC2B8ue170006Ev, symObjAddr: 0x11E8, symBinAddr: 0x10000466C, symSize: 0x2C }
  - { offsetInCU: 0x805E, offset: 0x805E, size: 0x8, addend: 0x0, symName: __ZNSt3__116__non_trivial_ifILb1ENS_9allocatorIcEEEC2B8ue170006Ev, symObjAddr: 0x1214, symBinAddr: 0x100004698, symSize: 0x14 }
  - { offsetInCU: 0x8086, offset: 0x8086, size: 0x8, addend: 0x0, symName: __ZNSt3__119ostreambuf_iteratorIcNS_11char_traitsIcEEEC2B8ue170006ERNS_13basic_ostreamIcS2_EE, symObjAddr: 0x1228, symBinAddr: 0x1000046AC, symSize: 0x54 }
  - { offsetInCU: 0x80BC, offset: 0x80BC, size: 0x8, addend: 0x0, symName: __ZNKSt3__19basic_iosIcNS_11char_traitsIcEEE5rdbufB8ue170006Ev, symObjAddr: 0x127C, symBinAddr: 0x100004700, symSize: 0x24 }
  - { offsetInCU: 0x80E2, offset: 0x80E2, size: 0x8, addend: 0x0, symName: __ZNKSt3__18ios_base5rdbufB8ue170006Ev, symObjAddr: 0x12A0, symBinAddr: 0x100004724, symSize: 0x18 }
  - { offsetInCU: 0x8106, offset: 0x8106, size: 0x8, addend: 0x0, symName: __ZNSt3__111char_traitsIcE11eq_int_typeB8ue170006Eii, symObjAddr: 0x12B8, symBinAddr: 0x10000473C, symSize: 0x28 }
  - { offsetInCU: 0x8139, offset: 0x8139, size: 0x8, addend: 0x0, symName: __ZNSt3__111char_traitsIcE3eofB8ue170006Ev, symObjAddr: 0x12E0, symBinAddr: 0x100004764, symSize: 0x8 }
  - { offsetInCU: 0x814C, offset: 0x814C, size: 0x8, addend: 0x0, symName: __ZNKSt3__19basic_iosIcNS_11char_traitsIcEEE5widenB8ue170006Ec, symObjAddr: 0x12E8, symBinAddr: 0x10000476C, symSize: 0x84 }
  - { offsetInCU: 0x81B8, offset: 0x81B8, size: 0x8, addend: 0x0, symName: __ZNKSt3__15ctypeIcE5widenB8ue170006Ec, symObjAddr: 0x1398, symBinAddr: 0x10000481C, symSize: 0x38 }
  - { offsetInCU: 0x81EB, offset: 0x81EB, size: 0x8, addend: 0x0, symName: __ZNSt3__18ios_base8setstateB8ue170006Ej, symObjAddr: 0x13D0, symBinAddr: 0x100004854, symSize: 0x34 }
  - { offsetInCU: 0x8220, offset: 0x8220, size: 0x8, addend: 0x0, symName: __ZNSt3__111char_traitsIcE6lengthB8ue170006EPKc, symObjAddr: 0x1404, symBinAddr: 0x100004888, symSize: 0x34 }
  - { offsetInCU: 0x49A3, offset: 0xCC35, size: 0x8, addend: 0x0, symName: __ZN8RingNodeC2Ev, symObjAddr: 0x0, symBinAddr: 0x1000048E0, symSize: 0x44 }
  - { offsetInCU: 0x49CD, offset: 0xCC5F, size: 0x8, addend: 0x0, symName: __ZNSt3__112basic_stringIcNS_11char_traitsIcEENS_9allocatorIcEEEC1B8ue170006Ev, symObjAddr: 0x44, symBinAddr: 0x100004924, symSize: 0x2C }
  - { offsetInCU: 0x49F5, offset: 0xCC87, size: 0x8, addend: 0x0, symName: __ZN8RingNodeC1Ev, symObjAddr: 0x70, symBinAddr: 0x100004950, symSize: 0x2C }
  - { offsetInCU: 0x4A1F, offset: 0xCCB1, size: 0x8, addend: 0x0, symName: __ZN8RingNodeC2EiNSt3__112basic_stringIcNS0_11char_traitsIcEENS0_9allocatorIcEEEES6_, symObjAddr: 0x9C, symBinAddr: 0x10000497C, symSize: 0x94 }
  - { offsetInCU: 0x4A75, offset: 0xCD07, size: 0x8, addend: 0x0, symName: __ZN8RingNodeC1EiNSt3__112basic_stringIcNS0_11char_traitsIcEENS0_9allocatorIcEEEES6_, symObjAddr: 0x130, symBinAddr: 0x100004A10, symSize: 0x44 }
  - { offsetInCU: 0x4ACB, offset: 0xCD5D, size: 0x8, addend: 0x0, symName: __ZN8RingNodeD2Ev, symObjAddr: 0x174, symBinAddr: 0x100004A54, symSize: 0x3C }
  - { offsetInCU: 0x4AF5, offset: 0xCD87, size: 0x8, addend: 0x0, symName: __ZN8RingNodeD1Ev, symObjAddr: 0x1B0, symBinAddr: 0x100004A90, symSize: 0x2C }
  - { offsetInCU: 0x4B1F, offset: 0xCDB1, size: 0x8, addend: 0x0, symName: __ZN8RingNode9getOldAgeEv, symObjAddr: 0x1DC, symBinAddr: 0x100004ABC, symSize: 0x18 }
  - { offsetInCU: 0x4B46, offset: 0xCDD8, size: 0x8, addend: 0x0, symName: __ZN8RingNode9setOldAgeEi, symObjAddr: 0x1F4, symBinAddr: 0x100004AD4, symSize: 0x20 }
  - { offsetInCU: 0x4B7B, offset: 0xCE0D, size: 0x8, addend: 0x0, symName: __ZN8RingNode14getDescriptionEv, symObjAddr: 0x214, symBinAddr: 0x100004AF4, symSize: 0x3C }
  - { offsetInCU: 0x4BA1, offset: 0xCE33, size: 0x8, addend: 0x0, symName: __ZN8RingNode14setDescriptionENSt3__112basic_stringIcNS0_11char_traitsIcEENS0_9allocatorIcEEEE, symObjAddr: 0x250, symBinAddr: 0x100004B30, symSize: 0x30 }
  - { offsetInCU: 0x4BD6, offset: 0xCE68, size: 0x8, addend: 0x0, symName: __ZN8RingNode15getSymbolicDataEv, symObjAddr: 0x280, symBinAddr: 0x100004B60, symSize: 0x3C }
  - { offsetInCU: 0x4BFC, offset: 0xCE8E, size: 0x8, addend: 0x0, symName: __ZN8RingNode15setSymbolicDataENSt3__112basic_stringIcNS0_11char_traitsIcEENS0_9allocatorIcEEEE, symObjAddr: 0x2BC, symBinAddr: 0x100004B9C, symSize: 0x30 }
  - { offsetInCU: 0x4C31, offset: 0xCEC3, size: 0x8, addend: 0x0, symName: __ZN8RingNode7getNextEv, symObjAddr: 0x2EC, symBinAddr: 0x100004BCC, symSize: 0x18 }
  - { offsetInCU: 0x4C58, offset: 0xCEEA, size: 0x8, addend: 0x0, symName: __ZN8RingNode7setNextEPS_, symObjAddr: 0x304, symBinAddr: 0x100004BE4, symSize: 0x20 }
  - { offsetInCU: 0x4C8D, offset: 0xCF1F, size: 0x8, addend: 0x0, symName: __ZNSt3__112basic_stringIcNS_11char_traitsIcEENS_9allocatorIcEEEC2B8ue170006Ev, symObjAddr: 0x324, symBinAddr: 0x100004C04, symSize: 0x48 }
  - { offsetInCU: 0x4CB5, offset: 0xCF47, size: 0x8, addend: 0x0, symName: __ZNSt3__112basic_stringIcNS_11char_traitsIcEENS_9allocatorIcEEE14__default_initB8ue170006Ev, symObjAddr: 0x3B4, symBinAddr: 0x100004C4C, symSize: 0x40 }
  - { offsetInCU: 0x4CD9, offset: 0xCF6B, size: 0x8, addend: 0x0, symName: __ZNSt3__117__compressed_pairINS_12basic_stringIcNS_11char_traitsIcEENS_9allocatorIcEEE5__repES5_E5firstB8ue170006Ev, symObjAddr: 0x4B0, symBinAddr: 0x100004C8C, symSize: 0x24 }
  - { offsetInCU: 0x4CFD, offset: 0xCF8F, size: 0x8, addend: 0x0, symName: __ZNSt3__122__compressed_pair_elemINS_12basic_stringIcNS_11char_traitsIcEENS_9allocatorIcEEE5__repELi0ELb0EE5__getB8ue170006Ev, symObjAddr: 0x4D4, symBinAddr: 0x100004CB0, symSize: 0x14 }
  - { offsetInCU: 0x54, offset: 0xD00C, size: 0x8, addend: 0x0, symName: __ZN12_GLOBAL__N_114autoRegistrar1E, symObjAddr: 0x2D160, symBinAddr: 0x1001081D0, symSize: 0x0 }
  - { offsetInCU: 0x6E, offset: 0xD026, size: 0x8, addend: 0x0, symName: __ZN12_GLOBAL__N_114autoRegistrar8E, symObjAddr: 0x2D168, symBinAddr: 0x1001081D8, symSize: 0x0 }
  - { offsetInCU: 0x5EC, offset: 0xD5A4, size: 0x8, addend: 0x0, symName: __ZN5Catch6Detail9stringifyIiEENSt3__112basic_stringIcNS2_11char_traitsIcEENS2_9allocatorIcEEEERKT_, symObjAddr: 0x68C0, symBinAddr: 0x10000B428, symSize: 0x30 }
  - { offsetInCU: 0x623, offset: 0xD5DB, size: 0x8, addend: 0x0, symName: __ZN5Catch6Detail9stringifyIbEENSt3__112basic_stringIcNS2_11char_traitsIcEENS2_9allocatorIcEEEERKT_, symObjAddr: 0x6C80, symBinAddr: 0x10000B7E8, symSize: 0x34 }
  - { offsetInCU: 0x65A, offset: 0xD612, size: 0x8, addend: 0x0, symName: __ZN5Catch6Detail9stringifyINSt3__112basic_stringIcNS2_11char_traitsIcEENS2_9allocatorIcEEEEEES8_RKT_, symObjAddr: 0x7230, symBinAddr: 0x10000BC00, symSize: 0x2C }
  - { offsetInCU: 0x691, offset: 0xD649, size: 0x8, addend: 0x0, symName: __ZN5Catch6Detail9stringifyIA6_cEENSt3__112basic_stringIcNS3_11char_traitsIcEENS3_9allocatorIcEEEERKT_, symObjAddr: 0x725C, symBinAddr: 0x10000BC2C, symSize: 0x2C }
  - { offsetInCU: 0x6C8, offset: 0xD680, size: 0x8, addend: 0x0, symName: __ZN5Catch6Detail9stringifyIP8RingNodeEENSt3__112basic_stringIcNS4_11char_traitsIcEENS4_9allocatorIcEEEERKT_, symObjAddr: 0x75A8, symBinAddr: 0x10000BF78, symSize: 0x30 }
  - { offsetInCU: 0x6FF, offset: 0xD6B7, size: 0x8, addend: 0x0, symName: __ZN5Catch6Detail17rawMemoryToStringIP8RingNodeEENSt3__112basic_stringIcNS4_11char_traitsIcEENS4_9allocatorIcEEEERKT_, symObjAddr: 0x7634, symBinAddr: 0x10000C004, symSize: 0x30 }
  - { offsetInCU: 0x736, offset: 0xD6EE, size: 0x8, addend: 0x0, symName: __ZN5Catch6Detail9stringifyIA5_cEENSt3__112basic_stringIcNS3_11char_traitsIcEENS3_9allocatorIcEEEERKT_, symObjAddr: 0x7B40, symBinAddr: 0x10000C510, symSize: 0x2C }
  - { offsetInCU: 0x76D, offset: 0xD725, size: 0x8, addend: 0x0, symName: __ZN5Catch6Detail9stringifyIDnEENSt3__112basic_stringIcNS2_11char_traitsIcEENS2_9allocatorIcEEEERKT_, symObjAddr: 0x7E30, symBinAddr: 0x10000C800, symSize: 0x2C }
  - { offsetInCU: 0x7A4, offset: 0xD75C, size: 0x8, addend: 0x0, symName: __ZN5Catch6Detail9stringifyIA8_cEENSt3__112basic_stringIcNS3_11char_traitsIcEENS3_9allocatorIcEEEERKT_, symObjAddr: 0x80BC, symBinAddr: 0x10000CA8C, symSize: 0x2C }
  - { offsetInCU: 0x1692, offset: 0xE64A, size: 0x8, addend: 0x0, symName: __ZN5Catch12compareEqualIiiEEbRKT_RKT0_, symObjAddr: 0x65F0, symBinAddr: 0x10000B158, symSize: 0x30 }
  - { offsetInCU: 0x16E2, offset: 0xE69A, size: 0x8, addend: 0x0, symName: __ZN5Catch12compareEqualINSt3__112basic_stringIcNS1_11char_traitsIcEENS1_9allocatorIcEEEEA6_cEEbRKT_RKT0_, symObjAddr: 0x6E4C, symBinAddr: 0x10000B93C, symSize: 0x30 }
  - { offsetInCU: 0x175D, offset: 0xE715, size: 0x8, addend: 0x0, symName: __ZN5Catch12compareEqualIP8RingNodeS2_EEbRKT_RKT0_, symObjAddr: 0x7390, symBinAddr: 0x10000BD60, symSize: 0x30 }
  - { offsetInCU: 0x19D7, offset: 0xE98F, size: 0x8, addend: 0x0, symName: __ZN5Catch12compareEqualINSt3__112basic_stringIcNS1_11char_traitsIcEENS1_9allocatorIcEEEEA5_cEEbRKT_RKT0_, symObjAddr: 0x7928, symBinAddr: 0x10000C2F8, symSize: 0x30 }
  - { offsetInCU: 0x1A52, offset: 0xEA0A, size: 0x8, addend: 0x0, symName: __ZN5Catch12compareEqualIP8RingNodeDnEEbRKT_RKT0_, symObjAddr: 0x7C20, symBinAddr: 0x10000C5F0, symSize: 0x28 }
  - { offsetInCU: 0x1AA2, offset: 0xEA5A, size: 0x8, addend: 0x0, symName: __ZN5Catch12compareEqualINSt3__112basic_stringIcNS1_11char_traitsIcEENS1_9allocatorIcEEEEA8_cEEbRKT_RKT0_, symObjAddr: 0x7EA4, symBinAddr: 0x10000C874, symSize: 0x30 }
  - { offsetInCU: 0x5F64, offset: 0x12F1C, size: 0x8, addend: 0x0, symName: __ZNSt3__1plB8ue170006IcNS_11char_traitsIcEENS_9allocatorIcEEEENS_12basic_stringIT_T0_T1_EEPKS6_OS9_, symObjAddr: 0x6154, symBinAddr: 0x10000AE0C, symSize: 0x44 }
  - { offsetInCU: 0x5FBC, offset: 0x12F74, size: 0x8, addend: 0x0, symName: __ZNSt3__1eqB8ue170006IcNS_11char_traitsIcEENS_9allocatorIcEEEEbRKNS_12basic_stringIT_T0_T1_EEPKS6_, symObjAddr: 0x6ED4, symBinAddr: 0x10000B9C4, symSize: 0xAC }
  - { offsetInCU: 0x8001, offset: 0x14FB9, size: 0x8, addend: 0x0, symName: __Z9get_ankerR4Ring, symObjAddr: 0x0, symBinAddr: 0x100004CC4, symSize: 0x18 }
  - { offsetInCU: 0x802D, offset: 0x14FE5, size: 0x8, addend: 0x0, symName: __Z14get_countNodesR4Ring, symObjAddr: 0x18, symBinAddr: 0x100004CDC, symSize: 0x18 }
  - { offsetInCU: 0x8059, offset: 0x15011, size: 0x8, addend: 0x0, symName: __ZL29____C_A_T_C_H____T_E_S_T____0v, symObjAddr: 0x30, symBinAddr: 0x100004CF4, symSize: 0x4B0C }
  - { offsetInCU: 0x8421, offset: 0x153D9, size: 0x8, addend: 0x0, symName: __ZN5Catch14SourceLineInfoC1EPKcm, symObjAddr: 0x4B3C, symBinAddr: 0x100009800, symSize: 0x3C }
  - { offsetInCU: 0x8467, offset: 0x1541F, size: 0x8, addend: 0x0, symName: __ZN5Catch9StringRefC1Ev, symObjAddr: 0x4B78, symBinAddr: 0x10000983C, symSize: 0x38 }
  - { offsetInCU: 0x848F, offset: 0x15447, size: 0x8, addend: 0x0, symName: __ZN5Catch11NameAndTagsD1Ev, symObjAddr: 0x4BB0, symBinAddr: 0x100009874, symSize: 0x2C }
  - { offsetInCU: 0x84BB, offset: 0x15473, size: 0x8, addend: 0x0, symName: __ZN5Catch9StringRefD1Ev, symObjAddr: 0x4BDC, symBinAddr: 0x1000098A0, symSize: 0x2C }
  - { offsetInCU: 0x84E2, offset: 0x1549A, size: 0x8, addend: 0x0, symName: __ZL29____C_A_T_C_H____T_E_S_T____7v, symObjAddr: 0x4C08, symBinAddr: 0x1000098CC, symSize: 0x1100 }
  - { offsetInCU: 0x85DE, offset: 0x15596, size: 0x8, addend: 0x0, symName: __ZN5Catch14SourceLineInfoC2EPKcm, symObjAddr: 0x5D08, symBinAddr: 0x10000A9CC, symSize: 0x2C }
  - { offsetInCU: 0x8624, offset: 0x155DC, size: 0x8, addend: 0x0, symName: __ZN5Catch9StringRefC1EPKcm, symObjAddr: 0x5D34, symBinAddr: 0x10000A9F8, symSize: 0x3C }
  - { offsetInCU: 0x866A, offset: 0x15622, size: 0x8, addend: 0x0, symName: __ZN5Catch9StringRefC2EPKcm, symObjAddr: 0x5D70, symBinAddr: 0x10000AA34, symSize: 0x30 }
  - { offsetInCU: 0x86B0, offset: 0x15668, size: 0x8, addend: 0x0, symName: __ZN5Catch11NameAndTagsD2Ev, symObjAddr: 0x5DA0, symBinAddr: 0x10000AA64, symSize: 0x38 }
  - { offsetInCU: 0x86DC, offset: 0x15694, size: 0x8, addend: 0x0, symName: __ZN5Catch9StringRefD2Ev, symObjAddr: 0x5DD8, symBinAddr: 0x10000AA9C, symSize: 0x50 }
  - { offsetInCU: 0x88EF, offset: 0x158A7, size: 0x8, addend: 0x0, symName: __ZN4RingC1Ev, symObjAddr: 0x5E28, symBinAddr: 0x10000AAEC, symSize: 0x2C }
  - { offsetInCU: 0x891C, offset: 0x158D4, size: 0x8, addend: 0x0, symName: __ZNSt3__112basic_stringIcNS_11char_traitsIcEENS_9allocatorIcEEEC1B8ue170006ILi0EEEPKc, symObjAddr: 0x5E54, symBinAddr: 0x10000AB18, symSize: 0x34 }
  - { offsetInCU: 0x895F, offset: 0x15917, size: 0x8, addend: 0x0, symName: __ZN5Catch11SectionInfoD1Ev, symObjAddr: 0x5E88, symBinAddr: 0x10000AB4C, symSize: 0x2C }
  - { offsetInCU: 0x898A, offset: 0x15942, size: 0x8, addend: 0x0, symName: __Zli9_catch_srPKcm, symObjAddr: 0x5EB4, symBinAddr: 0x10000AB78, symSize: 0x40 }
  - { offsetInCU: 0x8A18, offset: 0x159D0, size: 0x8, addend: 0x0, symName: __ZN5Catch10DecomposerleIiEENS_7ExprLhsIRKT_EES5_, symObjAddr: 0x5EF4, symBinAddr: 0x10000ABB8, symSize: 0x30 }
  - { offsetInCU: 0x8A63, offset: 0x15A1B, size: 0x8, addend: 0x0, symName: __ZN5Catch7ExprLhsIRKiEeqIiEEKNS_10BinaryExprIS2_RKT_EES8_, symObjAddr: 0x5F24, symBinAddr: 0x10000ABE8, symSize: 0xA8 }
  - { offsetInCU: 0x8A9F, offset: 0x15A57, size: 0x8, addend: 0x0, symName: __ZN5Catch10BinaryExprIRKiS2_ED1Ev, symObjAddr: 0x5FCC, symBinAddr: 0x10000AC90, symSize: 0x2C }
  - { offsetInCU: 0x8C2E, offset: 0x15BE6, size: 0x8, addend: 0x0, symName: __ZN5Catch16AssertionHandlerD1Ev, symObjAddr: 0x6004, symBinAddr: 0x10000ACBC, symSize: 0x2C }
  - { offsetInCU: 0x8C56, offset: 0x15C0E, size: 0x8, addend: 0x0, symName: __ZN5Catch10DecomposerleEb, symObjAddr: 0x6030, symBinAddr: 0x10000ACE8, symSize: 0x3C }
  - { offsetInCU: 0x8C89, offset: 0x15C41, size: 0x8, addend: 0x0, symName: __ZN5Catch7ExprLhsIbEeqEb, symObjAddr: 0x606C, symBinAddr: 0x10000AD24, symSize: 0xBC }
  - { offsetInCU: 0x8CBC, offset: 0x15C74, size: 0x8, addend: 0x0, symName: __ZN5Catch10BinaryExprIbbED1Ev, symObjAddr: 0x6128, symBinAddr: 0x10000ADE0, symSize: 0x2C }
  - { offsetInCU: 0x8CFC, offset: 0x15CB4, size: 0x8, addend: 0x0, symName: __ZN5Catch10DecomposerleINSt3__112basic_stringIcNS2_11char_traitsIcEENS2_9allocatorIcEEEEEENS_7ExprLhsIRKT_EESC_, symObjAddr: 0x6198, symBinAddr: 0x10000AE50, symSize: 0x30 }
  - { offsetInCU: 0x8D5D, offset: 0x15D15, size: 0x8, addend: 0x0, symName: __ZN5Catch7ExprLhsIRKNSt3__112basic_stringIcNS1_11char_traitsIcEENS1_9allocatorIcEEEEEeqIA6_cEEKNS_10BinaryExprIS9_RKT_EESG_, symObjAddr: 0x61C8, symBinAddr: 0x10000AE80, symSize: 0xA8 }
  - { offsetInCU: 0x8D99, offset: 0x15D51, size: 0x8, addend: 0x0, symName: __ZN5Catch10BinaryExprIRKNSt3__112basic_stringIcNS1_11char_traitsIcEENS1_9allocatorIcEEEERA6_KcED1Ev, symObjAddr: 0x6270, symBinAddr: 0x10000AF28, symSize: 0x2C }
  - { offsetInCU: 0x8DE3, offset: 0x15D9B, size: 0x8, addend: 0x0, symName: __ZN5Catch10DecomposerleIP8RingNodeEENS_7ExprLhsIRKT_EES7_, symObjAddr: 0x629C, symBinAddr: 0x10000AF54, symSize: 0x30 }
  - { offsetInCU: 0x8E2E, offset: 0x15DE6, size: 0x8, addend: 0x0, symName: __ZN5Catch7ExprLhsIRKP8RingNodeEeqIS2_EEKNS_10BinaryExprIS4_RKT_EESA_, symObjAddr: 0x62CC, symBinAddr: 0x10000AF84, symSize: 0xA8 }
  - { offsetInCU: 0x8E6A, offset: 0x15E22, size: 0x8, addend: 0x0, symName: __ZN5Catch10BinaryExprIRKP8RingNodeS4_ED1Ev, symObjAddr: 0x6374, symBinAddr: 0x10000B02C, symSize: 0x2C }
  - { offsetInCU: 0x8E96, offset: 0x15E4E, size: 0x8, addend: 0x0, symName: __ZN4RingC2Ev, symObjAddr: 0x63A0, symBinAddr: 0x10000B058, symSize: 0x1C }
  - { offsetInCU: 0x8EBE, offset: 0x15E76, size: 0x8, addend: 0x0, symName: __ZNSt3__112basic_stringIcNS_11char_traitsIcEENS_9allocatorIcEEEC2B8ue170006ILi0EEEPKc, symObjAddr: 0x63BC, symBinAddr: 0x10000B074, symSize: 0x58 }
  - { offsetInCU: 0x8EFC, offset: 0x15EB4, size: 0x8, addend: 0x0, symName: __ZN5Catch11SectionInfoD2Ev, symObjAddr: 0x6564, symBinAddr: 0x10000B0CC, symSize: 0x38 }
  - { offsetInCU: 0x8F28, offset: 0x15EE0, size: 0x8, addend: 0x0, symName: __ZN5Catch7ExprLhsIRKiEC1ES2_, symObjAddr: 0x659C, symBinAddr: 0x10000B104, symSize: 0x34 }
  - { offsetInCU: 0x8F5F, offset: 0x15F17, size: 0x8, addend: 0x0, symName: __ZN5Catch7ExprLhsIRKiEC2ES2_, symObjAddr: 0x65D0, symBinAddr: 0x10000B138, symSize: 0x20 }
  - { offsetInCU: 0x8F96, offset: 0x15F4E, size: 0x8, addend: 0x0, symName: __ZN5Catch10BinaryExprIRKiS2_EC1EbS2_NS_9StringRefES2_, symObjAddr: 0x6620, symBinAddr: 0x10000B188, symSize: 0x58 }
  - { offsetInCU: 0x8FFB, offset: 0x15FB3, size: 0x8, addend: 0x0, symName: __ZN5Catch10BinaryExprIRKiS2_EC2EbS2_NS_9StringRefES2_, symObjAddr: 0x6678, symBinAddr: 0x10000B1E0, symSize: 0x8C }
  - { offsetInCU: 0x9060, offset: 0x16018, size: 0x8, addend: 0x0, symName: __ZN5Catch20ITransientExpressionC2Ebb, symObjAddr: 0x6704, symBinAddr: 0x10000B26C, symSize: 0x50 }
  - { offsetInCU: 0x90A6, offset: 0x1605E, size: 0x8, addend: 0x0, symName: __ZN5Catch9StringRefC1ERKS0_, symObjAddr: 0x6754, symBinAddr: 0x10000B2BC, symSize: 0x34 }
  - { offsetInCU: 0x90DD, offset: 0x16095, size: 0x8, addend: 0x0, symName: __ZNK5Catch10BinaryExprIRKiS2_E29streamReconstructedExpressionERNSt3__113basic_ostreamIcNS4_11char_traitsIcEEEE, symObjAddr: 0x6788, symBinAddr: 0x10000B2F0, symSize: 0xD4 }
  - { offsetInCU: 0x9110, offset: 0x160C8, size: 0x8, addend: 0x0, symName: __ZN5Catch10BinaryExprIRKiS2_ED0Ev, symObjAddr: 0x685C, symBinAddr: 0x10000B3C4, symSize: 0x30 }
  - { offsetInCU: 0x913C, offset: 0x160F4, size: 0x8, addend: 0x0, symName: __ZN5Catch9StringRefC2ERKS0_, symObjAddr: 0x688C, symBinAddr: 0x10000B3F4, symSize: 0x34 }
  - { offsetInCU: 0x9173, offset: 0x1612B, size: 0x8, addend: 0x0, symName: __ZN5Catch10BinaryExprIRKiS2_ED2Ev, symObjAddr: 0x68F0, symBinAddr: 0x10000B458, symSize: 0x48 }
  - { offsetInCU: 0x919F, offset: 0x16157, size: 0x8, addend: 0x0, symName: __ZN5Catch16AssertionHandlerD2Ev, symObjAddr: 0x6938, symBinAddr: 0x10000B4A0, symSize: 0x64 }
  - { offsetInCU: 0x91CC, offset: 0x16184, size: 0x8, addend: 0x0, symName: __ZN5Catch13AssertionInfoD1Ev, symObjAddr: 0x699C, symBinAddr: 0x10000B504, symSize: 0x2C }
  - { offsetInCU: 0x91F8, offset: 0x161B0, size: 0x8, addend: 0x0, symName: __ZN5Catch13AssertionInfoD2Ev, symObjAddr: 0x69C8, symBinAddr: 0x10000B530, symSize: 0x38 }
  - { offsetInCU: 0x9224, offset: 0x161DC, size: 0x8, addend: 0x0, symName: __ZN5Catch7ExprLhsIbEC1Eb, symObjAddr: 0x6A00, symBinAddr: 0x10000B568, symSize: 0x40 }
  - { offsetInCU: 0x925B, offset: 0x16213, size: 0x8, addend: 0x0, symName: __ZN5Catch7ExprLhsIbEC2Eb, symObjAddr: 0x6A40, symBinAddr: 0x10000B5A8, symSize: 0x2C }
  - { offsetInCU: 0x9292, offset: 0x1624A, size: 0x8, addend: 0x0, symName: __ZN5Catch10BinaryExprIbbEC1EbbNS_9StringRefEb, symObjAddr: 0x6A6C, symBinAddr: 0x10000B5D4, symSize: 0x68 }
  - { offsetInCU: 0x92F7, offset: 0x162AF, size: 0x8, addend: 0x0, symName: __ZN5Catch10BinaryExprIbbEC2EbbNS_9StringRefEb, symObjAddr: 0x6AD4, symBinAddr: 0x10000B63C, symSize: 0xA8 }
  - { offsetInCU: 0x935C, offset: 0x16314, size: 0x8, addend: 0x0, symName: __ZNK5Catch10BinaryExprIbbE29streamReconstructedExpressionERNSt3__113basic_ostreamIcNS2_11char_traitsIcEEEE, symObjAddr: 0x6B7C, symBinAddr: 0x10000B6E4, symSize: 0xD4 }
  - { offsetInCU: 0x938F, offset: 0x16347, size: 0x8, addend: 0x0, symName: __ZN5Catch10BinaryExprIbbED0Ev, symObjAddr: 0x6C50, symBinAddr: 0x10000B7B8, symSize: 0x30 }
  - { offsetInCU: 0x93BB, offset: 0x16373, size: 0x8, addend: 0x0, symName: __ZN5Catch10BinaryExprIbbED2Ev, symObjAddr: 0x6CB4, symBinAddr: 0x10000B81C, symSize: 0x48 }
  - { offsetInCU: 0x93E7, offset: 0x1639F, size: 0x8, addend: 0x0, symName: __ZNSt3__112basic_stringIcNS_11char_traitsIcEENS_9allocatorIcEEEC1B8ue170006EOS5_, symObjAddr: 0x6CFC, symBinAddr: 0x10000B864, symSize: 0x34 }
  - { offsetInCU: 0x941E, offset: 0x163D6, size: 0x8, addend: 0x0, symName: __ZNSt3__112basic_stringIcNS_11char_traitsIcEENS_9allocatorIcEEEC2B8ue170006EOS5_, symObjAddr: 0x6D30, symBinAddr: 0x10000B898, symSize: 0x50 }
  - { offsetInCU: 0x9455, offset: 0x1640D, size: 0x8, addend: 0x0, symName: __ZN5Catch7ExprLhsIRKNSt3__112basic_stringIcNS1_11char_traitsIcEENS1_9allocatorIcEEEEEC1ES9_, symObjAddr: 0x6DF8, symBinAddr: 0x10000B8E8, symSize: 0x34 }
  - { offsetInCU: 0x948C, offset: 0x16444, size: 0x8, addend: 0x0, symName: __ZN5Catch7ExprLhsIRKNSt3__112basic_stringIcNS1_11char_traitsIcEENS1_9allocatorIcEEEEEC2ES9_, symObjAddr: 0x6E2C, symBinAddr: 0x10000B91C, symSize: 0x20 }
  - { offsetInCU: 0x94C3, offset: 0x1647B, size: 0x8, addend: 0x0, symName: __ZN5Catch10BinaryExprIRKNSt3__112basic_stringIcNS1_11char_traitsIcEENS1_9allocatorIcEEEERA6_KcEC1EbS9_NS_9StringRefESC_, symObjAddr: 0x6E7C, symBinAddr: 0x10000B96C, symSize: 0x58 }
  - { offsetInCU: 0x9528, offset: 0x164E0, size: 0x8, addend: 0x0, symName: __ZN5Catch10BinaryExprIRKNSt3__112basic_stringIcNS1_11char_traitsIcEENS1_9allocatorIcEEEERA6_KcEC2EbS9_NS_9StringRefESC_, symObjAddr: 0x70A0, symBinAddr: 0x10000BA70, symSize: 0x8C }
  - { offsetInCU: 0x958D, offset: 0x16545, size: 0x8, addend: 0x0, symName: __ZNK5Catch10BinaryExprIRKNSt3__112basic_stringIcNS1_11char_traitsIcEENS1_9allocatorIcEEEERA6_KcE29streamReconstructedExpressionERNS1_13basic_ostreamIcS4_EE, symObjAddr: 0x712C, symBinAddr: 0x10000BAFC, symSize: 0xD4 }
  - { offsetInCU: 0x95C0, offset: 0x16578, size: 0x8, addend: 0x0, symName: __ZN5Catch10BinaryExprIRKNSt3__112basic_stringIcNS1_11char_traitsIcEENS1_9allocatorIcEEEERA6_KcED0Ev, symObjAddr: 0x7200, symBinAddr: 0x10000BBD0, symSize: 0x30 }
  - { offsetInCU: 0x95EC, offset: 0x165A4, size: 0x8, addend: 0x0, symName: __ZN5Catch11StringMakerIA6_cvE7convertEPKc, symObjAddr: 0x7288, symBinAddr: 0x10000BC58, symSize: 0x6C }
  - { offsetInCU: 0x960F, offset: 0x165C7, size: 0x8, addend: 0x0, symName: __ZN5Catch10BinaryExprIRKNSt3__112basic_stringIcNS1_11char_traitsIcEENS1_9allocatorIcEEEERA6_KcED2Ev, symObjAddr: 0x72F4, symBinAddr: 0x10000BCC4, symSize: 0x48 }
  - { offsetInCU: 0x963B, offset: 0x165F3, size: 0x8, addend: 0x0, symName: __ZN5Catch7ExprLhsIRKP8RingNodeEC1ES4_, symObjAddr: 0x733C, symBinAddr: 0x10000BD0C, symSize: 0x34 }
  - { offsetInCU: 0x9672, offset: 0x1662A, size: 0x8, addend: 0x0, symName: __ZN5Catch7ExprLhsIRKP8RingNodeEC2ES4_, symObjAddr: 0x7370, symBinAddr: 0x10000BD40, symSize: 0x20 }
  - { offsetInCU: 0x96A9, offset: 0x16661, size: 0x8, addend: 0x0, symName: __ZN5Catch10BinaryExprIRKP8RingNodeS4_EC1EbS4_NS_9StringRefES4_, symObjAddr: 0x73C0, symBinAddr: 0x10000BD90, symSize: 0x58 }
  - { offsetInCU: 0x970E, offset: 0x166C6, size: 0x8, addend: 0x0, symName: __ZN5Catch10BinaryExprIRKP8RingNodeS4_EC2EbS4_NS_9StringRefES4_, symObjAddr: 0x7418, symBinAddr: 0x10000BDE8, symSize: 0x8C }
  - { offsetInCU: 0x9773, offset: 0x1672B, size: 0x8, addend: 0x0, symName: __ZNK5Catch10BinaryExprIRKP8RingNodeS4_E29streamReconstructedExpressionERNSt3__113basic_ostreamIcNS6_11char_traitsIcEEEE, symObjAddr: 0x74A4, symBinAddr: 0x10000BE74, symSize: 0xD4 }
  - { offsetInCU: 0x97A6, offset: 0x1675E, size: 0x8, addend: 0x0, symName: __ZN5Catch10BinaryExprIRKP8RingNodeS4_ED0Ev, symObjAddr: 0x7578, symBinAddr: 0x10000BF48, symSize: 0x30 }
  - { offsetInCU: 0x97D2, offset: 0x1678A, size: 0x8, addend: 0x0, symName: __ZN5Catch11StringMakerIP8RingNodevE7convertIS1_EENSt3__112basic_stringIcNS5_11char_traitsIcEENS5_9allocatorIcEEEEPT_, symObjAddr: 0x75D8, symBinAddr: 0x10000BFA8, symSize: 0x5C }
  - { offsetInCU: 0x97FE, offset: 0x167B6, size: 0x8, addend: 0x0, symName: __ZN5Catch10BinaryExprIRKP8RingNodeS4_ED2Ev, symObjAddr: 0x7664, symBinAddr: 0x10000C034, symSize: 0x48 }
  - { offsetInCU: 0x984F, offset: 0x16807, size: 0x8, addend: 0x0, symName: __ZN5Catch7ExprLhsIRKNSt3__112basic_stringIcNS1_11char_traitsIcEENS1_9allocatorIcEEEEEeqIA5_cEEKNS_10BinaryExprIS9_RKT_EESG_, symObjAddr: 0x76AC, symBinAddr: 0x10000C07C, symSize: 0xA8 }
  - { offsetInCU: 0x988B, offset: 0x16843, size: 0x8, addend: 0x0, symName: __ZN5Catch10BinaryExprIRKNSt3__112basic_stringIcNS1_11char_traitsIcEENS1_9allocatorIcEEEERA5_KcED1Ev, symObjAddr: 0x7754, symBinAddr: 0x10000C124, symSize: 0x2C }
  - { offsetInCU: 0x98D0, offset: 0x16888, size: 0x8, addend: 0x0, symName: __ZN5Catch7ExprLhsIRKP8RingNodeEeqIDnEEKNS_10BinaryExprIS4_RKT_EESA_, symObjAddr: 0x7780, symBinAddr: 0x10000C150, symSize: 0xA8 }
  - { offsetInCU: 0x990C, offset: 0x168C4, size: 0x8, addend: 0x0, symName: __ZN5Catch10BinaryExprIRKP8RingNodeRKDnED1Ev, symObjAddr: 0x7828, symBinAddr: 0x10000C1F8, symSize: 0x2C }
  - { offsetInCU: 0x995D, offset: 0x16915, size: 0x8, addend: 0x0, symName: __ZN5Catch7ExprLhsIRKNSt3__112basic_stringIcNS1_11char_traitsIcEENS1_9allocatorIcEEEEEeqIA8_cEEKNS_10BinaryExprIS9_RKT_EESG_, symObjAddr: 0x7854, symBinAddr: 0x10000C224, symSize: 0xA8 }
  - { offsetInCU: 0x9999, offset: 0x16951, size: 0x8, addend: 0x0, symName: __ZN5Catch10BinaryExprIRKNSt3__112basic_stringIcNS1_11char_traitsIcEENS1_9allocatorIcEEEERA8_KcED1Ev, symObjAddr: 0x78FC, symBinAddr: 0x10000C2CC, symSize: 0x2C }
  - { offsetInCU: 0x99C5, offset: 0x1697D, size: 0x8, addend: 0x0, symName: __ZN5Catch10BinaryExprIRKNSt3__112basic_stringIcNS1_11char_traitsIcEENS1_9allocatorIcEEEERA5_KcEC1EbS9_NS_9StringRefESC_, symObjAddr: 0x7958, symBinAddr: 0x10000C328, symSize: 0x58 }
  - { offsetInCU: 0x9A2A, offset: 0x169E2, size: 0x8, addend: 0x0, symName: __ZN5Catch10BinaryExprIRKNSt3__112basic_stringIcNS1_11char_traitsIcEENS1_9allocatorIcEEEERA5_KcEC2EbS9_NS_9StringRefESC_, symObjAddr: 0x79B0, symBinAddr: 0x10000C380, symSize: 0x8C }
  - { offsetInCU: 0x9A8F, offset: 0x16A47, size: 0x8, addend: 0x0, symName: __ZNK5Catch10BinaryExprIRKNSt3__112basic_stringIcNS1_11char_traitsIcEENS1_9allocatorIcEEEERA5_KcE29streamReconstructedExpressionERNS1_13basic_ostreamIcS4_EE, symObjAddr: 0x7A3C, symBinAddr: 0x10000C40C, symSize: 0xD4 }
  - { offsetInCU: 0x9AC2, offset: 0x16A7A, size: 0x8, addend: 0x0, symName: __ZN5Catch10BinaryExprIRKNSt3__112basic_stringIcNS1_11char_traitsIcEENS1_9allocatorIcEEEERA5_KcED0Ev, symObjAddr: 0x7B10, symBinAddr: 0x10000C4E0, symSize: 0x30 }
  - { offsetInCU: 0x9AEE, offset: 0x16AA6, size: 0x8, addend: 0x0, symName: __ZN5Catch11StringMakerIA5_cvE7convertEPKc, symObjAddr: 0x7B6C, symBinAddr: 0x10000C53C, symSize: 0x6C }
  - { offsetInCU: 0x9B11, offset: 0x16AC9, size: 0x8, addend: 0x0, symName: __ZN5Catch10BinaryExprIRKNSt3__112basic_stringIcNS1_11char_traitsIcEENS1_9allocatorIcEEEERA5_KcED2Ev, symObjAddr: 0x7BD8, symBinAddr: 0x10000C5A8, symSize: 0x48 }
  - { offsetInCU: 0x9B3D, offset: 0x16AF5, size: 0x8, addend: 0x0, symName: __ZN5Catch10BinaryExprIRKP8RingNodeRKDnEC1EbS4_NS_9StringRefES6_, symObjAddr: 0x7C48, symBinAddr: 0x10000C618, symSize: 0x58 }
  - { offsetInCU: 0x9BA2, offset: 0x16B5A, size: 0x8, addend: 0x0, symName: __ZN5Catch10BinaryExprIRKP8RingNodeRKDnEC2EbS4_NS_9StringRefES6_, symObjAddr: 0x7CA0, symBinAddr: 0x10000C670, symSize: 0x8C }
  - { offsetInCU: 0x9C07, offset: 0x16BBF, size: 0x8, addend: 0x0, symName: __ZNK5Catch10BinaryExprIRKP8RingNodeRKDnE29streamReconstructedExpressionERNSt3__113basic_ostreamIcNS8_11char_traitsIcEEEE, symObjAddr: 0x7D2C, symBinAddr: 0x10000C6FC, symSize: 0xD4 }
  - { offsetInCU: 0x9C3A, offset: 0x16BF2, size: 0x8, addend: 0x0, symName: __ZN5Catch10BinaryExprIRKP8RingNodeRKDnED0Ev, symObjAddr: 0x7E00, symBinAddr: 0x10000C7D0, symSize: 0x30 }
  - { offsetInCU: 0x9C66, offset: 0x16C1E, size: 0x8, addend: 0x0, symName: __ZN5Catch10BinaryExprIRKP8RingNodeRKDnED2Ev, symObjAddr: 0x7E5C, symBinAddr: 0x10000C82C, symSize: 0x48 }
  - { offsetInCU: 0x9C92, offset: 0x16C4A, size: 0x8, addend: 0x0, symName: __ZN5Catch10BinaryExprIRKNSt3__112basic_stringIcNS1_11char_traitsIcEENS1_9allocatorIcEEEERA8_KcEC1EbS9_NS_9StringRefESC_, symObjAddr: 0x7ED4, symBinAddr: 0x10000C8A4, symSize: 0x58 }
  - { offsetInCU: 0x9CF7, offset: 0x16CAF, size: 0x8, addend: 0x0, symName: __ZN5Catch10BinaryExprIRKNSt3__112basic_stringIcNS1_11char_traitsIcEENS1_9allocatorIcEEEERA8_KcEC2EbS9_NS_9StringRefESC_, symObjAddr: 0x7F2C, symBinAddr: 0x10000C8FC, symSize: 0x8C }
  - { offsetInCU: 0x9D5C, offset: 0x16D14, size: 0x8, addend: 0x0, symName: __ZNK5Catch10BinaryExprIRKNSt3__112basic_stringIcNS1_11char_traitsIcEENS1_9allocatorIcEEEERA8_KcE29streamReconstructedExpressionERNS1_13basic_ostreamIcS4_EE, symObjAddr: 0x7FB8, symBinAddr: 0x10000C988, symSize: 0xD4 }
  - { offsetInCU: 0x9D8F, offset: 0x16D47, size: 0x8, addend: 0x0, symName: __ZN5Catch10BinaryExprIRKNSt3__112basic_stringIcNS1_11char_traitsIcEENS1_9allocatorIcEEEERA8_KcED0Ev, symObjAddr: 0x808C, symBinAddr: 0x10000CA5C, symSize: 0x30 }
  - { offsetInCU: 0x9DBB, offset: 0x16D73, size: 0x8, addend: 0x0, symName: __ZN5Catch11StringMakerIA8_cvE7convertEPKc, symObjAddr: 0x80E8, symBinAddr: 0x10000CAB8, symSize: 0x6C }
  - { offsetInCU: 0x9DDE, offset: 0x16D96, size: 0x8, addend: 0x0, symName: __ZN5Catch10BinaryExprIRKNSt3__112basic_stringIcNS1_11char_traitsIcEENS1_9allocatorIcEEEERA8_KcED2Ev, symObjAddr: 0x8154, symBinAddr: 0x10000CB24, symSize: 0x48 }
  - { offsetInCU: 0x1D8, offset: 0x17057, size: 0x8, addend: 0x0, symName: __ZN5Catch12_GLOBAL__N_142catch_internal_RegistrarForCompactReporterE, symObjAddr: 0x62C028, symBinAddr: 0x100108C28, symSize: 0x0 }
  - { offsetInCU: 0x1F3, offset: 0x17072, size: 0x8, addend: 0x0, symName: __ZN5Catch12_GLOBAL__N_142catch_internal_RegistrarForConsoleReporterE, symObjAddr: 0x62C029, symBinAddr: 0x100108C29, symSize: 0x0 }
  - { offsetInCU: 0x277, offset: 0x170F6, size: 0x8, addend: 0x0, symName: __ZN5Catch12_GLOBAL__N_140catch_internal_RegistrarForJunitReporterE, symObjAddr: 0x62C02A, symBinAddr: 0x100108C2A, symSize: 0x0 }
  - { offsetInCU: 0x292, offset: 0x17111, size: 0x8, addend: 0x0, symName: __ZN5Catch12_GLOBAL__N_138catch_internal_RegistrarForXmlReporterE, symObjAddr: 0x62C02B, symBinAddr: 0x100108C2B, symSize: 0x0 }
  - { offsetInCU: 0x371, offset: 0x171F0, size: 0x8, addend: 0x0, symName: __ZN5Catch12_GLOBAL__N_113getSingletonsEv, symObjAddr: 0x15724, symBinAddr: 0x100021F5C, symSize: 0x58 }
  - { offsetInCU: 0x39D, offset: 0x1721C, size: 0x8, addend: 0x0, symName: __ZZN5Catch12_GLOBAL__N_113getSingletonsEvE12g_singletons, symObjAddr: 0x62C040, symBinAddr: 0x100108C40, symSize: 0x0 }
  - { offsetInCU: 0x3A8, offset: 0x17227, size: 0x8, addend: 0x0, symName: __ZN5Catch12_GLOBAL__N_123estimateClockResolutionEv, symObjAddr: 0x1D558, symBinAddr: 0x100029C78, symSize: 0x100 }
  - { offsetInCU: 0x3D4, offset: 0x17253, size: 0x8, addend: 0x0, symName: __ZZN5Catch12_GLOBAL__N_123estimateClockResolutionEvE10iterations, symObjAddr: 0xE64C8, symBinAddr: 0x1000F5FA0, symSize: 0x0 }
  - { offsetInCU: 0x736, offset: 0x175B5, size: 0x8, addend: 0x0, symName: __ZN5Catch12_GLOBAL__N_1lsERNSt3__113basic_ostreamIcNS1_11char_traitsIcEEEERKNS_20ITransientExpressionE, symObjAddr: 0xC30, symBinAddr: 0x10000D934, symSize: 0x38 }
  - { offsetInCU: 0x774, offset: 0x175F3, size: 0x8, addend: 0x0, symName: __ZN5Catch12_GLOBAL__N_122platformColourInstanceEv, symObjAddr: 0x672C, symBinAddr: 0x100013338, symSize: 0x178 }
  - { offsetInCU: 0x7C1, offset: 0x17640, size: 0x8, addend: 0x0, symName: __ZN5Catch12_GLOBAL__N_120applyFilenamesAsTagsERKNS_7IConfigE, symObjAddr: 0x14F88, symBinAddr: 0x1000217C0, symSize: 0x1E0 }
  - { offsetInCU: 0x881, offset: 0x17700, size: 0x8, addend: 0x0, symName: __ZN5Catch12_GLOBAL__N_18runTestsERKNSt3__110shared_ptrINS_6ConfigEEE, symObjAddr: 0x151A8, symBinAddr: 0x1000219E0, symSize: 0x480 }
  - { offsetInCU: 0x9C4, offset: 0x17843, size: 0x8, addend: 0x0, symName: __ZN5Catch12_GLOBAL__N_19toLowerChEc, symObjAddr: 0x16404, symBinAddr: 0x100022C3C, symSize: 0x28 }
  - { offsetInCU: 0x9F3, offset: 0x17872, size: 0x8, addend: 0x0, symName: __ZN5Catch12_GLOBAL__N_115parseSpecialTagERKNSt3__112basic_stringIcNS1_11char_traitsIcEENS1_9allocatorIcEEEE, symObjAddr: 0x17EE0, symBinAddr: 0x1000246AC, symSize: 0x114 }
  - { offsetInCU: 0xA22, offset: 0x178A1, size: 0x8, addend: 0x0, symName: __ZN5Catch12_GLOBAL__N_121enforceNotReservedTagERKNSt3__112basic_stringIcNS1_11char_traitsIcEENS1_9allocatorIcEEEERKNS_14SourceLineInfoE, symObjAddr: 0x17FF4, symBinAddr: 0x1000247C0, symSize: 0x13C }
  - { offsetInCU: 0xA5C, offset: 0x178DB, size: 0x8, addend: 0x0, symName: __ZN5Catch12_GLOBAL__N_113hexEscapeCharERNSt3__113basic_ostreamIcNS1_11char_traitsIcEEEEh, symObjAddr: 0x1F7E8, symBinAddr: 0x10002BF08, symSize: 0x90 }
  - { offsetInCU: 0xA96, offset: 0x17915, size: 0x8, addend: 0x0, symName: __ZN5Catch12_GLOBAL__N_113trailingBytesEh, symObjAddr: 0x1F878, symBinAddr: 0x10002BF98, symSize: 0x17C }
  - { offsetInCU: 0xAC5, offset: 0x17944, size: 0x8, addend: 0x0, symName: __ZN5Catch12_GLOBAL__N_111headerValueEh, symObjAddr: 0x1F9F4, symBinAddr: 0x10002C114, symSize: 0x188 }
  - { offsetInCU: 0xC5E, offset: 0x17ADD, size: 0x8, addend: 0x0, symName: __ZN5Catch12_GLOBAL__N_111printTotalsERNSt3__113basic_ostreamIcNS1_11char_traitsIcEEEERKNS_6TotalsE, symObjAddr: 0x21500, symBinAddr: 0x10002DC20, symSize: 0x7A8 }
  - { offsetInCU: 0xE39, offset: 0x17CB8, size: 0x8, addend: 0x0, symName: __ZN5Catch12_GLOBAL__N_19makeRatioEmm, symObjAddr: 0x2560C, symBinAddr: 0x100031D2C, symSize: 0x9C }
  - { offsetInCU: 0xE86, offset: 0x17D05, size: 0x8, addend: 0x0, symName: __ZN5Catch12_GLOBAL__N_17findMaxERmS1_S1_, symObjAddr: 0x256A8, symBinAddr: 0x100031DC8, symSize: 0xA0 }
  - { offsetInCU: 0xED3, offset: 0x17D52, size: 0x8, addend: 0x0, symName: __ZN5Catch12_GLOBAL__N_119getCurrentTimestampEv, symObjAddr: 0x26C34, symBinAddr: 0x100033318, symSize: 0xA8 }
  - { offsetInCU: 0xF3E, offset: 0x17DBD, size: 0x8, addend: 0x0, symName: __ZN5Catch12_GLOBAL__N_111fileNameTagERKNSt3__16vectorINS1_12basic_stringIcNS1_11char_traitsIcEENS1_9allocatorIcEEEENS6_IS8_EEEE, symObjAddr: 0x27094, symBinAddr: 0x100033778, symSize: 0xA0 }
  - { offsetInCU: 0xF9D, offset: 0x17E1C, size: 0x8, addend: 0x0, symName: __ZN5Catch12_GLOBAL__N_119useColourOnPlatformEv, symObjAddr: 0x3A468, symBinAddr: 0x1000468A8, symSize: 0x4C }
  - { offsetInCU: 0xFBC, offset: 0x17E3B, size: 0x8, addend: 0x0, symName: __ZN5Catch12_GLOBAL__N_112makeReporterERKNSt3__110shared_ptrINS_6ConfigEEE, symObjAddr: 0x524F0, symBinAddr: 0x10005E878, symSize: 0x300 }
  - { offsetInCU: 0x1051, offset: 0x17ED0, size: 0x8, addend: 0x0, symName: __ZN5Catch12_GLOBAL__N_114createReporterERKNSt3__112basic_stringIcNS1_11char_traitsIcEENS1_9allocatorIcEEEERKNS1_10shared_ptrIKNS_7IConfigEEE, symObjAddr: 0x52864, symBinAddr: 0x10005EBEC, symSize: 0x198 }
  - { offsetInCU: 0x109F, offset: 0x17F1E, size: 0x8, addend: 0x0, symName: __ZN5Catch12_GLOBAL__N_113isReservedTagERKNSt3__112basic_stringIcNS1_11char_traitsIcEENS1_9allocatorIcEEEE, symObjAddr: 0x56574, symBinAddr: 0x1000628FC, symSize: 0x88 }
  - { offsetInCU: 0x10CE, offset: 0x17F4D, size: 0x8, addend: 0x0, symName: __ZN5Catch12_GLOBAL__N_1lsERNSt3__113basic_ostreamIcNS1_11char_traitsIcEEEERKNS0_8DurationE, symObjAddr: 0xCB154, symBinAddr: 0x1000D6A0C, symSize: 0x98 }
  - { offsetInCU: 0x1127, offset: 0x17FA6, size: 0x8, addend: 0x0, symName: __ZN5Catch15IMutableContext14currentContextE, symObjAddr: 0x62C050, symBinAddr: 0x100108C50, symSize: 0x0 }
  - { offsetInCU: 0x1A38, offset: 0x188B7, size: 0x8, addend: 0x0, symName: __ZN5Catch10Generators16randomiseIndicesEmm, symObjAddr: 0x79C8, symBinAddr: 0x1000144B0, symSize: 0x1AC }
  - { offsetInCU: 0x1ABA, offset: 0x18939, size: 0x8, addend: 0x0, symName: __ZN5Catch10Generators23acquireGeneratorTrackerERKNS_14SourceLineInfoE, symObjAddr: 0x7EF8, symBinAddr: 0x1000149E0, symSize: 0x30 }
  - { offsetInCU: 0x1AE8, offset: 0x18967, size: 0x8, addend: 0x0, symName: __ZN5Catch10Generators3allIiEENS0_9GeneratorIT_EEv, symObjAddr: 0x7F28, symBinAddr: 0x100014A10, symSize: 0x4C }
  - { offsetInCU: 0x1B10, offset: 0x1898F, size: 0x8, addend: 0x0, symName: __ZN5Catch10Generators5rangeIiEENS0_9GeneratorIT_EERKS3_S6_, symObjAddr: 0x7F74, symBinAddr: 0x100014A5C, symSize: 0xB8 }
  - { offsetInCU: 0x1B5B, offset: 0x189DA, size: 0x8, addend: 0x0, symName: __ZN5Catch10Generators2pf11make_uniqueINS0_14RangeGeneratorIiEEJRKiS6_EEENSt3__110unique_ptrIT_NS7_14default_deleteIS9_EEEEDpOT0_, symObjAddr: 0x74234, symBinAddr: 0x10007FB04, symSize: 0x74 }
  - { offsetInCU: 0x28BC, offset: 0x1973B, size: 0x8, addend: 0x0, symName: __ZN5Catch21FatalConditionHandler5isSetE, symObjAddr: 0x62C058, symBinAddr: 0x100108C58, symSize: 0x0 }
  - { offsetInCU: 0x294A, offset: 0x197C9, size: 0x8, addend: 0x0, symName: __ZN5Catch21FatalConditionHandler13oldSigActionsE, symObjAddr: 0x62C078, symBinAddr: 0x100108C78, symSize: 0x0 }
  - { offsetInCU: 0x295E, offset: 0x197DD, size: 0x8, addend: 0x0, symName: __ZN5Catch21FatalConditionHandler11oldSigStackE, symObjAddr: 0x62C060, symBinAddr: 0x100108C60, symSize: 0x0 }
  - { offsetInCU: 0x2976, offset: 0x197F5, size: 0x8, addend: 0x0, symName: __ZN5Catch21FatalConditionHandler11altStackMemE, symObjAddr: 0x62C0D8, symBinAddr: 0x100108CD8, symSize: 0x0 }
  - { offsetInCU: 0x298A, offset: 0x19809, size: 0x8, addend: 0x0, symName: __ZN5Catch11MessageInfo11globalCountE, symObjAddr: 0x6340D8, symBinAddr: 0x100110CD8, symSize: 0x0 }
  - { offsetInCU: 0x2998, offset: 0x19817, size: 0x8, addend: 0x0, symName: __ZN5Catch3rngEv, symObjAddr: 0x7D48, symBinAddr: 0x100014830, symSize: 0xA0 }
  - { offsetInCU: 0x29C3, offset: 0x19842, size: 0x8, addend: 0x0, symName: __ZZN5Catch3rngEvE5s_rng, symObjAddr: 0x62B5F0, symBinAddr: 0x1001081F0, symSize: 0x0 }
  - { offsetInCU: 0x4CDE, offset: 0x1BB5D, size: 0x8, addend: 0x0, symName: __ZN5Catch5clara6detaillsERNSt3__113basic_ostreamIcNS2_11char_traitsIcEEEERKNS1_6ParserE, symObjAddr: 0x14144, symBinAddr: 0x10002097C, symSize: 0x30 }
  - { offsetInCU: 0x4D1B, offset: 0x1BB9A, size: 0x8, addend: 0x0, symName: __ZN5Catch5clara6detail11convertIntoERKNSt3__112basic_stringIcNS2_11char_traitsIcEENS2_9allocatorIcEEEERS8_, symObjAddr: 0x309FC, symBinAddr: 0x10003D048, symSize: 0x44 }
  - { offsetInCU: 0x4F09, offset: 0x1BD88, size: 0x8, addend: 0x0, symName: __ZN5Catch5clara6detail12normaliseOptERKNSt3__112basic_stringIcNS2_11char_traitsIcEENS2_9allocatorIcEEEE, symObjAddr: 0x33548, symBinAddr: 0x10003FB94, symSize: 0x38 }
  - { offsetInCU: 0x4F37, offset: 0x1BDB6, size: 0x8, addend: 0x0, symName: __ZN5Catch5clara6detail11isOptPrefixEc, symObjAddr: 0x34204, symBinAddr: 0x100040850, symSize: 0x20 }
  - { offsetInCU: 0x4F66, offset: 0x1BDE5, size: 0x8, addend: 0x0, symName: '__ZN5Catch5clara6detail12invokeLambdaINSt3__112basic_stringIcNS3_11char_traitsIcEENS3_9allocatorIcEEEEZNS_21makeCommandLineParserERNS_10ConfigDataEE3$_0EENS1_11BasicResultINS1_15ParseResultTypeEEERKT0_RKS9_', symObjAddr: 0x61D80, symBinAddr: 0x10006D650, symSize: 0xD0 }
  - { offsetInCU: 0x506E, offset: 0x1BEED, size: 0x8, addend: 0x0, symName: '__ZN5Catch5clara6detail12invokeLambdaIiZNS_21makeCommandLineParserERNS_10ConfigDataEE3$_2EENS1_11BasicResultINS1_15ParseResultTypeEEERKT0_RKNSt3__112basic_stringIcNSC_11char_traitsIcEENSC_9allocatorIcEEEE', symObjAddr: 0x63C4C, symBinAddr: 0x10006F51C, symSize: 0xA4 }
  - { offsetInCU: 0x50DC, offset: 0x1BF5B, size: 0x8, addend: 0x0, symName: __ZN5Catch5clara6detail11convertIntoIiEENS1_11BasicResultINS1_15ParseResultTypeEEERKNSt3__112basic_stringIcNS6_11char_traitsIcEENS6_9allocatorIcEEEERT_, symObjAddr: 0x63CF0, symBinAddr: 0x10006F5C0, symSize: 0x164 }
  - { offsetInCU: 0x5132, offset: 0x1BFB1, size: 0x8, addend: 0x0, symName: '__ZN5Catch5clara6detail12invokeLambdaINSt3__112basic_stringIcNS3_11char_traitsIcEENS3_9allocatorIcEEEEZNS_21makeCommandLineParserERNS_10ConfigDataEE3$_3EENS1_11BasicResultINS1_15ParseResultTypeEEERKT0_RKS9_', symObjAddr: 0x64EAC, symBinAddr: 0x10007077C, symSize: 0xD0 }
  - { offsetInCU: 0x51A0, offset: 0x1C01F, size: 0x8, addend: 0x0, symName: '__ZN5Catch5clara6detail12invokeLambdaIbZNS_21makeCommandLineParserERNS_10ConfigDataEE3$_4EENS1_11BasicResultINS1_15ParseResultTypeEEERKT0_RKNSt3__112basic_stringIcNSC_11char_traitsIcEENSC_9allocatorIcEEEE', symObjAddr: 0x65DF8, symBinAddr: 0x1000716C8, symSize: 0xA4 }
  - { offsetInCU: 0x520E, offset: 0x1C08D, size: 0x8, addend: 0x0, symName: __ZN5Catch5clara6detail11convertIntoERKNSt3__112basic_stringIcNS2_11char_traitsIcEENS2_9allocatorIcEEEERb, symObjAddr: 0x65E9C, symBinAddr: 0x10007176C, symSize: 0x270 }
  - { offsetInCU: 0x527B, offset: 0x1C0FA, size: 0x8, addend: 0x0, symName: '__ZN5Catch5clara6detail12invokeLambdaINSt3__112basic_stringIcNS3_11char_traitsIcEENS3_9allocatorIcEEEEZNS_21makeCommandLineParserERNS_10ConfigDataEE3$_5EENS1_11BasicResultINS1_15ParseResultTypeEEERKT0_RKS9_', symObjAddr: 0x66F00, symBinAddr: 0x1000727D0, symSize: 0xD0 }
  - { offsetInCU: 0x52E9, offset: 0x1C168, size: 0x8, addend: 0x0, symName: '__ZN5Catch5clara6detail12invokeLambdaINSt3__112basic_stringIcNS3_11char_traitsIcEENS3_9allocatorIcEEEEZNS_21makeCommandLineParserERNS_10ConfigDataEE3$_6EENS1_11BasicResultINS1_15ParseResultTypeEEERKT0_RKS9_', symObjAddr: 0x687D0, symBinAddr: 0x1000740A0, symSize: 0xD0 }
  - { offsetInCU: 0x5357, offset: 0x1C1D6, size: 0x8, addend: 0x0, symName: '__ZN5Catch5clara6detail12invokeLambdaINSt3__112basic_stringIcNS3_11char_traitsIcEENS3_9allocatorIcEEEEZNS_21makeCommandLineParserERNS_10ConfigDataEE3$_7EENS1_11BasicResultINS1_15ParseResultTypeEEERKT0_RKS9_', symObjAddr: 0x6972C, symBinAddr: 0x100074FFC, symSize: 0xD0 }
  - { offsetInCU: 0x53C5, offset: 0x1C244, size: 0x8, addend: 0x0, symName: '__ZN5Catch5clara6detail12invokeLambdaINSt3__112basic_stringIcNS3_11char_traitsIcEENS3_9allocatorIcEEEEZNS_21makeCommandLineParserERNS_10ConfigDataEE3$_8EENS1_11BasicResultINS1_15ParseResultTypeEEERKT0_RKS9_', symObjAddr: 0x6A71C, symBinAddr: 0x100075FEC, symSize: 0xD0 }
  - { offsetInCU: 0x5433, offset: 0x1C2B2, size: 0x8, addend: 0x0, symName: __ZN5Catch5clara6detail11convertIntoIjEENS1_11BasicResultINS1_15ParseResultTypeEEERKNSt3__112basic_stringIcNS6_11char_traitsIcEENS6_9allocatorIcEEEERT_, symObjAddr: 0x6A8B0, symBinAddr: 0x100076180, symSize: 0x164 }
  - { offsetInCU: 0x5489, offset: 0x1C308, size: 0x8, addend: 0x0, symName: '__ZN5Catch5clara6detail12invokeLambdaINSt3__112basic_stringIcNS3_11char_traitsIcEENS3_9allocatorIcEEEEZNS_21makeCommandLineParserERNS_10ConfigDataEE3$_9EENS1_11BasicResultINS1_15ParseResultTypeEEERKT0_RKS9_', symObjAddr: 0x6B6C8, symBinAddr: 0x100076F98, symSize: 0xD0 }
  - { offsetInCU: 0x54F7, offset: 0x1C376, size: 0x8, addend: 0x0, symName: '__ZN5Catch5clara6detail12invokeLambdaINSt3__112basic_stringIcNS3_11char_traitsIcEENS3_9allocatorIcEEEEZNS_21makeCommandLineParserERNS_10ConfigDataEE4$_10EENS1_11BasicResultINS1_15ParseResultTypeEEERKT0_RKS9_', symObjAddr: 0x6C624, symBinAddr: 0x100077EF4, symSize: 0xD0 }
  - { offsetInCU: 0x556B, offset: 0x1C3EA, size: 0x8, addend: 0x0, symName: __ZN5Catch5clara8TextFlow17isBreakableBeforeEc, symObjAddr: 0x59C54, symBinAddr: 0x100065ECC, symSize: 0xDC }
  - { offsetInCU: 0x5596, offset: 0x1C415, size: 0x8, addend: 0x0, symName: __ZZN5Catch5clara8TextFlow17isBreakableBeforeEcE5chars, symObjAddr: 0xEC250, symBinAddr: 0x100108078, symSize: 0x0 }
  - { offsetInCU: 0x55B0, offset: 0x1C42F, size: 0x8, addend: 0x0, symName: __ZN5Catch5clara8TextFlow16isBreakableAfterEc, symObjAddr: 0x59D30, symBinAddr: 0x100065FA8, symSize: 0xDC }
  - { offsetInCU: 0x55DB, offset: 0x1C45A, size: 0x8, addend: 0x0, symName: __ZZN5Catch5clara8TextFlow16isBreakableAfterEcE5chars, symObjAddr: 0xEC270, symBinAddr: 0x100108098, symSize: 0x0 }
  - { offsetInCU: 0x55F5, offset: 0x1C474, size: 0x8, addend: 0x0, symName: __ZN5Catch5clara8TextFlow12isWhitespaceEc, symObjAddr: 0x59B4C, symBinAddr: 0x100065DC4, symSize: 0xDC }
  - { offsetInCU: 0x5620, offset: 0x1C49F, size: 0x8, addend: 0x0, symName: __ZZN5Catch5clara8TextFlow12isWhitespaceEcE5chars, symObjAddr: 0xEC290, symBinAddr: 0x1001080B8, symSize: 0x0 }
  - { offsetInCU: 0x5AF4, offset: 0x1C973, size: 0x8, addend: 0x0, symName: __ZN5Catch5clara8TextFlowlsERNSt3__113basic_ostreamIcNS2_11char_traitsIcEEEERKNS1_6ColumnE, symObjAddr: 0x9C30, symBinAddr: 0x1000166EC, symSize: 0xFC }
  - { offsetInCU: 0x5B83, offset: 0x1CA02, size: 0x8, addend: 0x0, symName: __ZN5Catch5clara8TextFlowlsERNSt3__113basic_ostreamIcNS2_11char_traitsIcEEEERKNS1_7ColumnsE, symObjAddr: 0xB6C0, symBinAddr: 0x10001817C, symSize: 0x148 }
  - { offsetInCU: 0x6242, offset: 0x1D0C1, size: 0x8, addend: 0x0, symName: __ZN5Catch4trimERKNSt3__112basic_stringIcNS0_11char_traitsIcEENS0_9allocatorIcEEEE, symObjAddr: 0x1642C, symBinAddr: 0x100022C64, symSize: 0x9C }
  - { offsetInCU: 0x626D, offset: 0x1D0EC, size: 0x8, addend: 0x0, symName: __ZZN5Catch4trimERKNSt3__112basic_stringIcNS0_11char_traitsIcEENS0_9allocatorIcEEEEE15whitespaceChars, symObjAddr: 0xEC238, symBinAddr: 0x100108060, symSize: 0x0 }
  - { offsetInCU: 0x6A77, offset: 0x1D8F6, size: 0x8, addend: 0x0, symName: __ZN5Catch27getEstimatedClockResolutionEv, symObjAddr: 0x20C0, symBinAddr: 0x10000ED38, symSize: 0xA8 }
  - { offsetInCU: 0x6AA2, offset: 0x1D921, size: 0x8, addend: 0x0, symName: __ZZN5Catch27getEstimatedClockResolutionEvE12s_resolution, symObjAddr: 0x62BFF0, symBinAddr: 0x100108BF0, symSize: 0x0 }
  - { offsetInCU: 0x6ABF, offset: 0x1D93E, size: 0x8, addend: 0x0, symName: __ZN5Catch6Detail17unprintableStringE, symObjAddr: 0x6340E0, symBinAddr: 0x100110CE0, symSize: 0x0 }
  - { offsetInCU: 0x6C4D, offset: 0x1DACC, size: 0x8, addend: 0x0, symName: __ZN5Catch6Detail9stringifyIdEENSt3__112basic_stringIcNS2_11char_traitsIcEENS2_9allocatorIcEEEERKT_, symObjAddr: 0x2E0, symBinAddr: 0x10000D02C, symSize: 0x30 }
  - { offsetInCU: 0x6C84, offset: 0x1DB03, size: 0x8, addend: 0x0, symName: __ZN5Catch6Detail9stringifyINS_14SourceLineInfoEEENSt3__112basic_stringIcNS3_11char_traitsIcEENS3_9allocatorIcEEEERKT_, symObjAddr: 0x9DCC, symBinAddr: 0x100016888, symSize: 0x2C }
  - { offsetInCU: 0x6CBB, offset: 0x1DB3A, size: 0x8, addend: 0x0, symName: __ZN5Catch6Detail17rawMemoryToStringEPKvm, symObjAddr: 0x1D6B4, symBinAddr: 0x100029DD4, symSize: 0x190 }
  - { offsetInCU: 0x6D43, offset: 0x1DBC2, size: 0x8, addend: 0x0, symName: __ZN5Catch6Detail9stringifyINSt3__112basic_stringIwNS2_11char_traitsIwEENS2_9allocatorIwEEEEEENS3_IcNS4_IcEENS6_IcEEEERKT_, symObjAddr: 0x1E118, symBinAddr: 0x10002A838, symSize: 0x2C }
  - { offsetInCU: 0x6D7A, offset: 0x1DBF9, size: 0x8, addend: 0x0, symName: __ZN5Catch6Detail9stringifyIxEENSt3__112basic_stringIcNS2_11char_traitsIcEENS2_9allocatorIcEEEERKT_, symObjAddr: 0x1E244, symBinAddr: 0x10002A964, symSize: 0x30 }
  - { offsetInCU: 0x6DB1, offset: 0x1DC30, size: 0x8, addend: 0x0, symName: __ZN5Catch6Detail9stringifyIyEENSt3__112basic_stringIcNS2_11char_traitsIcEENS2_9allocatorIcEEEERKT_, symObjAddr: 0x1E444, symBinAddr: 0x10002AB64, symSize: 0x30 }
  - { offsetInCU: 0x6DE8, offset: 0x1DC67, size: 0x8, addend: 0x0, symName: __ZN5Catch6Detail9stringifyIjEENSt3__112basic_stringIcNS2_11char_traitsIcEENS2_9allocatorIcEEEERKT_, symObjAddr: 0x1E764, symBinAddr: 0x10002AE84, symSize: 0x30 }
  - { offsetInCU: 0x6E1F, offset: 0x1DC9E, size: 0x8, addend: 0x0, symName: __ZN5Catch6Detail9stringifyIaEENSt3__112basic_stringIcNS2_11char_traitsIcEENS2_9allocatorIcEEEERKT_, symObjAddr: 0x1E7C8, symBinAddr: 0x10002AEE8, symSize: 0x30 }
  - { offsetInCU: 0x6E56, offset: 0x1DCD5, size: 0x8, addend: 0x0, symName: __ZN5Catch6Detail9stringifyIcEENSt3__112basic_stringIcNS2_11char_traitsIcEENS2_9allocatorIcEEEERKT_, symObjAddr: 0x1E82C, symBinAddr: 0x10002AF4C, symSize: 0x30 }
  - { offsetInCU: 0x6E8E, offset: 0x1DD0D, size: 0x8, addend: 0x0, symName: __ZN5Catch14libraryVersionEv, symObjAddr: 0x14220, symBinAddr: 0x100020A58, symSize: 0x88 }
  - { offsetInCU: 0x6EB9, offset: 0x1DD38, size: 0x8, addend: 0x0, symName: __ZZN5Catch14libraryVersionEvE7version, symObjAddr: 0x62C000, symBinAddr: 0x100108C00, symSize: 0x0 }
  - { offsetInCU: 0x9AC2, offset: 0x20941, size: 0x8, addend: 0x0, symName: __ZN5Catch12leakDetectorE, symObjAddr: 0x6340F8, symBinAddr: 0x100110CF8, symSize: 0x0 }
  - { offsetInCU: 0x9B04, offset: 0x20983, size: 0x8, addend: 0x0, symName: __ZN5CatchL10signalDefsE, symObjAddr: 0xEC1D8, symBinAddr: 0x100108000, symSize: 0x0 }
  - { offsetInCU: 0xA744, offset: 0x215C3, size: 0x8, addend: 0x0, symName: __ZN5Catch14getLineOfCharsILc45EEEPKcv, symObjAddr: 0x24DC0, symBinAddr: 0x1000314E0, symSize: 0x58 }
  - { offsetInCU: 0xA76F, offset: 0x215EE, size: 0x8, addend: 0x0, symName: __ZZN5Catch14getLineOfCharsILc45EEEPKcvE4line, symObjAddr: 0xEC2B8, symBinAddr: 0x1001080E0, symSize: 0x0 }
  - { offsetInCU: 0xA784, offset: 0x21603, size: 0x8, addend: 0x0, symName: __ZN5Catch14getLineOfCharsILc126EEEPKcv, symObjAddr: 0x249D8, symBinAddr: 0x1000310F8, symSize: 0x58 }
  - { offsetInCU: 0xA7AF, offset: 0x2162E, size: 0x8, addend: 0x0, symName: __ZZN5Catch14getLineOfCharsILc126EEEPKcvE4line, symObjAddr: 0xEC308, symBinAddr: 0x100108130, symSize: 0x0 }
  - { offsetInCU: 0xA7C5, offset: 0x21644, size: 0x8, addend: 0x0, symName: __ZN5Catch14getLineOfCharsILc46EEEPKcv, symObjAddr: 0x24E18, symBinAddr: 0x100031538, symSize: 0x58 }
  - { offsetInCU: 0xA7F0, offset: 0x2166F, size: 0x8, addend: 0x0, symName: __ZZN5Catch14getLineOfCharsILc46EEEPKcvE4line, symObjAddr: 0xEC358, symBinAddr: 0x100108180, symSize: 0x0 }
  - { offsetInCU: 0xB0F3, offset: 0x21F72, size: 0x8, addend: 0x0, symName: __ZN5Catch8Matchers6EqualsERKNSt3__112basic_stringIcNS1_11char_traitsIcEENS1_9allocatorIcEEEENS_13CaseSensitive6ChoiceE, symObjAddr: 0x1498, symBinAddr: 0x10000E13C, symSize: 0x74 }
  - { offsetInCU: 0xB130, offset: 0x21FAF, size: 0x8, addend: 0x0, symName: __ZN5Catch8Matchers9WithinULPEdi, symObjAddr: 0xCBF8, symBinAddr: 0x100019634, symSize: 0x44 }
  - { offsetInCU: 0xB16D, offset: 0x21FEC, size: 0x8, addend: 0x0, symName: __ZN5Catch8Matchers9WithinULPEfi, symObjAddr: 0xCC3C, symBinAddr: 0x100019678, symSize: 0x48 }
  - { offsetInCU: 0xB1AA, offset: 0x22029, size: 0x8, addend: 0x0, symName: __ZN5Catch8Matchers9WithinAbsEdd, symObjAddr: 0xCC84, symBinAddr: 0x1000196C0, symSize: 0x38 }
  - { offsetInCU: 0xB1F1, offset: 0x22070, size: 0x8, addend: 0x0, symName: __ZN5Catch8Matchers7Generic6Detail19finalizeDescriptionERKNSt3__112basic_stringIcNS3_11char_traitsIcEENS3_9allocatorIcEEEE, symObjAddr: 0xCCBC, symBinAddr: 0x1000196F8, symSize: 0xA0 }
  - { offsetInCU: 0xB221, offset: 0x220A0, size: 0x8, addend: 0x0, symName: __ZN5Catch8Matchers8ContainsERKNSt3__112basic_stringIcNS1_11char_traitsIcEENS1_9allocatorIcEEEENS_13CaseSensitive6ChoiceE, symObjAddr: 0xDE8C, symBinAddr: 0x10001A720, symSize: 0x74 }
  - { offsetInCU: 0xB25E, offset: 0x220DD, size: 0x8, addend: 0x0, symName: __ZN5Catch8Matchers8EndsWithERKNSt3__112basic_stringIcNS1_11char_traitsIcEENS1_9allocatorIcEEEENS_13CaseSensitive6ChoiceE, symObjAddr: 0xDF00, symBinAddr: 0x10001A794, symSize: 0x74 }
  - { offsetInCU: 0xB29B, offset: 0x2211A, size: 0x8, addend: 0x0, symName: __ZN5Catch8Matchers10StartsWithERKNSt3__112basic_stringIcNS1_11char_traitsIcEENS1_9allocatorIcEEEENS_13CaseSensitive6ChoiceE, symObjAddr: 0xDF74, symBinAddr: 0x10001A808, symSize: 0x74 }
  - { offsetInCU: 0xB2D8, offset: 0x22157, size: 0x8, addend: 0x0, symName: __ZN5Catch8Matchers7MatchesERKNSt3__112basic_stringIcNS1_11char_traitsIcEENS1_9allocatorIcEEEENS_13CaseSensitive6ChoiceE, symObjAddr: 0xDFE8, symBinAddr: 0x10001A87C, symSize: 0x50 }
  - { offsetInCU: 0xB73D, offset: 0x225BC, size: 0x8, addend: 0x0, symName: __ZN5Catch21makeCommandLineParserERNS_10ConfigDataE, symObjAddr: 0x23DC, symBinAddr: 0x10000F054, symSize: 0x27C0 }
  - { offsetInCU: 0xC1DF, offset: 0x2305E, size: 0x8, addend: 0x0, symName: __ZN5Catch15throw_exceptionISt12domain_errorEEvRKT_, symObjAddr: 0x5D0, symBinAddr: 0x10000D31C, symSize: 0x3C }
  - { offsetInCU: 0xC218, offset: 0x23097, size: 0x8, addend: 0x0, symName: __ZN5Catch8literalsli2_aEe, symObjAddr: 0x8F4, symBinAddr: 0x10000D640, symSize: 0x38 }
  - { offsetInCU: 0xC246, offset: 0x230C5, size: 0x8, addend: 0x0, symName: __ZN5Catch8literalsli2_aEy, symObjAddr: 0x964, symBinAddr: 0x10000D6B0, symSize: 0x38 }
  - { offsetInCU: 0xC2A1, offset: 0x23120, size: 0x8, addend: 0x0, symName: __ZN5CatchlsERNSt3__113basic_ostreamIcNS0_11char_traitsIcEEEERKNS_14LazyExpressionE, symObjAddr: 0xAF8, symBinAddr: 0x10000D844, symSize: 0xD4 }
  - { offsetInCU: 0xC2DE, offset: 0x2315D, size: 0x8, addend: 0x0, symName: __ZN5Catch16getResultCaptureEv, symObjAddr: 0xD7C, symBinAddr: 0x10000DA4C, symSize: 0x134 }
  - { offsetInCU: 0xC312, offset: 0x23191, size: 0x8, addend: 0x0, symName: __ZN5Catch17getCurrentContextEv, symObjAddr: 0xFF0, symBinAddr: 0x10000DC94, symSize: 0x14 }
  - { offsetInCU: 0xC331, offset: 0x231B0, size: 0x8, addend: 0x0, symName: __ZN5Catch16isDebuggerActiveEv, symObjAddr: 0x10B0, symBinAddr: 0x10000DD54, symSize: 0x118 }
  - { offsetInCU: 0xC37D, offset: 0x231FC, size: 0x8, addend: 0x0, symName: __ZN5Catch24translateActiveExceptionEv, symObjAddr: 0x124C, symBinAddr: 0x10000DEF0, symSize: 0x40 }
  - { offsetInCU: 0xC39C, offset: 0x2321B, size: 0x8, addend: 0x0, symName: __ZN5Catch24handleExceptionMatchExprERNS_16AssertionHandlerERKNSt3__112basic_stringIcNS2_11char_traitsIcEENS2_9allocatorIcEEEERKNS_9StringRefE, symObjAddr: 0x1378, symBinAddr: 0x10000E01C, symSize: 0x7C }
  - { offsetInCU: 0xC3E5, offset: 0x23264, size: 0x8, addend: 0x0, symName: __ZN5Catch24handleExceptionMatchExprERNS_16AssertionHandlerERKNS_8Matchers4Impl11MatcherBaseINSt3__112basic_stringIcNS5_11char_traitsIcEENS5_9allocatorIcEEEEEERKNS_9StringRefE, symObjAddr: 0x13F4, symBinAddr: 0x10000E098, symSize: 0xA4 }
  - { offsetInCU: 0xC44C, offset: 0x232CB, size: 0x8, addend: 0x0, symName: __ZN5Catch4isOkENS_9ResultWas6OfTypeE, symObjAddr: 0x18B0, symBinAddr: 0x10000E528, symSize: 0x20 }
  - { offsetInCU: 0xC47B, offset: 0x232FA, size: 0x8, addend: 0x0, symName: __ZN5Catch21shouldSuppressFailureEi, symObjAddr: 0x1928, symBinAddr: 0x10000E5A0, symSize: 0x20 }
  - { offsetInCU: 0xC4AA, offset: 0x23329, size: 0x8, addend: 0x0, symName: __ZN5Catch11isFalseTestEi, symObjAddr: 0x1AA0, symBinAddr: 0x10000E718, symSize: 0x20 }
  - { offsetInCU: 0xC4D9, offset: 0x23358, size: 0x8, addend: 0x0, symName: __ZN5CatchplEPKcRKNS_9StringRefE, symObjAddr: 0x1B00, symBinAddr: 0x10000E778, symSize: 0xA4 }
  - { offsetInCU: 0xC516, offset: 0x23395, size: 0x8, addend: 0x0, symName: __ZN5CatchpLERNSt3__112basic_stringIcNS0_11char_traitsIcEENS0_9allocatorIcEEEERKNS_9StringRefE, symObjAddr: 0x1D68, symBinAddr: 0x10000E9E0, symSize: 0x50 }
  - { offsetInCU: 0xC6B9, offset: 0x23538, size: 0x8, addend: 0x0, symName: __ZN5CatchlsERNSt3__113basic_ostreamIcNS0_11char_traitsIcEEEERKNS_14SourceLineInfoE, symObjAddr: 0x5598, symBinAddr: 0x1000121D0, symSize: 0x48 }
  - { offsetInCU: 0xC717, offset: 0x23596, size: 0x8, addend: 0x0, symName: __ZN5Catch10makeStreamERKNS_9StringRefE, symObjAddr: 0x61F8, symBinAddr: 0x100012E30, symSize: 0x294 }
  - { offsetInCU: 0xC745, offset: 0x235C4, size: 0x8, addend: 0x0, symName: __ZN5CatchlsERNSt3__113basic_ostreamIcNS0_11char_traitsIcEEEERKNS_6ColourE, symObjAddr: 0x68A4, symBinAddr: 0x1000134B0, symSize: 0x18 }
  - { offsetInCU: 0xC8A4, offset: 0x23723, size: 0x8, addend: 0x0, symName: __ZN5Catch14cleanUpContextEv, symObjAddr: 0x6958, symBinAddr: 0x100013564, symSize: 0x50 }
  - { offsetInCU: 0xC8BF, offset: 0x2373E, size: 0x8, addend: 0x0, symName: __ZN5Catch19writeToDebugConsoleERKNSt3__112basic_stringIcNS0_11char_traitsIcEENS0_9allocatorIcEEEE, symObjAddr: 0x6B40, symBinAddr: 0x10001374C, symSize: 0x28 }
  - { offsetInCU: 0xC8EA, offset: 0x23769, size: 0x8, addend: 0x0, symName: __ZN5Catch4coutEv, symObjAddr: 0x6BB4, symBinAddr: 0x100013774, symSize: 0xC }
  - { offsetInCU: 0xC909, offset: 0x23788, size: 0x8, addend: 0x0, symName: __ZN5Catch4cerrEv, symObjAddr: 0x6BC0, symBinAddr: 0x100013780, symSize: 0xC }
  - { offsetInCU: 0xC928, offset: 0x237A7, size: 0x8, addend: 0x0, symName: __ZN5Catch29formatReconstructedExpressionERNSt3__113basic_ostreamIcNS0_11char_traitsIcEEEERKNS0_12basic_stringIcS3_NS0_9allocatorIcEEEENS_9StringRefESB_, symObjAddr: 0x6C84, symBinAddr: 0x1000137C0, symSize: 0x10C }
  - { offsetInCU: 0xC981, offset: 0x23800, size: 0x8, addend: 0x0, symName: __ZN5CatchlsERNSt3__113basic_ostreamIcNS0_11char_traitsIcEEEERKNS_9StringRefE, symObjAddr: 0x6DE4, symBinAddr: 0x1000138CC, symSize: 0x4C }
  - { offsetInCU: 0xCA8F, offset: 0x2390E, size: 0x8, addend: 0x0, symName: __ZN5Catch7cleanUpEv, symObjAddr: 0x92CC, symBinAddr: 0x100015D88, symSize: 0x18 }
  - { offsetInCU: 0xCAAA, offset: 0x23929, size: 0x8, addend: 0x0, symName: __ZN5Catch9listTestsERKNS_6ConfigE, symObjAddr: 0x9310, symBinAddr: 0x100015DCC, symSize: 0x6A4 }
  - { offsetInCU: 0xCB89, offset: 0x23A08, size: 0x8, addend: 0x0, symName: __ZN5Catch11filterTestsERKNSt3__16vectorINS_8TestCaseENS0_9allocatorIS2_EEEERKNS_8TestSpecERKNS_7IConfigE, symObjAddr: 0x99E8, symBinAddr: 0x1000164A4, symSize: 0x13C }
  - { offsetInCU: 0xCC2F, offset: 0x23AAE, size: 0x8, addend: 0x0, symName: __ZN5Catch21getAllTestCasesSortedERKNS_7IConfigE, symObjAddr: 0x9B24, symBinAddr: 0x1000165E0, symSize: 0x3C }
  - { offsetInCU: 0xCC5D, offset: 0x23ADC, size: 0x8, addend: 0x0, symName: __ZN5CatchlsERNSt3__113basic_ostreamIcNS0_11char_traitsIcEEEERKNS_9pluraliseE, symObjAddr: 0x9FFC, symBinAddr: 0x100016AB8, symSize: 0x70 }
  - { offsetInCU: 0xCCE3, offset: 0x23B62, size: 0x8, addend: 0x0, symName: __ZN5Catch18listTestsNamesOnlyERKNS_6ConfigE, symObjAddr: 0xA128, symBinAddr: 0x100016BE4, symSize: 0x22C }
  - { offsetInCU: 0xCD84, offset: 0x23C03, size: 0x8, addend: 0x0, symName: __ZN5Catch10startsWithERKNSt3__112basic_stringIcNS0_11char_traitsIcEENS0_9allocatorIcEEEEc, symObjAddr: 0xA354, symBinAddr: 0x100016E10, symSize: 0x64 }
  - { offsetInCU: 0xCDC1, offset: 0x23C40, size: 0x8, addend: 0x0, symName: __ZN5Catch8listTagsERKNS_6ConfigE, symObjAddr: 0xA6E8, symBinAddr: 0x1000171A4, symSize: 0x694 }
  - { offsetInCU: 0xCF54, offset: 0x23DD3, size: 0x8, addend: 0x0, symName: __ZN5Catch7toLowerERKNSt3__112basic_stringIcNS0_11char_traitsIcEENS0_9allocatorIcEEEE, symObjAddr: 0xADBC, symBinAddr: 0x100017878, symSize: 0xA0 }
  - { offsetInCU: 0xCF92, offset: 0x23E11, size: 0x8, addend: 0x0, symName: __ZN5Catch13listReportersEv, symObjAddr: 0xB290, symBinAddr: 0x100017D4C, symSize: 0x2FC }
  - { offsetInCU: 0xD067, offset: 0x23EE6, size: 0x8, addend: 0x0, symName: __ZN5Catch14getRegistryHubEv, symObjAddr: 0xB58C, symBinAddr: 0x100018048, symSize: 0x14 }
  - { offsetInCU: 0xD086, offset: 0x23F05, size: 0x8, addend: 0x0, symName: __ZN5Catch4listERKNS_6ConfigE, symObjAddr: 0xBA4C, symBinAddr: 0x100018508, symSize: 0x1FC }
  - { offsetInCU: 0xD259, offset: 0x240D8, size: 0x8, addend: 0x0, symName: __ZN5Catch15throw_exceptionISt11logic_errorEEvRKT_, symObjAddr: 0xC970, symBinAddr: 0x1000193E8, symSize: 0x3C }
  - { offsetInCU: 0xD28D, offset: 0x2410C, size: 0x8, addend: 0x0, symName: __ZN5Catch9to_stringIiEENSt3__112basic_stringIcNS1_11char_traitsIcEENS1_9allocatorIcEEEERKT_, symObjAddr: 0xCBC8, symBinAddr: 0x100019604, symSize: 0x30 }
  - { offsetInCU: 0xD2C4, offset: 0x24143, size: 0x8, addend: 0x0, symName: __ZN5Catch8containsERKNSt3__112basic_stringIcNS0_11char_traitsIcEENS0_9allocatorIcEEEES8_, symObjAddr: 0xD638, symBinAddr: 0x100019F2C, symSize: 0x3C }
  - { offsetInCU: 0xD301, offset: 0x24180, size: 0x8, addend: 0x0, symName: __ZN5Catch10startsWithERKNSt3__112basic_stringIcNS0_11char_traitsIcEENS0_9allocatorIcEEEES8_, symObjAddr: 0xD7F0, symBinAddr: 0x10001A0E4, symSize: 0x98 }
  - { offsetInCU: 0xD33E, offset: 0x241BD, size: 0x8, addend: 0x0, symName: __ZN5Catch8endsWithERKNSt3__112basic_stringIcNS0_11char_traitsIcEENS0_9allocatorIcEEEES8_, symObjAddr: 0xDA04, symBinAddr: 0x10001A2F8, symSize: 0xB0 }
  - { offsetInCU: 0xD3B7, offset: 0x24236, size: 0x8, addend: 0x0, symName: __ZN5Catch19uncaught_exceptionsEv, symObjAddr: 0xE380, symBinAddr: 0x10001AC14, symSize: 0x18 }
  - { offsetInCU: 0xD56E, offset: 0x243ED, size: 0x8, addend: 0x0, symName: __ZN5Catch4clogEv, symObjAddr: 0xF094, symBinAddr: 0x10001B904, symSize: 0xC }
  - { offsetInCU: 0xD58D, offset: 0x2440C, size: 0x8, addend: 0x0, symName: __ZN5Catch5isnanEf, symObjAddr: 0xF0F8, symBinAddr: 0x10001B968, symSize: 0x28 }
  - { offsetInCU: 0xD5BB, offset: 0x2443A, size: 0x8, addend: 0x0, symName: __ZN5Catch5isnanEd, symObjAddr: 0xF140, symBinAddr: 0x10001B9B0, symSize: 0x28 }
  - { offsetInCU: 0xD5E9, offset: 0x24468, size: 0x8, addend: 0x0, symName: __ZN5Catch7seedRngERKNS_7IConfigE, symObjAddr: 0xF1B8, symBinAddr: 0x10001BA28, symSize: 0x78 }
  - { offsetInCU: 0xD614, offset: 0x24493, size: 0x8, addend: 0x0, symName: __ZN5Catch7rngSeedEv, symObjAddr: 0xF2F4, symBinAddr: 0x10001BB64, symSize: 0x30 }
  - { offsetInCU: 0xD633, offset: 0x244B2, size: 0x8, addend: 0x0, symName: __ZN5Catch21getMutableRegistryHubEv, symObjAddr: 0xF338, symBinAddr: 0x10001BBA8, symSize: 0x14 }
  - { offsetInCU: 0xD652, offset: 0x244D1, size: 0x8, addend: 0x0, symName: __ZN5Catch17cleanupSingletonsEv, symObjAddr: 0xF364, symBinAddr: 0x10001BBD4, symSize: 0xE0 }
  - { offsetInCU: 0xD6CF, offset: 0x2454E, size: 0x8, addend: 0x0, symName: __ZN5Catch10isJustInfoEi, symObjAddr: 0xF898, symBinAddr: 0x10001C108, symSize: 0x20 }
  - { offsetInCU: 0xD6FE, offset: 0x2457D, size: 0x8, addend: 0x0, symName: __ZN5CatchorENS_17ResultDisposition5FlagsES1_, symObjAddr: 0xF8B8, symBinAddr: 0x10001C128, symSize: 0x20 }
  - { offsetInCU: 0xD73C, offset: 0x245BB, size: 0x8, addend: 0x0, symName: __ZN5Catch23shouldContinueOnFailureEi, symObjAddr: 0xF8D8, symBinAddr: 0x10001C148, symSize: 0x20 }
  - { offsetInCU: 0xDE86, offset: 0x24D05, size: 0x8, addend: 0x0, symName: __ZN5Catch24getCurrentMutableContextEv, symObjAddr: 0xFDE4, symBinAddr: 0x10001C654, symSize: 0x38 }
  - { offsetInCU: 0xDEA5, offset: 0x24D24, size: 0x8, addend: 0x0, symName: __ZN5Catchli3_srEPKcm, symObjAddr: 0x11564, symBinAddr: 0x10001DD9C, symSize: 0x40 }
  - { offsetInCU: 0xDF7A, offset: 0x24DF9, size: 0x8, addend: 0x0, symName: __ZN5CatchlsERNSt3__113basic_ostreamIcNS0_11char_traitsIcEEEERKNS_7VersionE, symObjAddr: 0x14174, symBinAddr: 0x1000209AC, symSize: 0xAC }
  - { offsetInCU: 0xDFB7, offset: 0x24E36, size: 0x8, addend: 0x0, symName: __ZN5Catch12addSingletonEPNS_10ISingletonE, symObjAddr: 0x156F0, symBinAddr: 0x100021F28, symSize: 0x34 }
  - { offsetInCU: 0xE216, offset: 0x25095, size: 0x8, addend: 0x0, symName: __ZN5Catch8endsWithERKNSt3__112basic_stringIcNS0_11char_traitsIcEENS0_9allocatorIcEEEEc, symObjAddr: 0x16180, symBinAddr: 0x1000229B8, symSize: 0x78 }
  - { offsetInCU: 0xE253, offset: 0x250D2, size: 0x8, addend: 0x0, symName: __ZN5Catch14toLowerInPlaceERNSt3__112basic_stringIcNS0_11char_traitsIcEENS0_9allocatorIcEEEE, symObjAddr: 0x16270, symBinAddr: 0x100022AA8, symSize: 0x5C }
  - { offsetInCU: 0xE27E, offset: 0x250FD, size: 0x8, addend: 0x0, symName: __ZN5Catch14replaceInPlaceERNSt3__112basic_stringIcNS0_11char_traitsIcEENS0_9allocatorIcEEEERKS6_S9_, symObjAddr: 0x16618, symBinAddr: 0x100022E50, symSize: 0x1F0 }
  - { offsetInCU: 0xE2E8, offset: 0x25167, size: 0x8, addend: 0x0, symName: __ZN5CatchplERKNS_9StringRefES2_, symObjAddr: 0x16D54, symBinAddr: 0x100023520, symSize: 0xE0 }
  - { offsetInCU: 0xE335, offset: 0x251B4, size: 0x8, addend: 0x0, symName: __ZN5CatchplERKNS_9StringRefEPKc, symObjAddr: 0x16E34, symBinAddr: 0x100023600, symSize: 0xA4 }
  - { offsetInCU: 0xE39A, offset: 0x25219, size: 0x8, addend: 0x0, symName: __ZN5Catch12makeTestCaseEPNS_12ITestInvokerERKNSt3__112basic_stringIcNS2_11char_traitsIcEENS2_9allocatorIcEEEERKNS_11NameAndTagsERKNS_14SourceLineInfoE, symObjAddr: 0x17B34, symBinAddr: 0x100024300, symSize: 0x300 }
  - { offsetInCU: 0xE4C7, offset: 0x25346, size: 0x8, addend: 0x0, symName: __ZN5Catch7setTagsERNS_12TestCaseInfoENSt3__16vectorINS2_12basic_stringIcNS2_11char_traitsIcEENS2_9allocatorIcEEEENS7_IS9_EEEE, symObjAddr: 0x1835C, symBinAddr: 0x100024B28, symSize: 0x1D0 }
  - { offsetInCU: 0xE55E, offset: 0x253DD, size: 0x8, addend: 0x0, symName: __ZN5Catch9sortTestsERKNS_7IConfigERKNSt3__16vectorINS_8TestCaseENS3_9allocatorIS5_EEEE, symObjAddr: 0x18E5C, symBinAddr: 0x100025628, symSize: 0x170 }
  - { offsetInCU: 0xE5AB, offset: 0x2542A, size: 0x8, addend: 0x0, symName: __ZN5Catch9matchTestERKNS_8TestCaseERKNS_8TestSpecERKNS_7IConfigE, symObjAddr: 0x19084, symBinAddr: 0x100025850, symSize: 0x88 }
  - { offsetInCU: 0xE5F7, offset: 0x25476, size: 0x8, addend: 0x0, symName: __ZN5Catch27enforceNoDuplicateTestCasesERKNSt3__16vectorINS_8TestCaseENS0_9allocatorIS2_EEEE, symObjAddr: 0x191C4, symBinAddr: 0x100025990, symSize: 0x254 }
  - { offsetInCU: 0xE70A, offset: 0x25589, size: 0x8, addend: 0x0, symName: __ZN5Catch16extractClassNameERKNS_9StringRefE, symObjAddr: 0x19B88, symBinAddr: 0x100026354, symSize: 0x134 }
  - { offsetInCU: 0xE774, offset: 0x255F3, size: 0x8, addend: 0x0, symName: __ZN5Catch15makeTestInvokerEPFvvE, symObjAddr: 0x1B77C, symBinAddr: 0x100027F48, symSize: 0x88 }
  - { offsetInCU: 0xE7A2, offset: 0x25621, size: 0x8, addend: 0x0, symName: __ZN5Catch13parseTestSpecERKNSt3__112basic_stringIcNS0_11char_traitsIcEENS0_9allocatorIcEEEE, symObjAddr: 0x1D40C, symBinAddr: 0x100029B2C, symSize: 0x98 }
  - { offsetInCU: 0xE7D0, offset: 0x2564F, size: 0x8, addend: 0x0, symName: __ZN5Catch31getCurrentNanosecondsSinceEpochEv, symObjAddr: 0x1D4A4, symBinAddr: 0x100029BC4, symSize: 0x4C }
  - { offsetInCU: 0xEB07, offset: 0x25986, size: 0x8, addend: 0x0, symName: __ZN5Catch10fpToStringIfEENSt3__112basic_stringIcNS1_11char_traitsIcEENS1_9allocatorIcEEEET_i, symObjAddr: 0x1E90C, symBinAddr: 0x10002B02C, symSize: 0x1F4 }
  - { offsetInCU: 0xEBA7, offset: 0x25A26, size: 0x8, addend: 0x0, symName: __ZN5Catch10fpToStringIdEENSt3__112basic_stringIcNS1_11char_traitsIcEENS1_9allocatorIcEEEET_i, symObjAddr: 0x1EB30, symBinAddr: 0x10002B250, symSize: 0x1F4 }
  - { offsetInCU: 0xECF4, offset: 0x25B73, size: 0x8, addend: 0x0, symName: __ZN5CatchlsERNSt3__113basic_ostreamIcNS0_11char_traitsIcEEEERKNS_9XmlEncodeE, symObjAddr: 0x1FB7C, symBinAddr: 0x10002C29C, symSize: 0x30 }
  - { offsetInCU: 0xED31, offset: 0x25BB0, size: 0x8, addend: 0x0, symName: __ZN5Catch25prepareExpandedExpressionERNS_15AssertionResultE, symObjAddr: 0x205C4, symBinAddr: 0x10002CCE4, symSize: 0x34 }
  - { offsetInCU: 0xED5C, offset: 0x25BDB, size: 0x8, addend: 0x0, symName: __ZN5Catch20getFormattedDurationEd, symObjAddr: 0x205F8, symBinAddr: 0x10002CD18, symSize: 0xC8 }
  - { offsetInCU: 0xF062, offset: 0x25EE1, size: 0x8, addend: 0x0, symName: __ZN5CatchlsERNS_12TablePrinterENS_12_GLOBAL__N_111ColumnBreakE, symObjAddr: 0x23158, symBinAddr: 0x10002F878, symSize: 0x2B4 }
  - { offsetInCU: 0xF0DB, offset: 0x25F5A, size: 0x8, addend: 0x0, symName: __ZN5CatchlsINSt3__112basic_stringIcNS1_11char_traitsIcEENS1_9allocatorIcEEEEEERNS_12TablePrinterES9_RKT_, symObjAddr: 0x23434, symBinAddr: 0x10002FB54, symSize: 0x34 }
  - { offsetInCU: 0xF121, offset: 0x25FA0, size: 0x8, addend: 0x0, symName: __ZN5CatchlsINS_12_GLOBAL__N_18DurationEEERNS_12TablePrinterES4_RKT_, symObjAddr: 0x236B0, symBinAddr: 0x10002FDD0, symSize: 0x34 }
  - { offsetInCU: 0xF168, offset: 0x25FE7, size: 0x8, addend: 0x0, symName: __ZN5CatchlsIyEERNS_12TablePrinterES2_RKT_, symObjAddr: 0x236E4, symBinAddr: 0x10002FE04, symSize: 0x38 }
  - { offsetInCU: 0xF1AE, offset: 0x2602D, size: 0x8, addend: 0x0, symName: __ZN5CatchlsImEERNS_12TablePrinterES2_RKT_, symObjAddr: 0x2371C, symBinAddr: 0x10002FE3C, symSize: 0x38 }
  - { offsetInCU: 0xF1F4, offset: 0x26073, size: 0x8, addend: 0x0, symName: __ZN5CatchlsERNS_12TablePrinterENS_12_GLOBAL__N_18RowBreakE, symObjAddr: 0x594C8, symBinAddr: 0x100065740, symSize: 0x5C }
  - { offsetInCU: 0xF299, offset: 0x26118, size: 0x8, addend: 0x0, symName: __ZN5Catch6Colour3useENS0_4CodeE, symObjAddr: 0x6524, symBinAddr: 0x100013130, symSize: 0xBC }
  - { offsetInCU: 0xF2BB, offset: 0x2613A, size: 0x8, addend: 0x0, symName: __ZZN5Catch6Colour3useENS0_4CodeEE4impl, symObjAddr: 0x62B5E0, symBinAddr: 0x1001081E0, symSize: 0x0 }
  - { offsetInCU: 0x44C91, offset: 0x5BB10, size: 0x8, addend: 0x0, symName: __ZNSt3__115regex_constantsoRB8ue170006ERNS0_18syntax_option_typeES1_, symObjAddr: 0xDC6C, symBinAddr: 0x10001A52C, symSize: 0x3C }
  - { offsetInCU: 0x44CCE, offset: 0x5BB4D, size: 0x8, addend: 0x0, symName: __ZNSt3__115regex_constantsorB8ue170006ENS0_18syntax_option_typeES1_, symObjAddr: 0x43C84, symBinAddr: 0x100050014, symSize: 0x20 }
  - { offsetInCU: 0x44D0C, offset: 0x5BB8B, size: 0x8, addend: 0x0, symName: __ZNSt3__115regex_constants13__get_grammarB8ue170006ENS0_18syntax_option_typeE, symObjAddr: 0x7A6E4, symBinAddr: 0x100085FB4, symSize: 0x18 }
  - { offsetInCU: 0x44D3B, offset: 0x5BBBA, size: 0x8, addend: 0x0, symName: __ZNSt3__115regex_constantsanB8ue170006ENS0_18syntax_option_typeES1_, symObjAddr: 0x7DDD8, symBinAddr: 0x1000896A8, symSize: 0x20 }
  - { offsetInCU: 0x44D79, offset: 0x5BBF8, size: 0x8, addend: 0x0, symName: __ZNSt3__115regex_constantsanB8ue170006ENS0_15match_flag_typeES1_, symObjAddr: 0x7DFF8, symBinAddr: 0x1000898C8, symSize: 0x20 }
  - { offsetInCU: 0x44DB7, offset: 0x5BC36, size: 0x8, addend: 0x0, symName: __ZNSt3__115regex_constantsorB8ue170006ENS0_15match_flag_typeES1_, symObjAddr: 0x7F5C0, symBinAddr: 0x10008AE90, symSize: 0x20 }
  - { offsetInCU: 0x44DF5, offset: 0x5BC74, size: 0x8, addend: 0x0, symName: __ZNSt3__115regex_constantscoB8ue170006ENS0_15match_flag_typeE, symObjAddr: 0x7F5E0, symBinAddr: 0x10008AEB0, symSize: 0x1C }
  - { offsetInCU: 0x44E24, offset: 0x5BCA3, size: 0x8, addend: 0x0, symName: __ZNSt3__115regex_constantsaNB8ue170006ERNS0_15match_flag_typeES1_, symObjAddr: 0x98038, symBinAddr: 0x1000A3908, symSize: 0x3C }
  - { offsetInCU: 0x44E61, offset: 0x5BCE0, size: 0x8, addend: 0x0, symName: __ZNSt3__115regex_constantsoRB8ue170006ERNS0_15match_flag_typeES1_, symObjAddr: 0x981EC, symBinAddr: 0x1000A3ABC, symSize: 0x3C }
  - { offsetInCU: 0x52BDA, offset: 0x69A59, size: 0x8, addend: 0x0, symName: __ZNSt3__16copy_nB8ue170006IPKcmPcEENS_9enable_ifIXsr37__has_random_access_iterator_categoryIT_EE5valueET1_E4typeES5_T0_S6_, symObjAddr: 0x41478, symBinAddr: 0x10004D834, symSize: 0x44 }
  - { offsetInCU: 0x53C3D, offset: 0x6AABC, size: 0x8, addend: 0x0, symName: __ZNSt3__17advanceB8ue170006INS_11__wrap_iterIPN5Catch5clara6detail11HelpColumnsEEEllvEEvRT_T0_, symObjAddr: 0x4A578, symBinAddr: 0x100056900, symSize: 0x38 }
  - { offsetInCU: 0x545ED, offset: 0x6B46C, size: 0x8, addend: 0x0, symName: __ZNSt3__17advanceB8ue170006IPNS_12basic_stringIcNS_11char_traitsIcEENS_9allocatorIcEEEEllvEEvRT_T0_, symObjAddr: 0x4EFE8, symBinAddr: 0x10005B370, symSize: 0x38 }
  - { offsetInCU: 0x5465A, offset: 0x6B4D9, size: 0x8, addend: 0x0, symName: __ZNSt3__17advanceB8ue170006IPN5Catch5clara6detail3OptEllvEEvRT_T0_, symObjAddr: 0x4FE40, symBinAddr: 0x10005C1C8, symSize: 0x38 }
  - { offsetInCU: 0x549E3, offset: 0x6B862, size: 0x8, addend: 0x0, symName: __ZNSt3__17advanceB8ue170006IPN5Catch5clara6detail3ArgEllvEEvRT_T0_, symObjAddr: 0x514B8, symBinAddr: 0x10005D840, symSize: 0x38 }
  - { offsetInCU: 0x5707E, offset: 0x6DEFD, size: 0x8, addend: 0x0, symName: __ZNSt3__16chrono13duration_castB8ue170006INS0_8durationIxNS_5ratioILl1ELl1000000000EEEEExS4_EENS_9enable_ifIXsr13__is_durationIT_EE5valueES7_E4typeERKNS2_IT0_T1_EE, symObjAddr: 0x1D4F0, symBinAddr: 0x100029C10, symSize: 0x30 }
  - { offsetInCU: 0x611E2, offset: 0x78061, size: 0x8, addend: 0x0, symName: __ZNSt3__17advanceB8ue170006IPKcllvEEvRT_T0_, symObjAddr: 0x7E09C, symBinAddr: 0x10008996C, symSize: 0x38 }
  - { offsetInCU: 0x6124F, offset: 0x780CE, size: 0x8, addend: 0x0, symName: __ZNSt3__17advanceB8ue170006INS_11__wrap_iterIPKcEEllvEEvRT_T0_, symObjAddr: 0x7E31C, symBinAddr: 0x100089BEC, symSize: 0x38 }
  - { offsetInCU: 0x6A8F5, offset: 0x81774, size: 0x8, addend: 0x0, symName: __ZNSt3__17advanceB8ue170006IPNS_9sub_matchIPKcEEllvEEvRT_T0_, symObjAddr: 0x9DDD8, symBinAddr: 0x1000A96A8, symSize: 0x38 }
  - { offsetInCU: 0x6A962, offset: 0x817E1, size: 0x8, addend: 0x0, symName: __ZNSt3__17advanceB8ue170006IPNS_4pairImPKcEEllvEEvRT_T0_, symObjAddr: 0x9E38C, symBinAddr: 0x1000A9C5C, symSize: 0x38 }
  - { offsetInCU: 0x6FFFE, offset: 0x86E7D, size: 0x8, addend: 0x0, symName: __ZNSt3__111__introsortINS_17_ClassicAlgPolicyERNS_6__lessIvvEEPNS_12basic_stringIcNS_11char_traitsIcEENS_9allocatorIcEEEELb0EEEvT1_SC_T0_NS_15iterator_traitsISC_E15difference_typeEb, symObjAddr: 0xB159C, symBinAddr: 0x1000BCE54, symSize: 0x470 }
  - { offsetInCU: 0x7012A, offset: 0x86FA9, size: 0x8, addend: 0x0, symName: __ZNSt3__126__insertion_sort_unguardedB8ue170006INS_17_ClassicAlgPolicyERNS_6__lessIvvEEPNS_12basic_stringIcNS_11char_traitsIcEENS_9allocatorIcEEEEEEvT1_SC_T0_, symObjAddr: 0xB1CE0, symBinAddr: 0x1000BD598, symSize: 0x158 }
  - { offsetInCU: 0x70204, offset: 0x87083, size: 0x8, addend: 0x0, symName: __ZNSt3__111__sift_downB8ue170006INS_17_ClassicAlgPolicyERNS_6__lessIvvEEPNS_12basic_stringIcNS_11char_traitsIcEENS_9allocatorIcEEEEEEvT1_OT0_NS_15iterator_traitsISC_E15difference_typeESC_, symObjAddr: 0xB3108, symBinAddr: 0x1000BE9C0, symSize: 0x254 }
  - { offsetInCU: 0x702B2, offset: 0x87131, size: 0x8, addend: 0x0, symName: __ZNSt3__117__floyd_sift_downB8ue170006INS_17_ClassicAlgPolicyERNS_6__lessIvvEEPNS_12basic_stringIcNS_11char_traitsIcEENS_9allocatorIcEEEEEET1_SC_OT0_NS_15iterator_traitsISC_E15difference_typeE, symObjAddr: 0xB353C, symBinAddr: 0x1000BEDF4, symSize: 0x108 }
  - { offsetInCU: 0x70349, offset: 0x871C8, size: 0x8, addend: 0x0, symName: __ZNSt3__131__partition_with_equals_on_leftB8ue170006INS_17_ClassicAlgPolicyEPNS_12basic_stringIcNS_11char_traitsIcEENS_9allocatorIcEEEERNS_6__lessIvvEEEET0_SC_SC_T1_, symObjAddr: 0xB2044, symBinAddr: 0x1000BD8FC, symSize: 0x250 }
  - { offsetInCU: 0x70405, offset: 0x87284, size: 0x8, addend: 0x0, symName: __ZNSt3__118__bitset_partitionB8ue170006INS_17_ClassicAlgPolicyEPNS_12basic_stringIcNS_11char_traitsIcEENS_9allocatorIcEEEERNS_6__lessIvvEEEENS_4pairIT0_bEESD_SD_T1_, symObjAddr: 0xB2294, symBinAddr: 0x1000BDB4C, symSize: 0x384 }
  - { offsetInCU: 0x70501, offset: 0x87380, size: 0x8, addend: 0x0, symName: __ZNSt3__124__swap_bitmap_pos_withinB8ue170006INS_17_ClassicAlgPolicyEPNS_12basic_stringIcNS_11char_traitsIcEENS_9allocatorIcEEEEEEvRT0_SA_RySB_, symObjAddr: 0xB3CE4, symBinAddr: 0x1000BF59C, symSize: 0x1E8 }
  - { offsetInCU: 0x705CF, offset: 0x8744E, size: 0x8, addend: 0x0, symName: __ZNSt3__132__partition_with_equals_on_rightB8ue170006INS_17_ClassicAlgPolicyEPNS_12basic_stringIcNS_11char_traitsIcEENS_9allocatorIcEEEERNS_6__lessIvvEEEENS_4pairIT0_bEESD_SD_T1_, symObjAddr: 0xB2618, symBinAddr: 0x1000BDED0, symSize: 0x260 }
  - { offsetInCU: 0x7069A, offset: 0x87519, size: 0x8, addend: 0x0, symName: __ZNSt3__127__insertion_sort_incompleteB8ue170006INS_17_ClassicAlgPolicyERNS_6__lessIvvEEPNS_12basic_stringIcNS_11char_traitsIcEENS_9allocatorIcEEEEEEbT1_SC_T0_, symObjAddr: 0xB2878, symBinAddr: 0x1000BE130, symSize: 0x360 }
  - { offsetInCU: 0x70B68, offset: 0x879E7, size: 0x8, addend: 0x0, symName: __ZNSt3__111__introsortINS_17_ClassicAlgPolicyERNS_6__lessIvvEEPN5Catch8TestCaseELb0EEEvT1_S8_T0_NS_15iterator_traitsIS8_E15difference_typeEb, symObjAddr: 0xB66CC, symBinAddr: 0x1000C1F84, symSize: 0x470 }
  - { offsetInCU: 0x70C94, offset: 0x87B13, size: 0x8, addend: 0x0, symName: __ZNSt3__126__insertion_sort_unguardedB8ue170006INS_17_ClassicAlgPolicyERNS_6__lessIvvEEPN5Catch8TestCaseEEEvT1_S8_T0_, symObjAddr: 0xB6E48, symBinAddr: 0x1000C2700, symSize: 0x18C }
  - { offsetInCU: 0x70D6E, offset: 0x87BED, size: 0x8, addend: 0x0, symName: __ZNSt3__111__sift_downB8ue170006INS_17_ClassicAlgPolicyERNS_6__lessIvvEEPN5Catch8TestCaseEEEvT1_OT0_NS_15iterator_traitsIS8_E15difference_typeES8_, symObjAddr: 0xB8524, symBinAddr: 0x1000C3DDC, symSize: 0x294 }
  - { offsetInCU: 0x70E1C, offset: 0x87C9B, size: 0x8, addend: 0x0, symName: __ZNSt3__117__floyd_sift_downB8ue170006INS_17_ClassicAlgPolicyERNS_6__lessIvvEEPN5Catch8TestCaseEEET1_S8_OT0_NS_15iterator_traitsIS8_E15difference_typeE, symObjAddr: 0xB89B8, symBinAddr: 0x1000C4270, symSize: 0x108 }
  - { offsetInCU: 0x70EB3, offset: 0x87D32, size: 0x8, addend: 0x0, symName: __ZNSt3__131__partition_with_equals_on_leftB8ue170006INS_17_ClassicAlgPolicyEPN5Catch8TestCaseERNS_6__lessIvvEEEET0_S8_S8_T1_, symObjAddr: 0xB71E0, symBinAddr: 0x1000C2A98, symSize: 0x2A0 }
  - { offsetInCU: 0x70F70, offset: 0x87DEF, size: 0x8, addend: 0x0, symName: __ZNSt3__118__bitset_partitionB8ue170006INS_17_ClassicAlgPolicyEPN5Catch8TestCaseERNS_6__lessIvvEEEENS_4pairIT0_bEES9_S9_T1_, symObjAddr: 0xB7480, symBinAddr: 0x1000C2D38, symSize: 0x38C }
  - { offsetInCU: 0x7106D, offset: 0x87EEC, size: 0x8, addend: 0x0, symName: __ZNSt3__124__swap_bitmap_pos_withinB8ue170006INS_17_ClassicAlgPolicyEPN5Catch8TestCaseEEEvRT0_S6_RyS7_, symObjAddr: 0xB9188, symBinAddr: 0x1000C4A40, symSize: 0x1E8 }
  - { offsetInCU: 0x7113B, offset: 0x87FBA, size: 0x8, addend: 0x0, symName: __ZNSt3__132__partition_with_equals_on_rightB8ue170006INS_17_ClassicAlgPolicyEPN5Catch8TestCaseERNS_6__lessIvvEEEENS_4pairIT0_bEES9_S9_T1_, symObjAddr: 0xB780C, symBinAddr: 0x1000C30C4, symSize: 0x2B4 }
  - { offsetInCU: 0x71208, offset: 0x88087, size: 0x8, addend: 0x0, symName: __ZNSt3__127__insertion_sort_incompleteB8ue170006INS_17_ClassicAlgPolicyERNS_6__lessIvvEEPN5Catch8TestCaseEEEbT1_S8_T0_, symObjAddr: 0xB7AC0, symBinAddr: 0x1000C3378, symSize: 0x368 }
  - { offsetInCU: 0x712EF, offset: 0x8816E, size: 0x8, addend: 0x0, symName: __ZNSt3__19__shuffleB8ue170006INS_17_ClassicAlgPolicyENS_11__wrap_iterIPN5Catch8TestCaseEEES6_RNS_23mersenne_twister_engineIjLm32ELm624ELm397ELm31ELj2567483615ELm11ELj4294967295ELm7ELj2636928640ELm15ELj4022730752ELm18ELj1812433253EEEEET0_SA_T1_OT2_, symObjAddr: 0xB94F8, symBinAddr: 0x1000C4DB0, symSize: 0x13C }
  - { offsetInCU: 0x73B98, offset: 0x8AA17, size: 0x8, addend: 0x0, symName: __ZNSt3__17advanceB8ue170006INS_11__wrap_iterIPKNS_12basic_stringIcNS_11char_traitsIcEENS_9allocatorIcEEEEEEllvEEvRT_T0_, symObjAddr: 0xBECF4, symBinAddr: 0x1000CA5AC, symSize: 0x38 }
  - { offsetInCU: 0x77C1C, offset: 0x8EA9B, size: 0x8, addend: 0x0, symName: __ZNSt3__17advanceB8ue170006INS_21__tree_const_iteratorIN5Catch9VerbosityEPNS_11__tree_nodeIS3_PvEElEEllvEEvRT_T0_, symObjAddr: 0xC6954, symBinAddr: 0x1000D220C, symSize: 0x38 }
  - { offsetInCU: 0x80CA1, offset: 0x97B20, size: 0x8, addend: 0x0, symName: __ZNSt3__1plB8ue170006IcNS_11char_traitsIcEENS_9allocatorIcEEEENS_12basic_stringIT_T0_T1_EEOS9_PKS6_, symObjAddr: 0x1AC0, symBinAddr: 0x10000E738, symSize: 0x40 }
  - { offsetInCU: 0x80CF9, offset: 0x97B78, size: 0x8, addend: 0x0, symName: __ZNSt3__1neB8ue170006IcNS_11char_traitsIcEENS_9allocatorIcEEEEbRKNS_12basic_stringIT_T0_T1_EESB_, symObjAddr: 0x1F04, symBinAddr: 0x10000EB7C, symSize: 0x34 }
  - { offsetInCU: 0x80D51, offset: 0x97BD0, size: 0x8, addend: 0x0, symName: __ZNSt3__1lsB8ue170006INS_11char_traitsIcEEEERNS_13basic_ostreamIcT_EES6_c, symObjAddr: 0x55E0, symBinAddr: 0x100012218, symSize: 0x34 }
  - { offsetInCU: 0x80D98, offset: 0x97C17, size: 0x8, addend: 0x0, symName: __ZNSt3__1neB8ue170006IPKNS_12basic_stringIcNS_11char_traitsIcEENS_9allocatorIcEEEEEEbRKNS_11__wrap_iterIT_EESD_, symObjAddr: 0x5C84, symBinAddr: 0x1000128BC, symSize: 0x34 }
  - { offsetInCU: 0x816AD, offset: 0x9852C, size: 0x8, addend: 0x0, symName: __ZNSt3__1neB8ue170006IPN5Catch8TestCaseEEEbRKNS_11__wrap_iterIT_EES8_, symObjAddr: 0x9BC0, symBinAddr: 0x10001667C, symSize: 0x34 }
  - { offsetInCU: 0x816EF, offset: 0x9856E, size: 0x8, addend: 0x0, symName: __ZNSt3__1neB8ue170006ERKNS_21__tree_const_iteratorINS_12basic_stringIcNS_11char_traitsIcEENS_9allocatorIcEEEEPNS_11__tree_nodeIS6_PvEElEESD_, symObjAddr: 0xA628, symBinAddr: 0x1000170E4, symSize: 0x34 }
  - { offsetInCU: 0x8172C, offset: 0x985AB, size: 0x8, addend: 0x0, symName: __ZNSt3__1eqB8ue170006ERKNS_14__map_iteratorINS_15__tree_iteratorINS_12__value_typeINS_12basic_stringIcNS_11char_traitsIcEENS_9allocatorIcEEEEN5Catch7TagInfoEEEPNS_11__tree_nodeISB_PvEElEEEESJ_, symObjAddr: 0xAE9C, symBinAddr: 0x100017958, symSize: 0x30 }
  - { offsetInCU: 0x8184A, offset: 0x986C9, size: 0x8, addend: 0x0, symName: __ZNSt3__19make_pairB8ue170006IRNS_12basic_stringIcNS_11char_traitsIcEENS_9allocatorIcEEEEN5Catch7TagInfoEEENS_4pairINS_18__unwrap_ref_decayIT_E4typeENSB_IT0_E4typeEEEOSC_OSF_, symObjAddr: 0xAF50, symBinAddr: 0x100017A0C, symSize: 0x40 }
  - { offsetInCU: 0x81899, offset: 0x98718, size: 0x8, addend: 0x0, symName: __ZNSt3__1neB8ue170006ERKNS_14__map_iteratorINS_15__tree_iteratorINS_12__value_typeINS_12basic_stringIcNS_11char_traitsIcEENS_9allocatorIcEEEEN5Catch7TagInfoEEEPNS_11__tree_nodeISB_PvEElEEEESJ_, symObjAddr: 0xB078, symBinAddr: 0x100017B34, symSize: 0x30 }
  - { offsetInCU: 0x818D6, offset: 0x98755, size: 0x8, addend: 0x0, symName: __ZNSt3__14setwB8ue170006Ei, symObjAddr: 0xB108, symBinAddr: 0x100017BC4, symSize: 0x2C }
  - { offsetInCU: 0x81904, offset: 0x98783, size: 0x8, addend: 0x0, symName: __ZNSt3__1neB8ue170006ERKNS_20__map_const_iteratorINS_21__tree_const_iteratorINS_12__value_typeINS_12basic_stringIcNS_11char_traitsIcEENS_9allocatorIcEEEENS_10shared_ptrIN5Catch16IReporterFactoryEEEEEPNS_11__tree_nodeISD_PvEElEEEESL_, symObjAddr: 0xB610, symBinAddr: 0x1000180CC, symSize: 0x30 }
  - { offsetInCU: 0x81942, offset: 0x987C1, size: 0x8, addend: 0x0, symName: __ZNSt3__13maxB8ue170006ImEERKT_S3_S3_, symObjAddr: 0xB668, symBinAddr: 0x100018124, symSize: 0x2C }
  - { offsetInCU: 0x81984, offset: 0x98803, size: 0x8, addend: 0x0, symName: __ZNSt3__1plB8ue170006IcNS_11char_traitsIcEENS_9allocatorIcEEEENS_12basic_stringIT_T0_T1_EERKS9_PKS6_, symObjAddr: 0xB808, symBinAddr: 0x1000182C4, symSize: 0x11C }
  - { offsetInCU: 0x81A25, offset: 0x988A4, size: 0x8, addend: 0x0, symName: __ZNSt3__1plB8ue170006IcNS_11char_traitsIcEENS_9allocatorIcEEEENS_12basic_stringIT_T0_T1_EEOS9_SA_, symObjAddr: 0xC2B4, symBinAddr: 0x100018D70, symSize: 0x40 }
  - { offsetInCU: 0x81A7D, offset: 0x988FC, size: 0x8, addend: 0x0, symName: __ZNSt3__1plB8ue170006IcNS_11char_traitsIcEENS_9allocatorIcEEEENS_12basic_stringIT_T0_T1_EEOS9_S6_, symObjAddr: 0xCD5C, symBinAddr: 0x100019798, symSize: 0x40 }
  - { offsetInCU: 0x81AD5, offset: 0x98954, size: 0x8, addend: 0x0, symName: __ZNSt3__111regex_matchB8ue170006INS_11char_traitsIcEENS_9allocatorIcEEcNS_12regex_traitsIcEEEEbRKNS_12basic_stringIT1_T_T0_EERKNS_11basic_regexIS8_T2_EENS_15regex_constants15match_flag_typeE, symObjAddr: 0xDCE4, symBinAddr: 0x10001A5A4, symSize: 0x54 }
  - { offsetInCU: 0x81D14, offset: 0x98B93, size: 0x8, addend: 0x0, symName: __ZNSt3__1eqB8ue170006ERKNS_20__map_const_iteratorINS_21__tree_const_iteratorINS_12__value_typeINS_12basic_stringIcNS_11char_traitsIcEENS_9allocatorIcEEEENS_10shared_ptrIN5Catch16IReporterFactoryEEEEEPNS_11__tree_nodeISD_PvEElEEEESL_, symObjAddr: 0xF67C, symBinAddr: 0x10001BEEC, symSize: 0x30 }
  - { offsetInCU: 0x81D52, offset: 0x98BD1, size: 0x8, addend: 0x0, symName: __ZNSt3__16removeB8ue170006INS_11__wrap_iterIPN5Catch11MessageInfoEEES3_EET_S6_S6_RKT0_, symObjAddr: 0x121DC, symBinAddr: 0x10001EA14, symSize: 0xF4 }
  - { offsetInCU: 0x81DE7, offset: 0x98C66, size: 0x8, addend: 0x0, symName: __ZNSt3__1neB8ue170006INS_11__wrap_iterIPN5Catch14SectionEndInfoEEES5_EEbRKNS_16reverse_iteratorIT_EERKNS6_IT0_EE, symObjAddr: 0x12C34, symBinAddr: 0x10001F46C, symSize: 0x54 }
  - { offsetInCU: 0x81E33, offset: 0x98CB2, size: 0x8, addend: 0x0, symName: __ZNSt3__1neB8ue170006IPKSt13exception_ptrEEbRKNS_11__wrap_iterIT_EES8_, symObjAddr: 0x13EC0, symBinAddr: 0x1000206F8, symSize: 0x34 }
  - { offsetInCU: 0x81E75, offset: 0x98CF4, size: 0x8, addend: 0x0, symName: __ZNSt3__1lsB8ue170006IcNS_11char_traitsIcEEEERNS_13basic_ostreamIT_T0_EES7_RKNS_8__iom_t6E, symObjAddr: 0x143F4, symBinAddr: 0x100020C2C, symSize: 0x40 }
  - { offsetInCU: 0x81EC4, offset: 0x98D43, size: 0x8, addend: 0x0, symName: __ZNSt3__14leftB8ue170006ERNS_8ios_baseE, symObjAddr: 0x14474, symBinAddr: 0x100020CAC, symSize: 0x30 }
  - { offsetInCU: 0x81EF2, offset: 0x98D71, size: 0x8, addend: 0x0, symName: __ZNSt3__111make_sharedB8ue170006IN5Catch6ConfigEJRNS1_10ConfigDataEEvEENS_10shared_ptrIT_EEDpOT0_, symObjAddr: 0x14EE0, symBinAddr: 0x100021718, symSize: 0x40 }
  - { offsetInCU: 0x81F39, offset: 0x98DB8, size: 0x8, addend: 0x0, symName: __ZNSt3__13minB8ue170006IiEERKT_S3_S3_, symObjAddr: 0x15628, symBinAddr: 0x100021E60, symSize: 0x2C }
  - { offsetInCU: 0x81F7C, offset: 0x98DFB, size: 0x8, addend: 0x0, symName: __ZNSt3__13maxB8ue170006IiEERKT_S3_S3_, symObjAddr: 0x15654, symBinAddr: 0x100021E8C, symSize: 0x2C }
  - { offsetInCU: 0x81FBF, offset: 0x98E3E, size: 0x8, addend: 0x0, symName: __ZNSt3__1neB8ue170006IPPN5Catch10ISingletonEEEbRKNS_11__wrap_iterIT_EES9_, symObjAddr: 0x15848, symBinAddr: 0x100022080, symSize: 0x34 }
  - { offsetInCU: 0x82C53, offset: 0x99AD2, size: 0x8, addend: 0x0, symName: __ZNSt3__15equalB8ue170006INS_11__wrap_iterIPKcEES4_EEbT_S5_T0_, symObjAddr: 0x15F70, symBinAddr: 0x1000227A8, symSize: 0x50 }
  - { offsetInCU: 0x82CAD, offset: 0x99B2C, size: 0x8, addend: 0x0, symName: __ZNSt3__15equalB8ue170006INS_16reverse_iteratorINS_11__wrap_iterIPKcEEEES6_EEbT_S7_T0_, symObjAddr: 0x16090, symBinAddr: 0x1000228C8, symSize: 0x68 }
  - { offsetInCU: 0x82D07, offset: 0x99B86, size: 0x8, addend: 0x0, symName: __ZNSt3__19transformB8ue170006INS_11__wrap_iterIPcEES3_PFccEEET0_T_S7_S6_T1_, symObjAddr: 0x162CC, symBinAddr: 0x100022B04, symSize: 0x98 }
  - { offsetInCU: 0x82D77, offset: 0x99BF6, size: 0x8, addend: 0x0, symName: __ZNSt3__1plB8ue170006IcNS_11char_traitsIcEENS_9allocatorIcEEEENS_12basic_stringIT_T0_T1_EEOS9_RKS9_, symObjAddr: 0x16808, symBinAddr: 0x100023040, symSize: 0x40 }
  - { offsetInCU: 0x82DD0, offset: 0x99C4F, size: 0x8, addend: 0x0, symName: __ZNSt3__14swapB8ue170006IPKcEENS_9enable_ifIXaasr21is_move_constructibleIT_EE5valuesr18is_move_assignableIS4_EE5valueEvE4typeERS4_S7_, symObjAddr: 0x169E4, symBinAddr: 0x1000231B0, symSize: 0x3C }
  - { offsetInCU: 0x82E21, offset: 0x99CA0, size: 0x8, addend: 0x0, symName: __ZNSt3__14swapB8ue170006ImEENS_9enable_ifIXaasr21is_move_constructibleIT_EE5valuesr18is_move_assignableIS2_EE5valueEvE4typeERS2_S5_, symObjAddr: 0x16A20, symBinAddr: 0x1000231EC, symSize: 0x3C }
  - { offsetInCU: 0x82E72, offset: 0x99CF1, size: 0x8, addend: 0x0, symName: __ZNSt3__14swapB8ue170006IPcEENS_9enable_ifIXaasr21is_move_constructibleIT_EE5valuesr18is_move_assignableIS3_EE5valueEvE4typeERS3_S6_, symObjAddr: 0x16A5C, symBinAddr: 0x100023228, symSize: 0x3C }
  - { offsetInCU: 0x82EC2, offset: 0x99D41, size: 0x8, addend: 0x0, symName: __ZNSt3__1neB8ue170006ERKNS_20__map_const_iteratorINS_21__tree_const_iteratorINS_12__value_typeINS_12basic_stringIcNS_11char_traitsIcEENS_9allocatorIcEEEEN5Catch8TagAliasEEEPNS_11__tree_nodeISB_PvEElEEEESJ_, symObjAddr: 0x17278, symBinAddr: 0x100023A44, symSize: 0x30 }
  - { offsetInCU: 0x82FE0, offset: 0x99E5F, size: 0x8, addend: 0x0, symName: __ZNSt3__19make_pairB8ue170006IRKNS_12basic_stringIcNS_11char_traitsIcEENS_9allocatorIcEEEEN5Catch8TagAliasEEENS_4pairINS_18__unwrap_ref_decayIT_E4typeENSC_IT0_E4typeEEEOSD_OSG_, symObjAddr: 0x17A44, symBinAddr: 0x100024210, symSize: 0x40 }
  - { offsetInCU: 0x83030, offset: 0x99EAF, size: 0x8, addend: 0x0, symName: __ZNSt3__1neB8ue170006IPcEEbRKNS_11__wrap_iterIT_EES6_, symObjAddr: 0x17E60, symBinAddr: 0x10002462C, symSize: 0x34 }
  - { offsetInCU: 0x83072, offset: 0x99EF1, size: 0x8, addend: 0x0, symName: __ZNSt3__14sortB8ue170006INS_11__wrap_iterIPNS_12basic_stringIcNS_11char_traitsIcEENS_9allocatorIcEEEEEEEEvT_SA_, symObjAddr: 0x1852C, symBinAddr: 0x100024CF8, symSize: 0x3C }
  - { offsetInCU: 0x830B6, offset: 0x99F35, size: 0x8, addend: 0x0, symName: __ZNSt3__15beginB8ue170006INS_6vectorINS_12basic_stringIcNS_11char_traitsIcEENS_9allocatorIcEEEENS5_IS7_EEEEEEDTcldtfp_5beginEERT_, symObjAddr: 0x18568, symBinAddr: 0x100024D34, symSize: 0x2C }
  - { offsetInCU: 0x830EB, offset: 0x99F6A, size: 0x8, addend: 0x0, symName: __ZNSt3__13endB8ue170006INS_6vectorINS_12basic_stringIcNS_11char_traitsIcEENS_9allocatorIcEEEENS5_IS7_EEEEEEDTcldtfp_3endEERT_, symObjAddr: 0x18594, symBinAddr: 0x100024D60, symSize: 0x2C }
  - { offsetInCU: 0x83120, offset: 0x99F9F, size: 0x8, addend: 0x0, symName: __ZNSt3__16uniqueB8ue170006INS_11__wrap_iterIPNS_12basic_stringIcNS_11char_traitsIcEENS_9allocatorIcEEEEEEEET_SA_SA_, symObjAddr: 0x186A0, symBinAddr: 0x100024E6C, symSize: 0x44 }
  - { offsetInCU: 0x83163, offset: 0x99FE2, size: 0x8, addend: 0x0, symName: __ZNSt3__1neB8ue170006IPNS_12basic_stringIcNS_11char_traitsIcEENS_9allocatorIcEEEEEEbRKNS_11__wrap_iterIT_EESC_, symObjAddr: 0x187C4, symBinAddr: 0x100024F90, symSize: 0x34 }
  - { offsetInCU: 0x831A5, offset: 0x9A024, size: 0x8, addend: 0x0, symName: __ZNSt3__1ltB8ue170006IcNS_11char_traitsIcEENS_9allocatorIcEEEEbRKNS_12basic_stringIT_T0_T1_EESB_, symObjAddr: 0x18E24, symBinAddr: 0x1000255F0, symSize: 0x38 }
  - { offsetInCU: 0x831FD, offset: 0x9A07C, size: 0x8, addend: 0x0, symName: __ZNSt3__14sortB8ue170006INS_11__wrap_iterIPN5Catch8TestCaseEEEEEvT_S6_, symObjAddr: 0x19000, symBinAddr: 0x1000257CC, symSize: 0x3C }
  - { offsetInCU: 0x83241, offset: 0x9A0C0, size: 0x8, addend: 0x0, symName: __ZNSt3__17shuffleB8ue170006INS_11__wrap_iterIPN5Catch8TestCaseEEERNS_23mersenne_twister_engineIjLm32ELm624ELm397ELm31ELj2567483615ELm11ELj4294967295ELm7ELj2636928640ELm15ELj4022730752ELm18ELj1812433253EEEEEvT_S9_OT0_, symObjAddr: 0x1903C, symBinAddr: 0x100025808, symSize: 0x48 }
  - { offsetInCU: 0x8395F, offset: 0x9A7DE, size: 0x8, addend: 0x0, symName: __ZNSt3__1neB8ue170006IPKN5Catch8TestCaseEEEbRKNS_11__wrap_iterIT_EES9_, symObjAddr: 0x194A4, symBinAddr: 0x100025C70, symSize: 0x34 }
  - { offsetInCU: 0x839A1, offset: 0x9A820, size: 0x8, addend: 0x0, symName: __ZNSt3__111make_sharedB8ue170006IN5Catch16TestCaseTracking14SectionTrackerEJNS2_15NameAndLocationERNS2_14TrackerContextEDnEvEENS_10shared_ptrIT_EEDpOT0_, symObjAddr: 0x19E28, symBinAddr: 0x1000265F4, symSize: 0x50 }
  - { offsetInCU: 0x83A12, offset: 0x9A891, size: 0x8, addend: 0x0, symName: '__ZNSt3__17find_ifB8ue170006INS_11__wrap_iterIPNS_10shared_ptrIN5Catch16TestCaseTracking8ITrackerEEEEEZNS4_11TrackerBase9findChildERKNS4_15NameAndLocationEE4$_12EET_SE_SE_T0_', symObjAddr: 0x1A414, symBinAddr: 0x100026BE0, symSize: 0x78 }
  - { offsetInCU: 0x83A6D, offset: 0x9A8EC, size: 0x8, addend: 0x0, symName: __ZNSt3__1neB8ue170006IPNS_10shared_ptrIN5Catch16TestCaseTracking8ITrackerEEEEEbRKNS_11__wrap_iterIT_EESB_, symObjAddr: 0x1A4EC, symBinAddr: 0x100026CB8, symSize: 0x34 }
  - { offsetInCU: 0x83AAF, offset: 0x9A92E, size: 0x8, addend: 0x0, symName: __ZNSt3__119static_pointer_castB8ue170006IN5Catch16TestCaseTracking14SectionTrackerENS2_8ITrackerEEENS_10shared_ptrIT_EERKNS5_IT0_EE, symObjAddr: 0x1AE94, symBinAddr: 0x100027660, symSize: 0x44 }
  - { offsetInCU: 0x83AEF, offset: 0x9A96E, size: 0x8, addend: 0x0, symName: __ZNSt3__111make_sharedB8ue170006IN5Catch16TestCaseTracking14SectionTrackerEJRKNS2_15NameAndLocationERNS2_14TrackerContextEPNS2_8ITrackerEEvEENS_10shared_ptrIT_EEDpOT0_, symObjAddr: 0x1AF28, symBinAddr: 0x1000276F4, symSize: 0x50 }
  - { offsetInCU: 0x83B5F, offset: 0x9A9DE, size: 0x8, addend: 0x0, symName: __ZNSt3__119static_pointer_castB8ue170006IN5Catch16TestCaseTracking12IndexTrackerENS2_8ITrackerEEENS_10shared_ptrIT_EERKNS5_IT0_EE, symObjAddr: 0x1B500, symBinAddr: 0x100027CCC, symSize: 0x44 }
  - { offsetInCU: 0x83B9F, offset: 0x9AA1E, size: 0x8, addend: 0x0, symName: __ZNSt3__111make_sharedB8ue170006IN5Catch16TestCaseTracking12IndexTrackerEJRKNS2_15NameAndLocationERNS2_14TrackerContextEPNS2_8ITrackerERiEvEENS_10shared_ptrIT_EEDpOT0_, symObjAddr: 0x1B5C0, symBinAddr: 0x100027D8C, symSize: 0x58 }
  - { offsetInCU: 0x83C25, offset: 0x9AAA4, size: 0x8, addend: 0x0, symName: __ZNSt3__14findB8ue170006INS_11__wrap_iterIPKNS_12basic_stringIcNS_11char_traitsIcEENS_9allocatorIcEEEEEES7_EET_SB_SB_RKT0_, symObjAddr: 0x1C2DC, symBinAddr: 0x100028AA8, symSize: 0x78 }
  - { offsetInCU: 0x83C8D, offset: 0x9AB0C, size: 0x8, addend: 0x0, symName: __ZNSt3__15beginB8ue170006INS_6vectorINS_12basic_stringIcNS_11char_traitsIcEENS_9allocatorIcEEEENS5_IS7_EEEEEEDTcldtfp_5beginEERKT_, symObjAddr: 0x1C354, symBinAddr: 0x100028B20, symSize: 0x2C }
  - { offsetInCU: 0x83CC2, offset: 0x9AB41, size: 0x8, addend: 0x0, symName: __ZNSt3__13endB8ue170006INS_6vectorINS_12basic_stringIcNS_11char_traitsIcEENS_9allocatorIcEEEENS5_IS7_EEEEEEDTcldtfp_3endEERKT_, symObjAddr: 0x1C380, symBinAddr: 0x100028B4C, symSize: 0x2C }
  - { offsetInCU: 0x83CF7, offset: 0x9AB76, size: 0x8, addend: 0x0, symName: __ZNSt3__1neB8ue170006IPKNS_10shared_ptrIN5Catch8TestSpec7PatternEEEEEbRKNS_11__wrap_iterIT_EESC_, symObjAddr: 0x1C5EC, symBinAddr: 0x100028DB8, symSize: 0x34 }
  - { offsetInCU: 0x83D3A, offset: 0x9ABB9, size: 0x8, addend: 0x0, symName: __ZNSt3__1neB8ue170006IPKN5Catch8TestSpec6FilterEEEbRKNS_11__wrap_iterIT_EESA_, symObjAddr: 0x1C70C, symBinAddr: 0x100028ED8, symSize: 0x34 }
  - { offsetInCU: 0x83D7D, offset: 0x9ABFC, size: 0x8, addend: 0x0, symName: __ZNSt3__17setfillB8ue170006IcEENS_8__iom_t4IT_EES2_, symObjAddr: 0x1D8A8, symBinAddr: 0x100029FC8, symSize: 0x2C }
  - { offsetInCU: 0x83DB1, offset: 0x9AC30, size: 0x8, addend: 0x0, symName: __ZNSt3__13hexB8ue170006ERNS_8ios_baseE, symObjAddr: 0x1D90C, symBinAddr: 0x10002A02C, symSize: 0x30 }
  - { offsetInCU: 0x83DDF, offset: 0x9AC5E, size: 0x8, addend: 0x0, symName: __ZNSt3__1plB8ue170006IcNS_11char_traitsIcEENS_9allocatorIcEEEENS_12basic_stringIT_T0_T1_EES6_RKS9_, symObjAddr: 0x1DB60, symBinAddr: 0x10002A280, symSize: 0x10C }
  - { offsetInCU: 0x83E72, offset: 0x9ACF1, size: 0x8, addend: 0x0, symName: __ZNSt3__1neB8ue170006IPKcEEbRKNS_11__wrap_iterIT_EES7_, symObjAddr: 0x1DC6C, symBinAddr: 0x10002A38C, symSize: 0x34 }
  - { offsetInCU: 0x83EC0, offset: 0x9AD3F, size: 0x8, addend: 0x0, symName: __ZNSt3__1neB8ue170006IPKwEEbRKNS_11__wrap_iterIT_EES7_, symObjAddr: 0x1E014, symBinAddr: 0x10002A734, symSize: 0x34 }
  - { offsetInCU: 0x84002, offset: 0x9AE81, size: 0x8, addend: 0x0, symName: __ZNSt3__1lsB8ue170006INS_11char_traitsIcEEEERNS_13basic_ostreamIcT_EES6_h, symObjAddr: 0x1F7B4, symBinAddr: 0x10002BED4, symSize: 0x34 }
  - { offsetInCU: 0x84049, offset: 0x9AEC8, size: 0x8, addend: 0x0, symName: __ZNSt3__1neB8ue170006IPN5Catch11SectionInfoEEEbRKNS_11__wrap_iterIT_EES8_, symObjAddr: 0x24C20, symBinAddr: 0x100031340, symSize: 0x34 }
  - { offsetInCU: 0x8408C, offset: 0x9AF0B, size: 0x8, addend: 0x0, symName: __ZNSt3__1neB8ue170006IPKN5Catch13SummaryColumnEEEbRKNS_11__wrap_iterIT_EES9_, symObjAddr: 0x25538, symBinAddr: 0x100031C58, symSize: 0x34 }
  - { offsetInCU: 0x840CE, offset: 0x9AF4D, size: 0x8, addend: 0x0, symName: __ZNSt3__1neB8ue170006IcNS_11char_traitsIcEENS_9allocatorIcEEEEbRKNS_12basic_stringIT_T0_T1_EEPKS6_, symObjAddr: 0x255B8, symBinAddr: 0x100031CD8, symSize: 0x34 }
  - { offsetInCU: 0x84127, offset: 0x9AFA6, size: 0x8, addend: 0x0, symName: __ZNSt3__1neB8ue170006IPKNS_10shared_ptrIN5Catch22CumulativeReporterBaseINS2_13JunitReporterEE4NodeINS2_13TestCaseStatsENS5_11SectionNodeEEEEEEEbRKNS_11__wrap_iterIT_EESH_, symObjAddr: 0x26D3C, symBinAddr: 0x100033420, symSize: 0x34 }
  - { offsetInCU: 0x84169, offset: 0x9AFE8, size: 0x8, addend: 0x0, symName: __ZNSt3__1plB8ue170006IcNS_11char_traitsIcEENS_9allocatorIcEEEENS_12basic_stringIT_T0_T1_EERKS9_S6_, symObjAddr: 0x27788, symBinAddr: 0x100033E6C, symSize: 0x110 }
  - { offsetInCU: 0x841FC, offset: 0x9B07B, size: 0x8, addend: 0x0, symName: __ZNSt3__1neB8ue170006IPKNS_10shared_ptrIN5Catch22CumulativeReporterBaseINS2_13JunitReporterEE11SectionNodeEEEEEbRKNS_11__wrap_iterIT_EESE_, symObjAddr: 0x27A78, symBinAddr: 0x10003415C, symSize: 0x34 }
  - { offsetInCU: 0x8423F, offset: 0x9B0BE, size: 0x8, addend: 0x0, symName: __ZNSt3__1neB8ue170006IPKN5Catch14AssertionStatsEEEbRKNS_11__wrap_iterIT_EES9_, symObjAddr: 0x27B44, symBinAddr: 0x100034228, symSize: 0x34 }
  - { offsetInCU: 0x84282, offset: 0x9B101, size: 0x8, addend: 0x0, symName: __ZNSt3__1neB8ue170006IPKN5Catch11MessageInfoEEEbRKNS_11__wrap_iterIT_EES9_, symObjAddr: 0x281B8, symBinAddr: 0x10003489C, symSize: 0x34 }
  - { offsetInCU: 0x842C5, offset: 0x9B144, size: 0x8, addend: 0x0, symName: __ZNSt3__1neB8ue170006IPNS_10unique_ptrIN5Catch18IStreamingReporterENS_14default_deleteIS3_EEEEEEbRKNS_11__wrap_iterIT_EESC_, symObjAddr: 0x28708, symBinAddr: 0x100034DEC, symSize: 0x34 }
  - { offsetInCU: 0x84307, offset: 0x9B186, size: 0x8, addend: 0x0, symName: __ZNSt3__1rsB8ue170006IcNS_11char_traitsIcEEEERNS_13basic_istreamIT_T0_EES7_RS4_, symObjAddr: 0x2B92C, symBinAddr: 0x100037FE4, symSize: 0x18C }
  - { offsetInCU: 0x84389, offset: 0x9B208, size: 0x8, addend: 0x0, symName: __ZNSt3__1rsB8ue170006IcNS_11char_traitsIcEENS_9allocatorIcEEEERNS_13basic_istreamIT_T0_EES9_RNS_12basic_stringIS6_S7_T1_EE, symObjAddr: 0x2BAB8, symBinAddr: 0x100038170, symSize: 0x2FC }
  - { offsetInCU: 0x84456, offset: 0x9B2D5, size: 0x8, addend: 0x0, symName: __ZNSt3__111make_sharedB8ue170006IN5Catch5clara6detail13BoundValueRefINS_12basic_stringIcNS_11char_traitsIcEENS_9allocatorIcEEEEEEJRSA_EvEENS_10shared_ptrIT_EEDpOT0_, symObjAddr: 0x2D250, symBinAddr: 0x10003989C, symSize: 0x40 }
  - { offsetInCU: 0x84686, offset: 0x9B505, size: 0x8, addend: 0x0, symName: __ZNSt3__111make_sharedB8ue170006INS_12basic_stringIcNS_11char_traitsIcEENS_9allocatorIcEEEEJRA13_KcEvEENS_10shared_ptrIT_EEDpOT0_, symObjAddr: 0x2D3DC, symBinAddr: 0x100039A28, symSize: 0x40 }
  - { offsetInCU: 0x846CC, offset: 0x9B54B, size: 0x8, addend: 0x0, symName: __ZNSt3__115allocate_sharedB8ue170006INS_12basic_stringIcNS_11char_traitsIcEENS_9allocatorIcEEEENS4_IS6_EEJRA13_KcEvEENS_10shared_ptrIT_EERKT0_DpOT1_, symObjAddr: 0x2D5BC, symBinAddr: 0x100039C08, symSize: 0x98 }
  - { offsetInCU: 0x84A48, offset: 0x9B8C7, size: 0x8, addend: 0x0, symName: __ZNSt3__117__libcpp_allocateB8ue170006Emm, symObjAddr: 0x2D9C4, symBinAddr: 0x10003A010, symSize: 0x28 }
  - { offsetInCU: 0x84A85, offset: 0x9B904, size: 0x8, addend: 0x0, symName: __ZNSt3__121__libcpp_operator_newB8ue170006IJmEEEPvDpT_, symObjAddr: 0x2DA04, symBinAddr: 0x10003A050, symSize: 0x24 }
  - { offsetInCU: 0x84AF3, offset: 0x9B972, size: 0x8, addend: 0x0, symName: __ZNSt3__119__libcpp_deallocateB8ue170006EPvmm, symObjAddr: 0x2DE4C, symBinAddr: 0x10003A498, symSize: 0x30 }
  - { offsetInCU: 0x84B3C, offset: 0x9B9BB, size: 0x8, addend: 0x0, symName: __ZNSt3__127__do_deallocate_handle_sizeB8ue170006IJEEEvPvmDpT_, symObjAddr: 0x2DE7C, symBinAddr: 0x10003A4C8, symSize: 0x28 }
  - { offsetInCU: 0x84B7C, offset: 0x9B9FB, size: 0x8, addend: 0x0, symName: __ZNSt3__124__libcpp_operator_deleteB8ue170006IJPvEEEvDpT_, symObjAddr: 0x2DEA4, symBinAddr: 0x10003A4F0, symSize: 0x24 }
  - { offsetInCU: 0x84BB5, offset: 0x9BA34, size: 0x8, addend: 0x0, symName: __ZNSt3__134__libcpp_atomic_refcount_decrementB8ue170006IlEET_RS1_, symObjAddr: 0x2E058, symBinAddr: 0x10003A6A4, symSize: 0x30 }
  - { offsetInCU: 0x84BEA, offset: 0x9BA69, size: 0x8, addend: 0x0, symName: __ZNSt3__122__make_exception_guardB8ue170006INS_6vectorIN5Catch5clara6detail5TokenENS_9allocatorIS5_EEE16__destroy_vectorEEENS_28__exception_guard_exceptionsIT_EESB_, symObjAddr: 0x2EB5C, symBinAddr: 0x10003B1A8, symSize: 0x40 }
  - { offsetInCU: 0x84C1F, offset: 0x9BA9E, size: 0x8, addend: 0x0, symName: __ZNSt3__119__allocate_at_leastB8ue170006INS_9allocatorIN5Catch5clara6detail5TokenEEEEENS_19__allocation_resultINS_16allocator_traitsIT_E7pointerEEERS9_m, symObjAddr: 0x2EE44, symBinAddr: 0x10003B490, symSize: 0x40 }
  - { offsetInCU: 0x84C62, offset: 0x9BAE1, size: 0x8, addend: 0x0, symName: __ZNSt3__13minB8ue170006ImEERKT_S3_S3_, symObjAddr: 0x2EF80, symBinAddr: 0x10003B5CC, symSize: 0x2C }
  - { offsetInCU: 0x84EB0, offset: 0x9BD2F, size: 0x8, addend: 0x0, symName: __ZNSt3__13minB8ue170006ImNS_6__lessIvvEEEERKT_S5_S5_T0_, symObjAddr: 0x2EFE4, symBinAddr: 0x10003B630, symSize: 0x54 }
  - { offsetInCU: 0x84FE3, offset: 0x9BE62, size: 0x8, addend: 0x0, symName: __ZNSt3__120__throw_length_errorB8ue170006EPKc, symObjAddr: 0x2F088, symBinAddr: 0x10003B6D4, symSize: 0x64 }
  - { offsetInCU: 0x8500F, offset: 0x9BE8E, size: 0x8, addend: 0x0, symName: __ZNSt3__112__to_addressB8ue170006IN5Catch5clara6detail5TokenEEEPT_S6_, symObjAddr: 0x2F2BC, symBinAddr: 0x10003B908, symSize: 0x14 }
  - { offsetInCU: 0x85043, offset: 0x9BEC2, size: 0x8, addend: 0x0, symName: __ZNSt3__130__uninitialized_allocator_copyB8ue170006INS_9allocatorIN5Catch5clara6detail5TokenEEEPS5_S7_S7_EET2_RT_T0_T1_S8_, symObjAddr: 0x2F36C, symBinAddr: 0x10003B9B8, symSize: 0x80 }
  - { offsetInCU: 0x850E1, offset: 0x9BF60, size: 0x8, addend: 0x0, symName: __ZNSt3__114__unwrap_rangeB8ue170006IPN5Catch5clara6detail5TokenES5_EENS_4pairIT0_S7_EET_S9_, symObjAddr: 0x2F45C, symBinAddr: 0x10003BAA8, symSize: 0x60 }
  - { offsetInCU: 0x8512C, offset: 0x9BFAB, size: 0x8, addend: 0x0, symName: __ZNSt3__135__uninitialized_allocator_copy_implB8ue170006INS_9allocatorIN5Catch5clara6detail5TokenEEEPS5_S7_S7_EET2_RT_T0_T1_S8_, symObjAddr: 0x2F4BC, symBinAddr: 0x10003BB08, symSize: 0xF4 }
  - { offsetInCU: 0x851CB, offset: 0x9C04A, size: 0x8, addend: 0x0, symName: __ZNSt3__113__unwrap_iterB8ue170006IPN5Catch5clara6detail5TokenENS_18__unwrap_iter_implIS5_Lb1EEELi0EEEDTclsrT0_8__unwrapclsr3stdE7declvalIT_EEEES9_, symObjAddr: 0x2F5B0, symBinAddr: 0x10003BBFC, symSize: 0x24 }
  - { offsetInCU: 0x85210, offset: 0x9C08F, size: 0x8, addend: 0x0, symName: __ZNSt3__113__rewrap_iterB8ue170006IPN5Catch5clara6detail5TokenES5_NS_18__unwrap_iter_implIS5_Lb1EEEEET_S8_T0_, symObjAddr: 0x2F5D4, symBinAddr: 0x10003BC20, symSize: 0x3C }
  - { offsetInCU: 0x85264, offset: 0x9C0E3, size: 0x8, addend: 0x0, symName: __ZNSt3__19make_pairB8ue170006IPN5Catch5clara6detail5TokenES5_EENS_4pairINS_18__unwrap_ref_decayIT_E4typeENS7_IT0_E4typeEEEOS8_OSB_, symObjAddr: 0x2F610, symBinAddr: 0x10003BC5C, symSize: 0x38 }
  - { offsetInCU: 0x85389, offset: 0x9C208, size: 0x8, addend: 0x0, symName: __ZNSt3__122__make_exception_guardB8ue170006INS_29_AllocatorDestroyRangeReverseINS_9allocatorIN5Catch5clara6detail5TokenEEEPS6_EEEENS_28__exception_guard_exceptionsIT_EESB_, symObjAddr: 0x2F6B8, symBinAddr: 0x10003BD04, symSize: 0x4C }
  - { offsetInCU: 0x853BE, offset: 0x9C23D, size: 0x8, addend: 0x0, symName: __ZNSt3__119__allocator_destroyB8ue170006INS_9allocatorIN5Catch5clara6detail5TokenEEENS_16reverse_iteratorIPS5_EES9_EEvRT_T0_T1_, symObjAddr: 0x2F9C4, symBinAddr: 0x10003C010, symSize: 0x70 }
  - { offsetInCU: 0x85423, offset: 0x9C2A2, size: 0x8, addend: 0x0, symName: __ZNSt3__1neB8ue170006IPN5Catch5clara6detail5TokenES5_EEbRKNS_16reverse_iteratorIT_EERKNS6_IT0_EE, symObjAddr: 0x2FA68, symBinAddr: 0x10003C0B4, symSize: 0x48 }
  - { offsetInCU: 0x8546F, offset: 0x9C2EE, size: 0x8, addend: 0x0, symName: __ZNSt3__112__to_addressB8ue170006INS_16reverse_iteratorIPN5Catch5clara6detail5TokenEEEvEEu7__decayIDTclsr19__to_address_helperIT_EE6__callclsr3stdE7declvalIRKS8_EEEEESA_, symObjAddr: 0x2FADC, symBinAddr: 0x10003C128, symSize: 0x24 }
  - { offsetInCU: 0x85523, offset: 0x9C3A2, size: 0x8, addend: 0x0, symName: __ZNSt3__115allocate_sharedB8ue170006IN5Catch5clara6detail13BoundValueRefINS_12basic_stringIcNS_11char_traitsIcEENS_9allocatorIcEEEEEENS8_ISB_EEJRSA_EvEENS_10shared_ptrIT_EERKT0_DpOT1_, symObjAddr: 0x300F8, symBinAddr: 0x10003C744, symSize: 0x98 }
  - { offsetInCU: 0x858D3, offset: 0x9C752, size: 0x8, addend: 0x0, symName: __ZNSt3__14swapB8ue170006IPN5Catch5clara6detail17BoundValueRefBaseEEENS_9enable_ifIXaasr21is_move_constructibleIT_EE5valuesr18is_move_assignableIS7_EE5valueEvE4typeERS7_SA_, symObjAddr: 0x310B8, symBinAddr: 0x10003D704, symSize: 0x3C }
  - { offsetInCU: 0x85924, offset: 0x9C7A3, size: 0x8, addend: 0x0, symName: __ZNSt3__14swapB8ue170006IPNS_19__shared_weak_countEEENS_9enable_ifIXaasr21is_move_constructibleIT_EE5valuesr18is_move_assignableIS4_EE5valueEvE4typeERS4_S7_, symObjAddr: 0x310F4, symBinAddr: 0x10003D740, symSize: 0x3C }
  - { offsetInCU: 0x85974, offset: 0x9C7F3, size: 0x8, addend: 0x0, symName: __ZNSt3__111make_sharedB8ue170006IN5Catch5clara6detail15BoundFlagLambdaIZNS3_4HelpC1ERbEUlbE_EEJRKS7_EvEENS_10shared_ptrIT_EEDpOT0_, symObjAddr: 0x31D08, symBinAddr: 0x10003E354, symSize: 0x40 }
  - { offsetInCU: 0x85BA4, offset: 0x9CA23, size: 0x8, addend: 0x0, symName: __ZNSt3__115allocate_sharedB8ue170006IN5Catch5clara6detail15BoundFlagLambdaIZNS3_4HelpC1ERbEUlbE_EENS_9allocatorIS8_EEJRKS7_EvEENS_10shared_ptrIT_EERKT0_DpOT1_, symObjAddr: 0x31E78, symBinAddr: 0x10003E4C4, symSize: 0x98 }
  - { offsetInCU: 0x85F54, offset: 0x9CDD3, size: 0x8, addend: 0x0, symName: __ZNSt3__134__libcpp_atomic_refcount_incrementB8ue170006IlEET_RS1_, symObjAddr: 0x32BA4, symBinAddr: 0x10003F1F0, symSize: 0x30 }
  - { offsetInCU: 0x85F89, offset: 0x9CE08, size: 0x8, addend: 0x0, symName: __ZNSt3__1miB8ue170006IPKN5Catch5clara6detail5TokenES6_EEDTmicldtfp_4baseEcldtfp0_4baseEERKNS_11__wrap_iterIT_EERKNS8_IT0_EE, symObjAddr: 0x33B80, symBinAddr: 0x1000401CC, symSize: 0x48 }
  - { offsetInCU: 0x85FD5, offset: 0x9CE54, size: 0x8, addend: 0x0, symName: __ZNSt3__14moveB8ue170006IPN5Catch5clara6detail5TokenES5_EET0_T_S7_S6_, symObjAddr: 0x33C40, symBinAddr: 0x10004028C, symSize: 0x40 }
  - { offsetInCU: 0x8602F, offset: 0x9CEAE, size: 0x8, addend: 0x0, symName: __ZNSt3__16__moveB8ue170006INS_17_ClassicAlgPolicyEPN5Catch5clara6detail5TokenES6_S6_EENS_4pairIT0_T2_EES8_T1_S9_, symObjAddr: 0x33E30, symBinAddr: 0x10004047C, symSize: 0x44 }
  - { offsetInCU: 0x8609B, offset: 0x9CF1A, size: 0x8, addend: 0x0, symName: __ZNSt3__123__dispatch_copy_or_moveB8ue170006INS_17_ClassicAlgPolicyENS_11__move_loopIS1_EENS_14__move_trivialEPN5Catch5clara6detail5TokenES9_S9_EENS_4pairIT2_T4_EESB_T3_SC_, symObjAddr: 0x33E74, symBinAddr: 0x1000404C0, symSize: 0x44 }
  - { offsetInCU: 0x86119, offset: 0x9CF98, size: 0x8, addend: 0x0, symName: __ZNSt3__121__unwrap_and_dispatchB8ue170006INS_10__overloadINS_11__move_loopINS_17_ClassicAlgPolicyEEENS_14__move_trivialEEEPN5Catch5clara6detail5TokenESB_SB_Li0EEENS_4pairIT0_T2_EESD_T1_SE_, symObjAddr: 0x33EB8, symBinAddr: 0x100040504, symSize: 0xB4 }
  - { offsetInCU: 0x8637D, offset: 0x9D1FC, size: 0x8, addend: 0x0, symName: __ZNSt3__114__rewrap_rangeB8ue170006IPN5Catch5clara6detail5TokenES5_EET_S6_T0_, symObjAddr: 0x33FFC, symBinAddr: 0x100040648, symSize: 0x2C }
  - { offsetInCU: 0x867E4, offset: 0x9D663, size: 0x8, addend: 0x0, symName: __ZNSt3__142__uninitialized_allocator_move_if_noexceptB8ue170006INS_9allocatorIN5Catch5clara6detail5TokenEEENS_16reverse_iteratorIPS5_EES9_S9_EET2_RT_T0_T1_SA_, symObjAddr: 0x34B70, symBinAddr: 0x1000411BC, symSize: 0x11C }
  - { offsetInCU: 0x86885, offset: 0x9D704, size: 0x8, addend: 0x0, symName: __ZNSt3__14swapB8ue170006IPN5Catch5clara6detail5TokenEEENS_9enable_ifIXaasr21is_move_constructibleIT_EE5valuesr18is_move_assignableIS7_EE5valueEvE4typeERS7_SA_, symObjAddr: 0x34C8C, symBinAddr: 0x1000412D8, symSize: 0x3C }
  - { offsetInCU: 0x868D6, offset: 0x9D755, size: 0x8, addend: 0x0, symName: __ZNSt3__122__make_exception_guardB8ue170006INS_29_AllocatorDestroyRangeReverseINS_9allocatorIN5Catch5clara6detail5TokenEEENS_16reverse_iteratorIPS6_EEEEEENS_28__exception_guard_exceptionsIT_EESD_, symObjAddr: 0x34CC8, symBinAddr: 0x100041314, symSize: 0x4C }
  - { offsetInCU: 0x8690B, offset: 0x9D78A, size: 0x8, addend: 0x0, symName: __ZNSt3__119__allocator_destroyB8ue170006INS_9allocatorIN5Catch5clara6detail5TokenEEENS_16reverse_iteratorINS7_IPS5_EEEESA_EEvRT_T0_T1_, symObjAddr: 0x35020, symBinAddr: 0x10004166C, symSize: 0x70 }
  - { offsetInCU: 0x86972, offset: 0x9D7F1, size: 0x8, addend: 0x0, symName: __ZNSt3__1neB8ue170006INS_16reverse_iteratorIPN5Catch5clara6detail5TokenEEES7_EEbRKNS1_IT_EERKNS1_IT0_EE, symObjAddr: 0x350CC, symBinAddr: 0x100041718, symSize: 0x60 }
  - { offsetInCU: 0x869BE, offset: 0x9D83D, size: 0x8, addend: 0x0, symName: __ZNSt3__112__to_addressB8ue170006INS_16reverse_iteratorINS1_IPN5Catch5clara6detail5TokenEEEEEvEEu7__decayIDTclsr19__to_address_helperIT_EE6__callclsr3stdE7declvalIRKS9_EEEEESB_, symObjAddr: 0x3512C, symBinAddr: 0x100041778, symSize: 0x24 }
  - { offsetInCU: 0x86A1F, offset: 0x9D89E, size: 0x8, addend: 0x0, symName: __ZNSt3__112__to_addressB8ue170006IKNS_12basic_stringIcNS_11char_traitsIcEENS_9allocatorIcEEEEEEPT_S9_, symObjAddr: 0x3546C, symBinAddr: 0x100041AB8, symSize: 0x14 }
  - { offsetInCU: 0x86A53, offset: 0x9D8D2, size: 0x8, addend: 0x0, symName: __ZNSt3__119__str_find_first_ofB8ue170006IcmNS_11char_traitsIcEELm18446744073709551615EEET0_PKT_S3_S6_S3_S3_, symObjAddr: 0x35480, symBinAddr: 0x100041ACC, symSize: 0xF0 }
  - { offsetInCU: 0x86AFB, offset: 0x9D97A, size: 0x8, addend: 0x0, symName: __ZNSt3__118__find_first_of_ceB8ue170006IPKcS2_RFbccEEET_S5_S5_T0_S6_OT1_, symObjAddr: 0x355CC, symBinAddr: 0x100041BBC, symSize: 0xD0 }
  - { offsetInCU: 0x86BD3, offset: 0x9DA52, size: 0x8, addend: 0x0, symName: __ZNSt3__111make_sharedB8ue170006IN5Catch5clara6detail12BoundFlagRefEJRbEvEENS_10shared_ptrIT_EEDpOT0_, symObjAddr: 0x35B48, symBinAddr: 0x100041FD8, symSize: 0x40 }
  - { offsetInCU: 0x86E03, offset: 0x9DC82, size: 0x8, addend: 0x0, symName: __ZNSt3__115allocate_sharedB8ue170006IN5Catch5clara6detail12BoundFlagRefENS_9allocatorIS4_EEJRbEvEENS_10shared_ptrIT_EERKT0_DpOT1_, symObjAddr: 0x35BE8, symBinAddr: 0x100042078, symSize: 0x98 }
  - { offsetInCU: 0x871B2, offset: 0x9E031, size: 0x8, addend: 0x0, symName: __ZNSt3__111make_sharedB8ue170006IN5Catch5clara6detail13BoundValueRefINS_6vectorINS_12basic_stringIcNS_11char_traitsIcEENS_9allocatorIcEEEENS9_ISB_EEEEEEJRSD_EvEENS_10shared_ptrIT_EEDpOT0_, symObjAddr: 0x36BA4, symBinAddr: 0x100043034, symSize: 0x40 }
  - { offsetInCU: 0x873E2, offset: 0x9E261, size: 0x8, addend: 0x0, symName: __ZNSt3__115allocate_sharedB8ue170006IN5Catch5clara6detail13BoundValueRefINS_6vectorINS_12basic_stringIcNS_11char_traitsIcEENS_9allocatorIcEEEENS9_ISB_EEEEEENS9_ISE_EEJRSD_EvEENS_10shared_ptrIT_EERKT0_DpOT1_, symObjAddr: 0x36CB0, symBinAddr: 0x100043140, symSize: 0x98 }
  - { offsetInCU: 0x87792, offset: 0x9E611, size: 0x8, addend: 0x0, symName: __ZNSt3__112__to_addressB8ue170006IN5Catch5clara6detail3ArgEEEPT_S6_, symObjAddr: 0x38538, symBinAddr: 0x1000449C8, symSize: 0x14 }
  - { offsetInCU: 0x877C7, offset: 0x9E646, size: 0x8, addend: 0x0, symName: __ZNSt3__112__to_addressB8ue170006IN5Catch5clara6detail3OptEEEPT_S6_, symObjAddr: 0x38A40, symBinAddr: 0x100044ED0, symSize: 0x14 }
  - { offsetInCU: 0x877FC, offset: 0x9E67B, size: 0x8, addend: 0x0, symName: __ZNSt3__1neB8ue170006IPKN5Catch5clara6detail3OptEEEbRKNS_11__wrap_iterIT_EESB_, symObjAddr: 0x38C30, symBinAddr: 0x1000450C0, symSize: 0x34 }
  - { offsetInCU: 0x8783F, offset: 0x9E6BE, size: 0x8, addend: 0x0, symName: __ZNSt3__1neB8ue170006IPKN5Catch5clara6detail3ArgEEEbRKNS_11__wrap_iterIT_EESB_, symObjAddr: 0x38CFC, symBinAddr: 0x10004518C, symSize: 0x34 }
  - { offsetInCU: 0x87882, offset: 0x9E701, size: 0x8, addend: 0x0, symName: __ZNSt3__1eqB8ue170006IPKN5Catch5clara6detail3OptEEEbRKNS_11__wrap_iterIT_EESB_, symObjAddr: 0x38DEC, symBinAddr: 0x10004527C, symSize: 0x48 }
  - { offsetInCU: 0x878C5, offset: 0x9E744, size: 0x8, addend: 0x0, symName: __ZNSt3__1eqB8ue170006IPKN5Catch5clara6detail3ArgEEEbRKNS_11__wrap_iterIT_EESB_, symObjAddr: 0x38ED0, symBinAddr: 0x100045360, symSize: 0x48 }
  - { offsetInCU: 0x87907, offset: 0x9E786, size: 0x8, addend: 0x0, symName: __ZNSt3__118__str_find_last_ofB8ue170006IcmNS_11char_traitsIcEELm18446744073709551615EEET0_PKT_S3_S6_S3_S3_, symObjAddr: 0x39280, symBinAddr: 0x100045710, symSize: 0xFC }
  - { offsetInCU: 0x879DA, offset: 0x9E859, size: 0x8, addend: 0x0, symName: __ZNSt3__118__constexpr_memchrB8ue170006IKccEEPT_S3_T0_m, symObjAddr: 0x393EC, symBinAddr: 0x10004587C, symSize: 0x40 }
  - { offsetInCU: 0x87A50, offset: 0x9E8CF, size: 0x8, addend: 0x0, symName: __ZNSt3__1eqB8ue170006IPKNS_12basic_stringIcNS_11char_traitsIcEENS_9allocatorIcEEEEEEbRKNS_11__wrap_iterIT_EESD_, symObjAddr: 0x399C8, symBinAddr: 0x100045E58, symSize: 0x48 }
  - { offsetInCU: 0x87A93, offset: 0x9E912, size: 0x8, addend: 0x0, symName: __ZNSt3__112__to_addressB8ue170006IN5Catch8TestSpec6FilterEEEPT_S5_, symObjAddr: 0x39F64, symBinAddr: 0x1000463F4, symSize: 0x14 }
  - { offsetInCU: 0x87AC8, offset: 0x9E947, size: 0x8, addend: 0x0, symName: __ZNSt3__122__make_exception_guardB8ue170006INS_6vectorIN5Catch8TestSpec6FilterENS_9allocatorIS4_EEE16__destroy_vectorEEENS_28__exception_guard_exceptionsIT_EESA_, symObjAddr: 0x3B2F0, symBinAddr: 0x1000476F8, symSize: 0x40 }
  - { offsetInCU: 0x87AFD, offset: 0x9E97C, size: 0x8, addend: 0x0, symName: __ZNSt3__119__allocate_at_leastB8ue170006INS_9allocatorIN5Catch8TestSpec6FilterEEEEENS_19__allocation_resultINS_16allocator_traitsIT_E7pointerEEERS8_m, symObjAddr: 0x3B58C, symBinAddr: 0x100047994, symSize: 0x40 }
  - { offsetInCU: 0x87B3F, offset: 0x9E9BE, size: 0x8, addend: 0x0, symName: __ZNSt3__130__uninitialized_allocator_copyB8ue170006INS_9allocatorIN5Catch8TestSpec6FilterEEEPS4_S6_S6_EET2_RT_T0_T1_S7_, symObjAddr: 0x3B768, symBinAddr: 0x100047B70, symSize: 0x80 }
  - { offsetInCU: 0x87BDD, offset: 0x9EA5C, size: 0x8, addend: 0x0, symName: __ZNSt3__114__unwrap_rangeB8ue170006IPN5Catch8TestSpec6FilterES4_EENS_4pairIT0_S6_EET_S8_, symObjAddr: 0x3B860, symBinAddr: 0x100047C68, symSize: 0x60 }
  - { offsetInCU: 0x87C28, offset: 0x9EAA7, size: 0x8, addend: 0x0, symName: __ZNSt3__135__uninitialized_allocator_copy_implB8ue170006INS_9allocatorIN5Catch8TestSpec6FilterEEEPS4_S6_S6_EET2_RT_T0_T1_S7_, symObjAddr: 0x3B8C0, symBinAddr: 0x100047CC8, symSize: 0xF4 }
  - { offsetInCU: 0x87CC7, offset: 0x9EB46, size: 0x8, addend: 0x0, symName: __ZNSt3__113__unwrap_iterB8ue170006IPN5Catch8TestSpec6FilterENS_18__unwrap_iter_implIS4_Lb1EEELi0EEEDTclsrT0_8__unwrapclsr3stdE7declvalIT_EEEES8_, symObjAddr: 0x3B9B4, symBinAddr: 0x100047DBC, symSize: 0x24 }
  - { offsetInCU: 0x87D0C, offset: 0x9EB8B, size: 0x8, addend: 0x0, symName: __ZNSt3__113__rewrap_iterB8ue170006IPN5Catch8TestSpec6FilterES4_NS_18__unwrap_iter_implIS4_Lb1EEEEET_S7_T0_, symObjAddr: 0x3B9D8, symBinAddr: 0x100047DE0, symSize: 0x3C }
  - { offsetInCU: 0x87D60, offset: 0x9EBDF, size: 0x8, addend: 0x0, symName: __ZNSt3__19make_pairB8ue170006IPN5Catch8TestSpec6FilterES4_EENS_4pairINS_18__unwrap_ref_decayIT_E4typeENS6_IT0_E4typeEEEOS7_OSA_, symObjAddr: 0x3BA14, symBinAddr: 0x100047E1C, symSize: 0x38 }
  - { offsetInCU: 0x87E85, offset: 0x9ED04, size: 0x8, addend: 0x0, symName: __ZNSt3__122__make_exception_guardB8ue170006INS_29_AllocatorDestroyRangeReverseINS_9allocatorIN5Catch8TestSpec6FilterEEEPS5_EEEENS_28__exception_guard_exceptionsIT_EESA_, symObjAddr: 0x3BABC, symBinAddr: 0x100047EC4, symSize: 0x4C }
  - { offsetInCU: 0x87EBB, offset: 0x9ED3A, size: 0x8, addend: 0x0, symName: __ZNSt3__122__make_exception_guardB8ue170006INS_6vectorINS_10shared_ptrIN5Catch8TestSpec7PatternEEENS_9allocatorIS6_EEE16__destroy_vectorEEENS_28__exception_guard_exceptionsIT_EESC_, symObjAddr: 0x3BFC8, symBinAddr: 0x1000483D0, symSize: 0x40 }
  - { offsetInCU: 0x87EF0, offset: 0x9ED6F, size: 0x8, addend: 0x0, symName: __ZNSt3__119__allocate_at_leastB8ue170006INS_9allocatorINS_10shared_ptrIN5Catch8TestSpec7PatternEEEEEEENS_19__allocation_resultINS_16allocator_traitsIT_E7pointerEEERSA_m, symObjAddr: 0x3C2B0, symBinAddr: 0x1000486B8, symSize: 0x40 }
  - { offsetInCU: 0x87F33, offset: 0x9EDB2, size: 0x8, addend: 0x0, symName: __ZNSt3__112__to_addressB8ue170006INS_10shared_ptrIN5Catch8TestSpec7PatternEEEEEPT_S7_, symObjAddr: 0x3C574, symBinAddr: 0x10004897C, symSize: 0x14 }
  - { offsetInCU: 0x87F67, offset: 0x9EDE6, size: 0x8, addend: 0x0, symName: __ZNSt3__130__uninitialized_allocator_copyB8ue170006INS_9allocatorINS_10shared_ptrIN5Catch8TestSpec7PatternEEEEEPS6_S8_S8_EET2_RT_T0_T1_S9_, symObjAddr: 0x3C624, symBinAddr: 0x100048A2C, symSize: 0x80 }
  - { offsetInCU: 0x88005, offset: 0x9EE84, size: 0x8, addend: 0x0, symName: __ZNSt3__114__unwrap_rangeB8ue170006IPNS_10shared_ptrIN5Catch8TestSpec7PatternEEES6_EENS_4pairIT0_S8_EET_SA_, symObjAddr: 0x3C714, symBinAddr: 0x100048B1C, symSize: 0x60 }
  - { offsetInCU: 0x88050, offset: 0x9EECF, size: 0x8, addend: 0x0, symName: __ZNSt3__135__uninitialized_allocator_copy_implB8ue170006INS_9allocatorINS_10shared_ptrIN5Catch8TestSpec7PatternEEEEEPS6_S8_S8_EET2_RT_T0_T1_S9_, symObjAddr: 0x3C774, symBinAddr: 0x100048B7C, symSize: 0xF4 }
  - { offsetInCU: 0x880EF, offset: 0x9EF6E, size: 0x8, addend: 0x0, symName: __ZNSt3__113__unwrap_iterB8ue170006IPNS_10shared_ptrIN5Catch8TestSpec7PatternEEENS_18__unwrap_iter_implIS6_Lb1EEELi0EEEDTclsrT0_8__unwrapclsr3stdE7declvalIT_EEEESA_, symObjAddr: 0x3C868, symBinAddr: 0x100048C70, symSize: 0x24 }
  - { offsetInCU: 0x88134, offset: 0x9EFB3, size: 0x8, addend: 0x0, symName: __ZNSt3__113__rewrap_iterB8ue170006IPNS_10shared_ptrIN5Catch8TestSpec7PatternEEES6_NS_18__unwrap_iter_implIS6_Lb1EEEEET_S9_T0_, symObjAddr: 0x3C88C, symBinAddr: 0x100048C94, symSize: 0x3C }
  - { offsetInCU: 0x88188, offset: 0x9F007, size: 0x8, addend: 0x0, symName: __ZNSt3__19make_pairB8ue170006IPNS_10shared_ptrIN5Catch8TestSpec7PatternEEES6_EENS_4pairINS_18__unwrap_ref_decayIT_E4typeENS8_IT0_E4typeEEEOS9_OSC_, symObjAddr: 0x3C8C8, symBinAddr: 0x100048CD0, symSize: 0x38 }
  - { offsetInCU: 0x882AD, offset: 0x9F12C, size: 0x8, addend: 0x0, symName: __ZNSt3__122__make_exception_guardB8ue170006INS_29_AllocatorDestroyRangeReverseINS_9allocatorINS_10shared_ptrIN5Catch8TestSpec7PatternEEEEEPS7_EEEENS_28__exception_guard_exceptionsIT_EESC_, symObjAddr: 0x3C970, symBinAddr: 0x100048D78, symSize: 0x4C }
  - { offsetInCU: 0x882E2, offset: 0x9F161, size: 0x8, addend: 0x0, symName: __ZNSt3__119__allocator_destroyB8ue170006INS_9allocatorINS_10shared_ptrIN5Catch8TestSpec7PatternEEEEENS_16reverse_iteratorIPS6_EESA_EEvRT_T0_T1_, symObjAddr: 0x3CC00, symBinAddr: 0x100049008, symSize: 0x70 }
  - { offsetInCU: 0x88347, offset: 0x9F1C6, size: 0x8, addend: 0x0, symName: __ZNSt3__1neB8ue170006IPNS_10shared_ptrIN5Catch8TestSpec7PatternEEES6_EEbRKNS_16reverse_iteratorIT_EERKNS7_IT0_EE, symObjAddr: 0x3CCA4, symBinAddr: 0x1000490AC, symSize: 0x48 }
  - { offsetInCU: 0x88393, offset: 0x9F212, size: 0x8, addend: 0x0, symName: __ZNSt3__112__to_addressB8ue170006INS_16reverse_iteratorIPNS_10shared_ptrIN5Catch8TestSpec7PatternEEEEEvEEu7__decayIDTclsr19__to_address_helperIT_EE6__callclsr3stdE7declvalIRKS9_EEEEESB_, symObjAddr: 0x3CD18, symBinAddr: 0x100049120, symSize: 0x24 }
  - { offsetInCU: 0x88447, offset: 0x9F2C6, size: 0x8, addend: 0x0, symName: __ZNSt3__119__allocator_destroyB8ue170006INS_9allocatorIN5Catch8TestSpec6FilterEEENS_16reverse_iteratorIPS4_EES8_EEvRT_T0_T1_, symObjAddr: 0x3D254, symBinAddr: 0x10004965C, symSize: 0x70 }
  - { offsetInCU: 0x884AC, offset: 0x9F32B, size: 0x8, addend: 0x0, symName: __ZNSt3__1neB8ue170006IPN5Catch8TestSpec6FilterES4_EEbRKNS_16reverse_iteratorIT_EERKNS5_IT0_EE, symObjAddr: 0x3D2F8, symBinAddr: 0x100049700, symSize: 0x48 }
  - { offsetInCU: 0x884F8, offset: 0x9F377, size: 0x8, addend: 0x0, symName: __ZNSt3__112__to_addressB8ue170006INS_16reverse_iteratorIPN5Catch8TestSpec6FilterEEEvEEu7__decayIDTclsr19__to_address_helperIT_EE6__callclsr3stdE7declvalIRKS7_EEEEES9_, symObjAddr: 0x3D340, symBinAddr: 0x100049748, symSize: 0x24 }
  - { offsetInCU: 0x885AD, offset: 0x9F42C, size: 0x8, addend: 0x0, symName: __ZNSt3__1eqB8ue170006IPN5Catch8TestCaseEEEbRKNS_11__wrap_iterIT_EES8_, symObjAddr: 0x3D52C, symBinAddr: 0x100049934, symSize: 0x48 }
  - { offsetInCU: 0x88623, offset: 0x9F4A2, size: 0x8, addend: 0x0, symName: __ZNSt3__13maxB8ue170006ImNS_6__lessIvvEEEERKT_S5_S5_T0_, symObjAddr: 0x3E118, symBinAddr: 0x10004A520, symSize: 0x54 }
  - { offsetInCU: 0x8867D, offset: 0x9F4FC, size: 0x8, addend: 0x0, symName: __ZNSt3__1neB8ue170006IPKN5Catch5clara8TextFlow6ColumnEEEbRKNS_11__wrap_iterIT_EESB_, symObjAddr: 0x3E8B0, symBinAddr: 0x10004ACB8, symSize: 0x34 }
  - { offsetInCU: 0x886C0, offset: 0x9F53F, size: 0x8, addend: 0x0, symName: __ZNSt3__119__allocate_at_leastB8ue170006INS_9allocatorIN5Catch5clara8TextFlow6Column8iteratorEEEEENS_19__allocation_resultINS_16allocator_traitsIT_E7pointerEEERSA_m, symObjAddr: 0x3EFE0, symBinAddr: 0x10004B3E8, symSize: 0x40 }
  - { offsetInCU: 0x88702, offset: 0x9F581, size: 0x8, addend: 0x0, symName: __ZNSt3__142__uninitialized_allocator_move_if_noexceptB8ue170006INS_9allocatorIN5Catch5clara8TextFlow6Column8iteratorEEENS_16reverse_iteratorIPS6_EESA_SA_EET2_RT_T0_T1_SB_, symObjAddr: 0x3F280, symBinAddr: 0x10004B688, symSize: 0x12C }
  - { offsetInCU: 0x887A3, offset: 0x9F622, size: 0x8, addend: 0x0, symName: __ZNSt3__14swapB8ue170006IPN5Catch5clara8TextFlow6Column8iteratorEEENS_9enable_ifIXaasr21is_move_constructibleIT_EE5valuesr18is_move_assignableIS8_EE5valueEvE4typeERS8_SB_, symObjAddr: 0x3F3F8, symBinAddr: 0x10004B800, symSize: 0x3C }
  - { offsetInCU: 0x887F4, offset: 0x9F673, size: 0x8, addend: 0x0, symName: __ZNSt3__112__to_addressB8ue170006IN5Catch5clara8TextFlow6Column8iteratorEEEPT_S7_, symObjAddr: 0x3F56C, symBinAddr: 0x10004B974, symSize: 0x14 }
  - { offsetInCU: 0x88829, offset: 0x9F6A8, size: 0x8, addend: 0x0, symName: __ZNSt3__122__make_exception_guardB8ue170006INS_29_AllocatorDestroyRangeReverseINS_9allocatorIN5Catch5clara8TextFlow6Column8iteratorEEENS_16reverse_iteratorIPS7_EEEEEENS_28__exception_guard_exceptionsIT_EESE_, symObjAddr: 0x3F580, symBinAddr: 0x10004B988, symSize: 0x4C }
  - { offsetInCU: 0x8885F, offset: 0x9F6DE, size: 0x8, addend: 0x0, symName: __ZNSt3__1neB8ue170006IPN5Catch5clara8TextFlow6Column8iteratorES6_EEbRKNS_16reverse_iteratorIT_EERKNS7_IT0_EE, symObjAddr: 0x3F610, symBinAddr: 0x10004BA18, symSize: 0x48 }
  - { offsetInCU: 0x888AB, offset: 0x9F72A, size: 0x8, addend: 0x0, symName: __ZNSt3__112__to_addressB8ue170006INS_16reverse_iteratorIPN5Catch5clara8TextFlow6Column8iteratorEEEvEEu7__decayIDTclsr19__to_address_helperIT_EE6__callclsr3stdE7declvalIRKS9_EEEEESB_, symObjAddr: 0x3F68C, symBinAddr: 0x10004BA94, symSize: 0x24 }
  - { offsetInCU: 0x8890B, offset: 0x9F78A, size: 0x8, addend: 0x0, symName: __ZNSt3__119__allocator_destroyB8ue170006INS_9allocatorIN5Catch5clara8TextFlow6Column8iteratorEEENS_16reverse_iteratorINS8_IPS6_EEEESB_EEvRT_T0_T1_, symObjAddr: 0x3F970, symBinAddr: 0x10004BD78, symSize: 0x70 }
  - { offsetInCU: 0x88972, offset: 0x9F7F1, size: 0x8, addend: 0x0, symName: __ZNSt3__1neB8ue170006INS_16reverse_iteratorIPN5Catch5clara8TextFlow6Column8iteratorEEES8_EEbRKNS1_IT_EERKNS1_IT0_EE, symObjAddr: 0x3FA1C, symBinAddr: 0x10004BE24, symSize: 0x60 }
  - { offsetInCU: 0x889BE, offset: 0x9F83D, size: 0x8, addend: 0x0, symName: __ZNSt3__112__to_addressB8ue170006INS_16reverse_iteratorINS1_IPN5Catch5clara8TextFlow6Column8iteratorEEEEEvEEu7__decayIDTclsr19__to_address_helperIT_EE6__callclsr3stdE7declvalIRKSA_EEEEESC_, symObjAddr: 0x3FAA8, symBinAddr: 0x10004BEB0, symSize: 0x24 }
  - { offsetInCU: 0x88A1F, offset: 0x9F89E, size: 0x8, addend: 0x0, symName: __ZNSt3__1eqB8ue170006IPKN5Catch5clara8TextFlow6ColumnEEEbRKNS_11__wrap_iterIT_EESB_, symObjAddr: 0x3FF44, symBinAddr: 0x10004C34C, symSize: 0x48 }
  - { offsetInCU: 0x88A61, offset: 0x9F8E0, size: 0x8, addend: 0x0, symName: __ZNSt3__1neB8ue170006IN5Catch5clara8TextFlow6Column8iteratorENS_9allocatorIS5_EEEEbRKNS_6vectorIT_T0_EESD_, symObjAddr: 0x405B8, symBinAddr: 0x10004C9C0, symSize: 0x34 }
  - { offsetInCU: 0x88AB0, offset: 0x9F92F, size: 0x8, addend: 0x0, symName: __ZNSt3__1eqB8ue170006IN5Catch5clara8TextFlow6Column8iteratorENS_9allocatorIS5_EEEEbRKNS_6vectorIT_T0_EESD_, symObjAddr: 0x405EC, symBinAddr: 0x10004C9F4, symSize: 0x9C }
  - { offsetInCU: 0x88B0F, offset: 0x9F98E, size: 0x8, addend: 0x0, symName: __ZNSt3__15equalB8ue170006INS_11__wrap_iterIPKN5Catch5clara8TextFlow6Column8iteratorEEES9_EEbT_SA_T0_, symObjAddr: 0x40688, symBinAddr: 0x10004CA90, symSize: 0x50 }
  - { offsetInCU: 0x88B69, offset: 0x9F9E8, size: 0x8, addend: 0x0, symName: __ZNSt3__15equalB8ue170006INS_11__wrap_iterIPKN5Catch5clara8TextFlow6Column8iteratorEEES9_NS_10__equal_toEEEbT_SB_T0_T1_, symObjAddr: 0x40738, symBinAddr: 0x10004CB40, symSize: 0x74 }
  - { offsetInCU: 0x88BDA, offset: 0x9FA59, size: 0x8, addend: 0x0, symName: __ZNSt3__117__equal_iter_implB8ue170006IPKN5Catch5clara8TextFlow6Column8iteratorES7_NS_10__equal_toEEEbT_S9_T0_RT1_, symObjAddr: 0x407AC, symBinAddr: 0x10004CBB4, symSize: 0xAC }
  - { offsetInCU: 0x88C4B, offset: 0x9FACA, size: 0x8, addend: 0x0, symName: __ZNSt3__113__unwrap_iterB8ue170006INS_11__wrap_iterIPKN5Catch5clara8TextFlow6Column8iteratorEEENS_18__unwrap_iter_implIS9_Lb1EEELi0EEEDTclsrT0_8__unwrapclsr3stdE7declvalIT_EEEESD_, symObjAddr: 0x40858, symBinAddr: 0x10004CC60, symSize: 0x2C }
  - { offsetInCU: 0x88D81, offset: 0x9FC00, size: 0x8, addend: 0x0, symName: __ZNSt3__112__to_addressB8ue170006INS_11__wrap_iterIPKN5Catch5clara8TextFlow6Column8iteratorEEEvEEu7__decayIDTclsr19__to_address_helperIT_EE6__callclsr3stdE7declvalIRKSA_EEEEESC_, symObjAddr: 0x40970, symBinAddr: 0x10004CD78, symSize: 0x24 }
  - { offsetInCU: 0x88E5E, offset: 0x9FCDD, size: 0x8, addend: 0x0, symName: __ZNSt3__112__to_addressB8ue170006IKN5Catch5clara8TextFlow6Column8iteratorEEEPT_S8_, symObjAddr: 0x409F0, symBinAddr: 0x10004CDF8, symSize: 0x14 }
  - { offsetInCU: 0x88E92, offset: 0x9FD11, size: 0x8, addend: 0x0, symName: __ZNSt3__1plB8ue170006IcNS_11char_traitsIcEENS_9allocatorIcEEEENS_12basic_stringIT_T0_T1_EERKS9_SB_, symObjAddr: 0x40B10, symBinAddr: 0x10004CF18, symSize: 0x134 }
  - { offsetInCU: 0x88F34, offset: 0x9FDB3, size: 0x8, addend: 0x0, symName: __ZNSt3__112__to_addressB8ue170006IcEEPT_S2_, symObjAddr: 0x40CB4, symBinAddr: 0x10004D0BC, symSize: 0x14 }
  - { offsetInCU: 0x88F9C, offset: 0x9FE1B, size: 0x8, addend: 0x0, symName: __ZNSt3__14copyB8ue170006IPKcPcEET0_T_S5_S4_, symObjAddr: 0x414BC, symBinAddr: 0x10004D878, symSize: 0x40 }
  - { offsetInCU: 0x88FF6, offset: 0x9FE75, size: 0x8, addend: 0x0, symName: __ZNSt3__16__copyB8ue170006INS_17_ClassicAlgPolicyEPKcS3_PcEENS_4pairIT0_T2_EES6_T1_S7_, symObjAddr: 0x414FC, symBinAddr: 0x10004D8B8, symSize: 0x44 }
  - { offsetInCU: 0x89062, offset: 0x9FEE1, size: 0x8, addend: 0x0, symName: __ZNSt3__123__dispatch_copy_or_moveB8ue170006INS_17_ClassicAlgPolicyENS_11__copy_loopIS1_EENS_14__copy_trivialEPKcS6_PcEENS_4pairIT2_T4_EES9_T3_SA_, symObjAddr: 0x41540, symBinAddr: 0x10004D8FC, symSize: 0x44 }
  - { offsetInCU: 0x890E0, offset: 0x9FF5F, size: 0x8, addend: 0x0, symName: __ZNSt3__121__unwrap_and_dispatchB8ue170006INS_10__overloadINS_11__copy_loopINS_17_ClassicAlgPolicyEEENS_14__copy_trivialEEEPKcS8_PcLi0EEENS_4pairIT0_T2_EESB_T1_SC_, symObjAddr: 0x41584, symBinAddr: 0x10004D940, symSize: 0xB4 }
  - { offsetInCU: 0x8916F, offset: 0x9FFEE, size: 0x8, addend: 0x0, symName: __ZNSt3__114__unwrap_rangeB8ue170006IPKcS2_EENS_4pairIT0_S4_EET_S6_, symObjAddr: 0x41638, symBinAddr: 0x10004D9F4, symSize: 0x60 }
  - { offsetInCU: 0x89307, offset: 0xA0186, size: 0x8, addend: 0x0, symName: __ZNSt3__113__unwrap_iterB8ue170006IPcNS_18__unwrap_iter_implIS1_Lb1EEELi0EEEDTclsrT0_8__unwrapclsr3stdE7declvalIT_EEEES5_, symObjAddr: 0x416E0, symBinAddr: 0x10004DA9C, symSize: 0x24 }
  - { offsetInCU: 0x8934B, offset: 0xA01CA, size: 0x8, addend: 0x0, symName: __ZNSt3__19make_pairB8ue170006IPKcPcEENS_4pairINS_18__unwrap_ref_decayIT_E4typeENS5_IT0_E4typeEEEOS6_OS9_, symObjAddr: 0x41704, symBinAddr: 0x10004DAC0, symSize: 0x38 }
  - { offsetInCU: 0x8939B, offset: 0xA021A, size: 0x8, addend: 0x0, symName: __ZNSt3__114__rewrap_rangeB8ue170006IPKcS2_EET_S3_T0_, symObjAddr: 0x4173C, symBinAddr: 0x10004DAF8, symSize: 0x2C }
  - { offsetInCU: 0x893E7, offset: 0xA0266, size: 0x8, addend: 0x0, symName: __ZNSt3__113__rewrap_iterB8ue170006IPcS1_NS_18__unwrap_iter_implIS1_Lb1EEEEET_S4_T0_, symObjAddr: 0x41768, symBinAddr: 0x10004DB24, symSize: 0x3C }
  - { offsetInCU: 0x8943B, offset: 0xA02BA, size: 0x8, addend: 0x0, symName: __ZNSt3__19make_pairB8ue170006IPKcS2_EENS_4pairINS_18__unwrap_ref_decayIT_E4typeENS4_IT0_E4typeEEEOS5_OS8_, symObjAddr: 0x417A4, symBinAddr: 0x10004DB60, symSize: 0x38 }
  - { offsetInCU: 0x8948B, offset: 0xA030A, size: 0x8, addend: 0x0, symName: __ZNSt3__113__unwrap_iterB8ue170006IPKcNS_18__unwrap_iter_implIS2_Lb1EEELi0EEEDTclsrT0_8__unwrapclsr3stdE7declvalIT_EEEES6_, symObjAddr: 0x417DC, symBinAddr: 0x10004DB98, symSize: 0x24 }
  - { offsetInCU: 0x89524, offset: 0xA03A3, size: 0x8, addend: 0x0, symName: __ZNSt3__119__copy_trivial_implB8ue170006IKccEENS_4pairIPT_PT0_EES4_S4_S6_, symObjAddr: 0x41894, symBinAddr: 0x10004DC50, symSize: 0x78 }
  - { offsetInCU: 0x8958C, offset: 0xA040B, size: 0x8, addend: 0x0, symName: __ZNSt3__119__constexpr_memmoveB8ue170006IcKcLi0EEEPT_S3_PT0_NS_15__element_countE, symObjAddr: 0x4190C, symBinAddr: 0x10004DCC8, symSize: 0x64 }
  - { offsetInCU: 0x895FA, offset: 0xA0479, size: 0x8, addend: 0x0, symName: __ZNSt3__19make_pairB8ue170006IRPKcPcEENS_4pairINS_18__unwrap_ref_decayIT_E4typeENS6_IT0_E4typeEEEOS7_OSA_, symObjAddr: 0x41970, symBinAddr: 0x10004DD2C, symSize: 0x38 }
  - { offsetInCU: 0x8969E, offset: 0xA051D, size: 0x8, addend: 0x0, symName: __ZNSt3__113__rewrap_iterB8ue170006IPKcS2_NS_18__unwrap_iter_implIS2_Lb1EEEEET_S5_T0_, symObjAddr: 0x41AAC, symBinAddr: 0x10004DE68, symSize: 0x3C }
  - { offsetInCU: 0x896F3, offset: 0xA0572, size: 0x8, addend: 0x0, symName: __ZNSt3__16fill_nB8ue170006IPcmcEET_S2_T0_RKT1_, symObjAddr: 0x41B78, symBinAddr: 0x10004DF34, symSize: 0x44 }
  - { offsetInCU: 0x89756, offset: 0xA05D5, size: 0x8, addend: 0x0, symName: __ZNSt3__18__fill_nB8ue170006IPcmcEET_S2_T0_RKT1_, symObjAddr: 0x41BBC, symBinAddr: 0x10004DF78, symSize: 0x64 }
  - { offsetInCU: 0x897B9, offset: 0xA0638, size: 0x8, addend: 0x0, symName: __ZNSt3__121__convert_to_integralB8ue170006Em, symObjAddr: 0x41C20, symBinAddr: 0x10004DFDC, symSize: 0x14 }
  - { offsetInCU: 0x897E5, offset: 0xA0664, size: 0x8, addend: 0x0, symName: __ZNSt3__112__to_addressB8ue170006IN5Catch5clara8TextFlow6ColumnEEEPT_S6_, symObjAddr: 0x42164, symBinAddr: 0x10004E520, symSize: 0x14 }
  - { offsetInCU: 0x8981A, offset: 0xA0699, size: 0x8, addend: 0x0, symName: __ZNSt3__119__allocate_at_leastB8ue170006INS_9allocatorIN5Catch5clara8TextFlow6ColumnEEEEENS_19__allocation_resultINS_16allocator_traitsIT_E7pointerEEERS9_m, symObjAddr: 0x42780, symBinAddr: 0x10004EB3C, symSize: 0x40 }
  - { offsetInCU: 0x8985C, offset: 0xA06DB, size: 0x8, addend: 0x0, symName: __ZNSt3__142__uninitialized_allocator_move_if_noexceptB8ue170006INS_9allocatorIN5Catch5clara8TextFlow6ColumnEEENS_16reverse_iteratorIPS5_EES9_S9_EET2_RT_T0_T1_SA_, symObjAddr: 0x42A0C, symBinAddr: 0x10004EDC8, symSize: 0x12C }
  - { offsetInCU: 0x898FD, offset: 0xA077C, size: 0x8, addend: 0x0, symName: __ZNSt3__14swapB8ue170006IPN5Catch5clara8TextFlow6ColumnEEENS_9enable_ifIXaasr21is_move_constructibleIT_EE5valuesr18is_move_assignableIS7_EE5valueEvE4typeERS7_SA_, symObjAddr: 0x42B84, symBinAddr: 0x10004EF40, symSize: 0x3C }
  - { offsetInCU: 0x8994E, offset: 0xA07CD, size: 0x8, addend: 0x0, symName: __ZNSt3__122__make_exception_guardB8ue170006INS_29_AllocatorDestroyRangeReverseINS_9allocatorIN5Catch5clara8TextFlow6ColumnEEENS_16reverse_iteratorIPS6_EEEEEENS_28__exception_guard_exceptionsIT_EESD_, symObjAddr: 0x42CD0, symBinAddr: 0x10004F08C, symSize: 0x4C }
  - { offsetInCU: 0x89984, offset: 0xA0803, size: 0x8, addend: 0x0, symName: __ZNSt3__1neB8ue170006IPN5Catch5clara8TextFlow6ColumnES5_EEbRKNS_16reverse_iteratorIT_EERKNS6_IT0_EE, symObjAddr: 0x42D60, symBinAddr: 0x10004F11C, symSize: 0x48 }
  - { offsetInCU: 0x899D0, offset: 0xA084F, size: 0x8, addend: 0x0, symName: __ZNSt3__112__to_addressB8ue170006INS_16reverse_iteratorIPN5Catch5clara8TextFlow6ColumnEEEvEEu7__decayIDTclsr19__to_address_helperIT_EE6__callclsr3stdE7declvalIRKS8_EEEEESA_, symObjAddr: 0x42DDC, symBinAddr: 0x10004F198, symSize: 0x24 }
  - { offsetInCU: 0x89A30, offset: 0xA08AF, size: 0x8, addend: 0x0, symName: __ZNSt3__119__allocator_destroyB8ue170006INS_9allocatorIN5Catch5clara8TextFlow6ColumnEEENS_16reverse_iteratorINS7_IPS5_EEEESA_EEvRT_T0_T1_, symObjAddr: 0x433A4, symBinAddr: 0x10004F760, symSize: 0x70 }
  - { offsetInCU: 0x89A97, offset: 0xA0916, size: 0x8, addend: 0x0, symName: __ZNSt3__1neB8ue170006INS_16reverse_iteratorIPN5Catch5clara8TextFlow6ColumnEEES7_EEbRKNS1_IT_EERKNS1_IT0_EE, symObjAddr: 0x43450, symBinAddr: 0x10004F80C, symSize: 0x60 }
  - { offsetInCU: 0x89AE3, offset: 0xA0962, size: 0x8, addend: 0x0, symName: __ZNSt3__112__to_addressB8ue170006INS_16reverse_iteratorINS1_IPN5Catch5clara8TextFlow6ColumnEEEEEvEEu7__decayIDTclsr19__to_address_helperIT_EE6__callclsr3stdE7declvalIRKS9_EEEEESB_, symObjAddr: 0x434DC, symBinAddr: 0x10004F898, symSize: 0x24 }
  - { offsetInCU: 0x89B43, offset: 0xA09C2, size: 0x8, addend: 0x0, symName: __ZNSt3__1neB8ue170006ERKNS_16__deque_iteratorIcPcRcPS1_lLl4096EEES6_, symObjAddr: 0x444EC, symBinAddr: 0x10005087C, symSize: 0x34 }
  - { offsetInCU: 0x89B80, offset: 0xA09FF, size: 0x8, addend: 0x0, symName: __ZNSt3__1eqB8ue170006ERKNS_16__deque_iteratorIcPcRcPS1_lLl4096EEES6_, symObjAddr: 0x44830, symBinAddr: 0x100050BC0, symSize: 0x30 }
  - { offsetInCU: 0x89BBF, offset: 0xA0A3E, size: 0x8, addend: 0x0, symName: __ZNSt3__112__to_addressB8ue170006IPcEEPT_S3_, symObjAddr: 0x45250, symBinAddr: 0x1000515E0, symSize: 0x14 }
  - { offsetInCU: 0x89BF4, offset: 0xA0A73, size: 0x8, addend: 0x0, symName: __ZNSt3__112__to_addressB8ue170006INS_10shared_ptrIN5Catch16TestCaseTracking8ITrackerEEEEEPT_S7_, symObjAddr: 0x457EC, symBinAddr: 0x100051B7C, symSize: 0x14 }
  - { offsetInCU: 0x89C28, offset: 0xA0AA7, size: 0x8, addend: 0x0, symName: __ZNSt3__119static_pointer_castB8ue170006IN5Catch10Generators16GeneratorTrackerENS1_16TestCaseTracking8ITrackerEEENS_10shared_ptrIT_EERKNS6_IT0_EE, symObjAddr: 0x45A70, symBinAddr: 0x100051E00, symSize: 0x44 }
  - { offsetInCU: 0x89C68, offset: 0xA0AE7, size: 0x8, addend: 0x0, symName: __ZNSt3__111make_sharedB8ue170006IN5Catch10Generators16GeneratorTrackerEJRKNS1_16TestCaseTracking15NameAndLocationERNS4_14TrackerContextEPNS4_8ITrackerEEvEENS_10shared_ptrIT_EEDpOT0_, symObjAddr: 0x45B30, symBinAddr: 0x100051EC0, symSize: 0x50 }
  - { offsetInCU: 0x89CD9, offset: 0xA0B58, size: 0x8, addend: 0x0, symName: __ZNSt3__14swapB8ue170006IPN5Catch10Generators16GeneratorTrackerEEENS_9enable_ifIXaasr21is_move_constructibleIT_EE5valuesr18is_move_assignableIS6_EE5valueEvE4typeERS6_S9_, symObjAddr: 0x45D98, symBinAddr: 0x100052128, symSize: 0x3C }
  - { offsetInCU: 0x89D29, offset: 0xA0BA8, size: 0x8, addend: 0x0, symName: __ZNSt3__115allocate_sharedB8ue170006IN5Catch10Generators16GeneratorTrackerENS_9allocatorIS3_EEJRKNS1_16TestCaseTracking15NameAndLocationERNS6_14TrackerContextEPNS6_8ITrackerEEvEENS_10shared_ptrIT_EERKT0_DpOT1_, symObjAddr: 0x45E28, symBinAddr: 0x1000521B8, symSize: 0xA8 }
  - { offsetInCU: 0x8A104, offset: 0xA0F83, size: 0x8, addend: 0x0, symName: __ZNSt3__1eqB8ue170006IPKSt13exception_ptrEEbRKNS_11__wrap_iterIT_EES8_, symObjAddr: 0x46FA8, symBinAddr: 0x100053338, symSize: 0x48 }
  - { offsetInCU: 0x8A147, offset: 0xA0FC6, size: 0x8, addend: 0x0, symName: __ZNSt3__14swapB8ue170006IPNS_12basic_stringIcNS_11char_traitsIcEENS_9allocatorIcEEEEEENS_9enable_ifIXaasr21is_move_constructibleIT_EE5valuesr18is_move_assignableIS9_EE5valueEvE4typeERS9_SC_, symObjAddr: 0x47270, symBinAddr: 0x100053600, symSize: 0x3C }
  - { offsetInCU: 0x8A198, offset: 0xA1017, size: 0x8, addend: 0x0, symName: __ZNSt3__1neB8ue170006IPN5Catch5clara6detail11HelpColumnsEEEbRKNS_11__wrap_iterIT_EESA_, symObjAddr: 0x48134, symBinAddr: 0x1000544C4, symSize: 0x34 }
  - { offsetInCU: 0x8A1DB, offset: 0xA105A, size: 0x8, addend: 0x0, symName: __ZNSt3__122__make_exception_guardB8ue170006INS_6vectorIN5Catch5clara6detail11HelpColumnsENS_9allocatorIS5_EEE16__destroy_vectorEEENS_28__exception_guard_exceptionsIT_EESB_, symObjAddr: 0x48C88, symBinAddr: 0x100055010, symSize: 0x40 }
  - { offsetInCU: 0x8A210, offset: 0xA108F, size: 0x8, addend: 0x0, symName: __ZNSt3__119__allocate_at_leastB8ue170006INS_9allocatorIN5Catch5clara6detail11HelpColumnsEEEEENS_19__allocation_resultINS_16allocator_traitsIT_E7pointerEEERS9_m, symObjAddr: 0x48FD0, symBinAddr: 0x100055358, symSize: 0x40 }
  - { offsetInCU: 0x8A253, offset: 0xA10D2, size: 0x8, addend: 0x0, symName: __ZNSt3__112__to_addressB8ue170006IN5Catch5clara6detail11HelpColumnsEEEPT_S6_, symObjAddr: 0x49318, symBinAddr: 0x1000556A0, symSize: 0x14 }
  - { offsetInCU: 0x8A287, offset: 0xA1106, size: 0x8, addend: 0x0, symName: __ZNSt3__130__uninitialized_allocator_copyB8ue170006INS_9allocatorIN5Catch5clara6detail11HelpColumnsEEEPKS5_S8_PS5_EET2_RT_T0_T1_SA_, symObjAddr: 0x493C8, symBinAddr: 0x100055750, symSize: 0x80 }
  - { offsetInCU: 0x8A325, offset: 0xA11A4, size: 0x8, addend: 0x0, symName: __ZNSt3__114__unwrap_rangeB8ue170006IPKN5Catch5clara6detail11HelpColumnsES6_EENS_4pairIT0_S8_EET_SA_, symObjAddr: 0x494C0, symBinAddr: 0x100055848, symSize: 0x60 }
  - { offsetInCU: 0x8A370, offset: 0xA11EF, size: 0x8, addend: 0x0, symName: __ZNSt3__135__uninitialized_allocator_copy_implB8ue170006INS_9allocatorIN5Catch5clara6detail11HelpColumnsEEEPKS5_S8_PS5_EET2_RT_T0_T1_SA_, symObjAddr: 0x49520, symBinAddr: 0x1000558A8, symSize: 0xF4 }
  - { offsetInCU: 0x8A40F, offset: 0xA128E, size: 0x8, addend: 0x0, symName: __ZNSt3__113__unwrap_iterB8ue170006IPN5Catch5clara6detail11HelpColumnsENS_18__unwrap_iter_implIS5_Lb1EEELi0EEEDTclsrT0_8__unwrapclsr3stdE7declvalIT_EEEES9_, symObjAddr: 0x49614, symBinAddr: 0x10005599C, symSize: 0x24 }
  - { offsetInCU: 0x8A454, offset: 0xA12D3, size: 0x8, addend: 0x0, symName: __ZNSt3__113__rewrap_iterB8ue170006IPN5Catch5clara6detail11HelpColumnsES5_NS_18__unwrap_iter_implIS5_Lb1EEEEET_S8_T0_, symObjAddr: 0x49638, symBinAddr: 0x1000559C0, symSize: 0x3C }
  - { offsetInCU: 0x8A4A8, offset: 0xA1327, size: 0x8, addend: 0x0, symName: __ZNSt3__19make_pairB8ue170006IPKN5Catch5clara6detail11HelpColumnsES6_EENS_4pairINS_18__unwrap_ref_decayIT_E4typeENS8_IT0_E4typeEEEOS9_OSC_, symObjAddr: 0x49674, symBinAddr: 0x1000559FC, symSize: 0x38 }
  - { offsetInCU: 0x8A4F8, offset: 0xA1377, size: 0x8, addend: 0x0, symName: __ZNSt3__113__unwrap_iterB8ue170006IPKN5Catch5clara6detail11HelpColumnsENS_18__unwrap_iter_implIS6_Lb1EEELi0EEEDTclsrT0_8__unwrapclsr3stdE7declvalIT_EEEESA_, symObjAddr: 0x496AC, symBinAddr: 0x100055A34, symSize: 0x24 }
  - { offsetInCU: 0x8A666, offset: 0xA14E5, size: 0x8, addend: 0x0, symName: __ZNSt3__112__to_addressB8ue170006IKN5Catch5clara6detail11HelpColumnsEEEPT_S7_, symObjAddr: 0x49764, symBinAddr: 0x100055AEC, symSize: 0x14 }
  - { offsetInCU: 0x8A69B, offset: 0xA151A, size: 0x8, addend: 0x0, symName: __ZNSt3__122__make_exception_guardB8ue170006INS_29_AllocatorDestroyRangeReverseINS_9allocatorIN5Catch5clara6detail11HelpColumnsEEEPS6_EEEENS_28__exception_guard_exceptionsIT_EESB_, symObjAddr: 0x49778, symBinAddr: 0x100055B00, symSize: 0x4C }
  - { offsetInCU: 0x8A6D0, offset: 0xA154F, size: 0x8, addend: 0x0, symName: __ZNSt3__119__allocator_destroyB8ue170006INS_9allocatorIN5Catch5clara6detail11HelpColumnsEEENS_16reverse_iteratorIPS5_EES9_EEvRT_T0_T1_, symObjAddr: 0x49AAC, symBinAddr: 0x100055E34, symSize: 0x70 }
  - { offsetInCU: 0x8A735, offset: 0xA15B4, size: 0x8, addend: 0x0, symName: __ZNSt3__1neB8ue170006IPN5Catch5clara6detail11HelpColumnsES5_EEbRKNS_16reverse_iteratorIT_EERKNS6_IT0_EE, symObjAddr: 0x49B50, symBinAddr: 0x100055ED8, symSize: 0x48 }
  - { offsetInCU: 0x8A781, offset: 0xA1600, size: 0x8, addend: 0x0, symName: __ZNSt3__112__to_addressB8ue170006INS_16reverse_iteratorIPN5Catch5clara6detail11HelpColumnsEEEvEEu7__decayIDTclsr19__to_address_helperIT_EE6__callclsr3stdE7declvalIRKS8_EEEEESA_, symObjAddr: 0x49BC4, symBinAddr: 0x100055F4C, symSize: 0x24 }
  - { offsetInCU: 0x8A836, offset: 0xA16B5, size: 0x8, addend: 0x0, symName: __ZNSt3__18distanceB8ue170006INS_11__wrap_iterIPN5Catch5clara6detail11HelpColumnsEEEEENS_15iterator_traitsIT_E15difference_typeES9_S9_, symObjAddr: 0x4A4B8, symBinAddr: 0x100056840, symSize: 0x3C }
  - { offsetInCU: 0x8A879, offset: 0xA16F8, size: 0x8, addend: 0x0, symName: __ZNSt3__1miB8ue170006IPKN5Catch5clara6detail11HelpColumnsEPS4_EEDTmicldtfp_4baseEcldtfp0_4baseEERKNS_11__wrap_iterIT_EERKNS9_IT0_EE, symObjAddr: 0x4A4F4, symBinAddr: 0x10005687C, symSize: 0x48 }
  - { offsetInCU: 0x8A8C5, offset: 0xA1744, size: 0x8, addend: 0x0, symName: __ZNSt3__14nextB8ue170006INS_11__wrap_iterIPN5Catch5clara6detail11HelpColumnsEEEEENS_9enable_ifIXsr29__has_input_iterator_categoryIT_EE5valueES9_E4typeES9_NS_15iterator_traitsIS9_E15difference_typeE, symObjAddr: 0x4A53C, symBinAddr: 0x1000568C4, symSize: 0x3C }
  - { offsetInCU: 0x8A908, offset: 0xA1787, size: 0x8, addend: 0x0, symName: __ZNSt3__14copyB8ue170006INS_11__wrap_iterIPN5Catch5clara6detail11HelpColumnsEEES6_EET0_T_S9_S8_, symObjAddr: 0x4A788, symBinAddr: 0x100056B10, symSize: 0x50 }
  - { offsetInCU: 0x8A962, offset: 0xA17E1, size: 0x8, addend: 0x0, symName: __ZNSt3__121__convert_to_integralB8ue170006El, symObjAddr: 0x4AB78, symBinAddr: 0x100056F00, symSize: 0x14 }
  - { offsetInCU: 0x8A98E, offset: 0xA180D, size: 0x8, addend: 0x0, symName: __ZNSt3__19__advanceB8ue170006INS_11__wrap_iterIPN5Catch5clara6detail11HelpColumnsEEEEEvRT_NS_15iterator_traitsIS8_E15difference_typeENS_26random_access_iterator_tagE, symObjAddr: 0x4AB8C, symBinAddr: 0x100056F14, symSize: 0x2C }
  - { offsetInCU: 0x8A9D7, offset: 0xA1856, size: 0x8, addend: 0x0, symName: __ZNSt3__130__uninitialized_allocator_copyB8ue170006INS_9allocatorIN5Catch5clara6detail11HelpColumnsEEENS_11__wrap_iterIPS5_EES9_S8_EET2_RT_T0_T1_SA_, symObjAddr: 0x4ABE8, symBinAddr: 0x100056F70, symSize: 0x90 }
  - { offsetInCU: 0x8AA75, offset: 0xA18F4, size: 0x8, addend: 0x0, symName: __ZNSt3__114__unwrap_rangeB8ue170006INS_11__wrap_iterIPN5Catch5clara6detail11HelpColumnsEEES6_EENS_4pairIT0_S9_EET_SB_, symObjAddr: 0x4AC78, symBinAddr: 0x100057000, symSize: 0x70 }
  - { offsetInCU: 0x8AAC0, offset: 0xA193F, size: 0x8, addend: 0x0, symName: __ZNSt3__135__uninitialized_allocator_copy_implB8ue170006INS_9allocatorIN5Catch5clara6detail11HelpColumnsEEEPS5_S7_S7_EET2_RT_T0_T1_S8_, symObjAddr: 0x4ACE8, symBinAddr: 0x100057070, symSize: 0xF4 }
  - { offsetInCU: 0x8AB5E, offset: 0xA19DD, size: 0x8, addend: 0x0, symName: __ZNSt3__19make_pairB8ue170006IPN5Catch5clara6detail11HelpColumnsES5_EENS_4pairINS_18__unwrap_ref_decayIT_E4typeENS7_IT0_E4typeEEEOS8_OSB_, symObjAddr: 0x4ADDC, symBinAddr: 0x100057164, symSize: 0x38 }
  - { offsetInCU: 0x8ABAE, offset: 0xA1A2D, size: 0x8, addend: 0x0, symName: __ZNSt3__113__unwrap_iterB8ue170006INS_11__wrap_iterIPN5Catch5clara6detail11HelpColumnsEEENS_18__unwrap_iter_implIS7_Lb1EEELi0EEEDTclsrT0_8__unwrapclsr3stdE7declvalIT_EEEESB_, symObjAddr: 0x4AE14, symBinAddr: 0x10005719C, symSize: 0x2C }
  - { offsetInCU: 0x8AD1C, offset: 0xA1B9B, size: 0x8, addend: 0x0, symName: __ZNSt3__112__to_addressB8ue170006INS_11__wrap_iterIPN5Catch5clara6detail11HelpColumnsEEEvEEu7__decayIDTclsr19__to_address_helperIT_EE6__callclsr3stdE7declvalIRKS8_EEEEESA_, symObjAddr: 0x4AED8, symBinAddr: 0x100057260, symSize: 0x24 }
  - { offsetInCU: 0x8ADF9, offset: 0xA1C78, size: 0x8, addend: 0x0, symName: __ZNSt3__113move_backwardB8ue170006IPN5Catch5clara6detail11HelpColumnsES5_EET0_T_S7_S6_, symObjAddr: 0x4AFF0, symBinAddr: 0x100057378, symSize: 0x40 }
  - { offsetInCU: 0x8AE53, offset: 0xA1CD2, size: 0x8, addend: 0x0, symName: __ZNSt3__115__move_backwardB8ue170006INS_17_ClassicAlgPolicyEPN5Catch5clara6detail11HelpColumnsES6_S6_EENS_4pairIT0_T2_EES8_T1_S9_, symObjAddr: 0x4B0DC, symBinAddr: 0x100057464, symSize: 0x44 }
  - { offsetInCU: 0x8AEBF, offset: 0xA1D3E, size: 0x8, addend: 0x0, symName: __ZNSt3__123__dispatch_copy_or_moveB8ue170006INS_17_ClassicAlgPolicyENS_20__move_backward_loopIS1_EENS_23__move_backward_trivialEPN5Catch5clara6detail11HelpColumnsES9_S9_EENS_4pairIT2_T4_EESB_T3_SC_, symObjAddr: 0x4B120, symBinAddr: 0x1000574A8, symSize: 0x44 }
  - { offsetInCU: 0x8AF3D, offset: 0xA1DBC, size: 0x8, addend: 0x0, symName: __ZNSt3__121__unwrap_and_dispatchB8ue170006INS_10__overloadINS_20__move_backward_loopINS_17_ClassicAlgPolicyEEENS_23__move_backward_trivialEEEPN5Catch5clara6detail11HelpColumnsESB_SB_Li0EEENS_4pairIT0_T2_EESD_T1_SE_, symObjAddr: 0x4B164, symBinAddr: 0x1000574EC, symSize: 0xB4 }
  - { offsetInCU: 0x8AFCC, offset: 0xA1E4B, size: 0x8, addend: 0x0, symName: __ZNSt3__114__unwrap_rangeB8ue170006IPN5Catch5clara6detail11HelpColumnsES5_EENS_4pairIT0_S7_EET_S9_, symObjAddr: 0x4B218, symBinAddr: 0x1000575A0, symSize: 0x60 }
  - { offsetInCU: 0x8B0A9, offset: 0xA1F28, size: 0x8, addend: 0x0, symName: __ZNSt3__114__rewrap_rangeB8ue170006IPN5Catch5clara6detail11HelpColumnsES5_EET_S6_T0_, symObjAddr: 0x4B31C, symBinAddr: 0x1000576A4, symSize: 0x2C }
  - { offsetInCU: 0x8B11A, offset: 0xA1F99, size: 0x8, addend: 0x0, symName: __ZNSt3__16__copyB8ue170006INS_17_ClassicAlgPolicyENS_11__wrap_iterIPN5Catch5clara6detail11HelpColumnsEEES8_S7_EENS_4pairIT0_T2_EESA_T1_SB_, symObjAddr: 0x4B3D4, symBinAddr: 0x10005775C, symSize: 0x54 }
  - { offsetInCU: 0x8B186, offset: 0xA2005, size: 0x8, addend: 0x0, symName: __ZNSt3__123__dispatch_copy_or_moveB8ue170006INS_17_ClassicAlgPolicyENS_11__copy_loopIS1_EENS_14__copy_trivialENS_11__wrap_iterIPN5Catch5clara6detail11HelpColumnsEEESB_SA_EENS_4pairIT2_T4_EESD_T3_SE_, symObjAddr: 0x4B428, symBinAddr: 0x1000577B0, symSize: 0x54 }
  - { offsetInCU: 0x8B204, offset: 0xA2083, size: 0x8, addend: 0x0, symName: __ZNSt3__121__unwrap_and_dispatchB8ue170006INS_10__overloadINS_11__copy_loopINS_17_ClassicAlgPolicyEEENS_14__copy_trivialEEENS_11__wrap_iterIPN5Catch5clara6detail11HelpColumnsEEESD_SC_Li0EEENS_4pairIT0_T2_EESF_T1_SG_, symObjAddr: 0x4B47C, symBinAddr: 0x100057804, symSize: 0xCC }
  - { offsetInCU: 0x8B45E, offset: 0xA22DD, size: 0x8, addend: 0x0, symName: __ZNSt3__19make_pairB8ue170006INS_11__wrap_iterIPN5Catch5clara6detail11HelpColumnsEEES6_EENS_4pairINS_18__unwrap_ref_decayIT_E4typeENS9_IT0_E4typeEEEOSA_OSD_, symObjAddr: 0x4B5D0, symBinAddr: 0x100057958, symSize: 0x38 }
  - { offsetInCU: 0x8B4AE, offset: 0xA232D, size: 0x8, addend: 0x0, symName: __ZNSt3__114__rewrap_rangeB8ue170006INS_11__wrap_iterIPN5Catch5clara6detail11HelpColumnsEEES6_EET_S8_T0_, symObjAddr: 0x4B608, symBinAddr: 0x100057990, symSize: 0x3C }
  - { offsetInCU: 0x8B5CF, offset: 0xA244E, size: 0x8, addend: 0x0, symName: __ZNSt3__113__rewrap_iterB8ue170006INS_11__wrap_iterIPN5Catch5clara6detail11HelpColumnsEEES6_NS_18__unwrap_iter_implIS7_Lb1EEEEET_SA_T0_, symObjAddr: 0x4B6FC, symBinAddr: 0x100057A84, symSize: 0x4C }
  - { offsetInCU: 0x8B623, offset: 0xA24A2, size: 0x8, addend: 0x0, symName: __ZNSt3__142__uninitialized_allocator_move_if_noexceptB8ue170006INS_9allocatorIN5Catch5clara6detail11HelpColumnsEEENS_16reverse_iteratorIPS5_EES9_S9_EET2_RT_T0_T1_SA_, symObjAddr: 0x4BAEC, symBinAddr: 0x100057E74, symSize: 0x11C }
  - { offsetInCU: 0x8B6C3, offset: 0xA2542, size: 0x8, addend: 0x0, symName: __ZNSt3__142__uninitialized_allocator_move_if_noexceptB8ue170006INS_9allocatorIN5Catch5clara6detail11HelpColumnsEEEPS5_S7_S7_EET2_RT_T0_T1_S8_, symObjAddr: 0x4BC08, symBinAddr: 0x100057F90, symSize: 0xF4 }
  - { offsetInCU: 0x8B762, offset: 0xA25E1, size: 0x8, addend: 0x0, symName: __ZNSt3__14swapB8ue170006IPN5Catch5clara6detail11HelpColumnsEEENS_9enable_ifIXaasr21is_move_constructibleIT_EE5valuesr18is_move_assignableIS7_EE5valueEvE4typeERS7_SA_, symObjAddr: 0x4BCFC, symBinAddr: 0x100058084, symSize: 0x3C }
  - { offsetInCU: 0x8B7B3, offset: 0xA2632, size: 0x8, addend: 0x0, symName: __ZNSt3__122__make_exception_guardB8ue170006INS_29_AllocatorDestroyRangeReverseINS_9allocatorIN5Catch5clara6detail11HelpColumnsEEENS_16reverse_iteratorIPS6_EEEEEENS_28__exception_guard_exceptionsIT_EESD_, symObjAddr: 0x4BD38, symBinAddr: 0x1000580C0, symSize: 0x4C }
  - { offsetInCU: 0x8B7E8, offset: 0xA2667, size: 0x8, addend: 0x0, symName: __ZNSt3__119__allocator_destroyB8ue170006INS_9allocatorIN5Catch5clara6detail11HelpColumnsEEENS_16reverse_iteratorINS7_IPS5_EEEESA_EEvRT_T0_T1_, symObjAddr: 0x4BFB0, symBinAddr: 0x100058338, symSize: 0x70 }
  - { offsetInCU: 0x8B84F, offset: 0xA26CE, size: 0x8, addend: 0x0, symName: __ZNSt3__1neB8ue170006INS_16reverse_iteratorIPN5Catch5clara6detail11HelpColumnsEEES7_EEbRKNS1_IT_EERKNS1_IT0_EE, symObjAddr: 0x4C05C, symBinAddr: 0x1000583E4, symSize: 0x60 }
  - { offsetInCU: 0x8B89B, offset: 0xA271A, size: 0x8, addend: 0x0, symName: __ZNSt3__112__to_addressB8ue170006INS_16reverse_iteratorINS1_IPN5Catch5clara6detail11HelpColumnsEEEEEvEEu7__decayIDTclsr19__to_address_helperIT_EE6__callclsr3stdE7declvalIRKS9_EEEEESB_, symObjAddr: 0x4C0BC, symBinAddr: 0x100058444, symSize: 0x24 }
  - { offsetInCU: 0x8B8FC, offset: 0xA277B, size: 0x8, addend: 0x0, symName: __ZNSt3__110__distanceB8ue170006INS_11__wrap_iterIPN5Catch5clara6detail11HelpColumnsEEEEENS_15iterator_traitsIT_E15difference_typeES9_S9_NS_26random_access_iterator_tagE, symObjAddr: 0x4C450, symBinAddr: 0x1000587D8, symSize: 0x30 }
  - { offsetInCU: 0x8B949, offset: 0xA27C8, size: 0x8, addend: 0x0, symName: __ZNSt3__1miB8ue170006IPN5Catch5clara6detail11HelpColumnsES5_EEDTmicldtfp_4baseEcldtfp0_4baseEERKNS_11__wrap_iterIT_EERKNS7_IT0_EE, symObjAddr: 0x4C480, symBinAddr: 0x100058808, symSize: 0x48 }
  - { offsetInCU: 0x8B995, offset: 0xA2814, size: 0x8, addend: 0x0, symName: __ZNSt3__1eqB8ue170006IPN5Catch5clara6detail11HelpColumnsEEEbRKNS_11__wrap_iterIT_EESA_, symObjAddr: 0x4C508, symBinAddr: 0x100058890, symSize: 0x48 }
  - { offsetInCU: 0x8B9D8, offset: 0xA2857, size: 0x8, addend: 0x0, symName: __ZNSt3__122__make_exception_guardB8ue170006INS_6vectorIN5Catch5clara8TextFlow6ColumnENS_9allocatorIS5_EEE16__destroy_vectorEEENS_28__exception_guard_exceptionsIT_EESB_, symObjAddr: 0x4C884, symBinAddr: 0x100058C0C, symSize: 0x40 }
  - { offsetInCU: 0x8BA0C, offset: 0xA288B, size: 0x8, addend: 0x0, symName: __ZNSt3__130__uninitialized_allocator_copyB8ue170006INS_9allocatorIN5Catch5clara8TextFlow6ColumnEEEPS5_S7_S7_EET2_RT_T0_T1_S8_, symObjAddr: 0x4CAA4, symBinAddr: 0x100058E2C, symSize: 0x80 }
  - { offsetInCU: 0x8BAAA, offset: 0xA2929, size: 0x8, addend: 0x0, symName: __ZNSt3__114__unwrap_rangeB8ue170006IPN5Catch5clara8TextFlow6ColumnES5_EENS_4pairIT0_S7_EET_S9_, symObjAddr: 0x4CB24, symBinAddr: 0x100058EAC, symSize: 0x60 }
  - { offsetInCU: 0x8BAF5, offset: 0xA2974, size: 0x8, addend: 0x0, symName: __ZNSt3__135__uninitialized_allocator_copy_implB8ue170006INS_9allocatorIN5Catch5clara8TextFlow6ColumnEEEPS5_S7_S7_EET2_RT_T0_T1_S8_, symObjAddr: 0x4CB84, symBinAddr: 0x100058F0C, symSize: 0xF4 }
  - { offsetInCU: 0x8BB94, offset: 0xA2A13, size: 0x8, addend: 0x0, symName: __ZNSt3__113__unwrap_iterB8ue170006IPN5Catch5clara8TextFlow6ColumnENS_18__unwrap_iter_implIS5_Lb1EEELi0EEEDTclsrT0_8__unwrapclsr3stdE7declvalIT_EEEES9_, symObjAddr: 0x4CC78, symBinAddr: 0x100059000, symSize: 0x24 }
  - { offsetInCU: 0x8BBD9, offset: 0xA2A58, size: 0x8, addend: 0x0, symName: __ZNSt3__113__rewrap_iterB8ue170006IPN5Catch5clara8TextFlow6ColumnES5_NS_18__unwrap_iter_implIS5_Lb1EEEEET_S8_T0_, symObjAddr: 0x4CC9C, symBinAddr: 0x100059024, symSize: 0x3C }
  - { offsetInCU: 0x8BC2D, offset: 0xA2AAC, size: 0x8, addend: 0x0, symName: __ZNSt3__19make_pairB8ue170006IPN5Catch5clara8TextFlow6ColumnES5_EENS_4pairINS_18__unwrap_ref_decayIT_E4typeENS7_IT0_E4typeEEEOS8_OSB_, symObjAddr: 0x4CCD8, symBinAddr: 0x100059060, symSize: 0x38 }
  - { offsetInCU: 0x8BD52, offset: 0xA2BD1, size: 0x8, addend: 0x0, symName: __ZNSt3__122__make_exception_guardB8ue170006INS_29_AllocatorDestroyRangeReverseINS_9allocatorIN5Catch5clara8TextFlow6ColumnEEEPS6_EEEENS_28__exception_guard_exceptionsIT_EESB_, symObjAddr: 0x4CD80, symBinAddr: 0x100059108, symSize: 0x4C }
  - { offsetInCU: 0x8BD87, offset: 0xA2C06, size: 0x8, addend: 0x0, symName: __ZNSt3__119__allocator_destroyB8ue170006INS_9allocatorIN5Catch5clara8TextFlow6ColumnEEENS_16reverse_iteratorIPS5_EES9_EEvRT_T0_T1_, symObjAddr: 0x4D010, symBinAddr: 0x100059398, symSize: 0x70 }
  - { offsetInCU: 0x8BE40, offset: 0xA2CBF, size: 0x8, addend: 0x0, symName: __ZNSt3__18distanceB8ue170006IPKPKcEENS_15iterator_traitsIT_E15difference_typeES6_S6_, symObjAddr: 0x4D654, symBinAddr: 0x1000599DC, symSize: 0x2C }
  - { offsetInCU: 0x8BE83, offset: 0xA2D02, size: 0x8, addend: 0x0, symName: __ZNSt3__110__distanceB8ue170006IPKPKcEENS_15iterator_traitsIT_E15difference_typeES6_S6_NS_26random_access_iterator_tagE, symObjAddr: 0x4D7A4, symBinAddr: 0x100059B2C, symSize: 0x28 }
  - { offsetInCU: 0x8BED0, offset: 0xA2D4F, size: 0x8, addend: 0x0, symName: __ZNSt3__122__make_exception_guardB8ue170006INS_6vectorINS_12basic_stringIcNS_11char_traitsIcEENS_9allocatorIcEEEENS5_IS7_EEE16__destroy_vectorEEENS_28__exception_guard_exceptionsIT_EESC_, symObjAddr: 0x4D7CC, symBinAddr: 0x100059B54, symSize: 0x40 }
  - { offsetInCU: 0x8BF05, offset: 0xA2D84, size: 0x8, addend: 0x0, symName: __ZNSt3__119__allocate_at_leastB8ue170006INS_9allocatorINS_12basic_stringIcNS_11char_traitsIcEENS1_IcEEEEEEEENS_19__allocation_resultINS_16allocator_traitsIT_E7pointerEEERSA_m, symObjAddr: 0x4DABC, symBinAddr: 0x100059E44, symSize: 0x40 }
  - { offsetInCU: 0x8BF48, offset: 0xA2DC7, size: 0x8, addend: 0x0, symName: __ZNSt3__112__to_addressB8ue170006INS_12basic_stringIcNS_11char_traitsIcEENS_9allocatorIcEEEEEEPT_S8_, symObjAddr: 0x4DD44, symBinAddr: 0x10005A0CC, symSize: 0x14 }
  - { offsetInCU: 0x8BF7C, offset: 0xA2DFB, size: 0x8, addend: 0x0, symName: __ZNSt3__130__uninitialized_allocator_copyB8ue170006INS_9allocatorINS_12basic_stringIcNS_11char_traitsIcEENS1_IcEEEEEEPKPKcSB_PS6_EET2_RT_T0_T1_SD_, symObjAddr: 0x4DDF4, symBinAddr: 0x10005A17C, symSize: 0x80 }
  - { offsetInCU: 0x8C01A, offset: 0xA2E99, size: 0x8, addend: 0x0, symName: __ZNSt3__114__unwrap_rangeB8ue170006IPKPKcS4_EENS_4pairIT0_S6_EET_S8_, symObjAddr: 0x4DEEC, symBinAddr: 0x10005A274, symSize: 0x60 }
  - { offsetInCU: 0x8C065, offset: 0xA2EE4, size: 0x8, addend: 0x0, symName: __ZNSt3__135__uninitialized_allocator_copy_implB8ue170006INS_9allocatorINS_12basic_stringIcNS_11char_traitsIcEENS1_IcEEEEEEPKPKcSB_PS6_EET2_RT_T0_T1_SD_, symObjAddr: 0x4DF4C, symBinAddr: 0x10005A2D4, symSize: 0xF4 }
  - { offsetInCU: 0x8C104, offset: 0xA2F83, size: 0x8, addend: 0x0, symName: __ZNSt3__113__unwrap_iterB8ue170006IPNS_12basic_stringIcNS_11char_traitsIcEENS_9allocatorIcEEEENS_18__unwrap_iter_implIS7_Lb1EEELi0EEEDTclsrT0_8__unwrapclsr3stdE7declvalIT_EEEESB_, symObjAddr: 0x4E040, symBinAddr: 0x10005A3C8, symSize: 0x24 }
  - { offsetInCU: 0x8C149, offset: 0xA2FC8, size: 0x8, addend: 0x0, symName: __ZNSt3__113__rewrap_iterB8ue170006IPNS_12basic_stringIcNS_11char_traitsIcEENS_9allocatorIcEEEES7_NS_18__unwrap_iter_implIS7_Lb1EEEEET_SA_T0_, symObjAddr: 0x4E064, symBinAddr: 0x10005A3EC, symSize: 0x3C }
  - { offsetInCU: 0x8C19D, offset: 0xA301C, size: 0x8, addend: 0x0, symName: __ZNSt3__19make_pairB8ue170006IPKPKcS4_EENS_4pairINS_18__unwrap_ref_decayIT_E4typeENS6_IT0_E4typeEEEOS7_OSA_, symObjAddr: 0x4E0A0, symBinAddr: 0x10005A428, symSize: 0x38 }
  - { offsetInCU: 0x8C1ED, offset: 0xA306C, size: 0x8, addend: 0x0, symName: __ZNSt3__113__unwrap_iterB8ue170006IPKPKcNS_18__unwrap_iter_implIS4_Lb1EEELi0EEEDTclsrT0_8__unwrapclsr3stdE7declvalIT_EEEES8_, symObjAddr: 0x4E0D8, symBinAddr: 0x10005A460, symSize: 0x24 }
  - { offsetInCU: 0x8C35B, offset: 0xA31DA, size: 0x8, addend: 0x0, symName: __ZNSt3__112__to_addressB8ue170006IKPKcEEPT_S5_, symObjAddr: 0x4E190, symBinAddr: 0x10005A518, symSize: 0x14 }
  - { offsetInCU: 0x8C390, offset: 0xA320F, size: 0x8, addend: 0x0, symName: __ZNSt3__122__make_exception_guardB8ue170006INS_29_AllocatorDestroyRangeReverseINS_9allocatorINS_12basic_stringIcNS_11char_traitsIcEENS2_IcEEEEEEPS7_EEEENS_28__exception_guard_exceptionsIT_EESC_, symObjAddr: 0x4E1A4, symBinAddr: 0x10005A52C, symSize: 0x4C }
  - { offsetInCU: 0x8C3C5, offset: 0xA3244, size: 0x8, addend: 0x0, symName: __ZNSt3__119__allocator_destroyB8ue170006INS_9allocatorINS_12basic_stringIcNS_11char_traitsIcEENS1_IcEEEEEENS_16reverse_iteratorIPS6_EESA_EEvRT_T0_T1_, symObjAddr: 0x4E438, symBinAddr: 0x10005A7C0, symSize: 0x70 }
  - { offsetInCU: 0x8C42A, offset: 0xA32A9, size: 0x8, addend: 0x0, symName: __ZNSt3__1neB8ue170006IPNS_12basic_stringIcNS_11char_traitsIcEENS_9allocatorIcEEEES7_EEbRKNS_16reverse_iteratorIT_EERKNS8_IT0_EE, symObjAddr: 0x4E4DC, symBinAddr: 0x10005A864, symSize: 0x48 }
  - { offsetInCU: 0x8C476, offset: 0xA32F5, size: 0x8, addend: 0x0, symName: __ZNSt3__112__to_addressB8ue170006INS_16reverse_iteratorIPNS_12basic_stringIcNS_11char_traitsIcEENS_9allocatorIcEEEEEEvEEu7__decayIDTclsr19__to_address_helperIT_EE6__callclsr3stdE7declvalIRKSA_EEEEESC_, symObjAddr: 0x4E550, symBinAddr: 0x10005A8D8, symSize: 0x24 }
  - { offsetInCU: 0x8C52B, offset: 0xA33AA, size: 0x8, addend: 0x0, symName: __ZNSt3__18distanceB8ue170006IPNS_12basic_stringIcNS_11char_traitsIcEENS_9allocatorIcEEEEEENS_15iterator_traitsIT_E15difference_typeES9_S9_, symObjAddr: 0x4ECE4, symBinAddr: 0x10005B06C, symSize: 0x2C }
  - { offsetInCU: 0x8C56E, offset: 0xA33ED, size: 0x8, addend: 0x0, symName: __ZNSt3__14nextB8ue170006IPNS_12basic_stringIcNS_11char_traitsIcEENS_9allocatorIcEEEEEENS_9enable_ifIXsr29__has_input_iterator_categoryIT_EE5valueES9_E4typeES9_NS_15iterator_traitsIS9_E15difference_typeE, symObjAddr: 0x4ED10, symBinAddr: 0x10005B098, symSize: 0x34 }
  - { offsetInCU: 0x8C5B1, offset: 0xA3430, size: 0x8, addend: 0x0, symName: __ZNSt3__14copyB8ue170006IPNS_12basic_stringIcNS_11char_traitsIcEENS_9allocatorIcEEEES7_EET0_T_S9_S8_, symObjAddr: 0x4ED44, symBinAddr: 0x10005B0CC, symSize: 0x40 }
  - { offsetInCU: 0x8C60B, offset: 0xA348A, size: 0x8, addend: 0x0, symName: __ZNSt3__16__copyB8ue170006INS_17_ClassicAlgPolicyEPNS_12basic_stringIcNS_11char_traitsIcEENS_9allocatorIcEEEES8_S8_EENS_4pairIT0_T2_EESA_T1_SB_, symObjAddr: 0x4EE10, symBinAddr: 0x10005B198, symSize: 0x44 }
  - { offsetInCU: 0x8C677, offset: 0xA34F6, size: 0x8, addend: 0x0, symName: __ZNSt3__19__advanceB8ue170006IPNS_12basic_stringIcNS_11char_traitsIcEENS_9allocatorIcEEEEEEvRT_NS_15iterator_traitsIS8_E15difference_typeENS_26random_access_iterator_tagE, symObjAddr: 0x4F020, symBinAddr: 0x10005B3A8, symSize: 0x30 }
  - { offsetInCU: 0x8C6C0, offset: 0xA353F, size: 0x8, addend: 0x0, symName: __ZNSt3__130__uninitialized_allocator_copyB8ue170006INS_9allocatorINS_12basic_stringIcNS_11char_traitsIcEENS1_IcEEEEEEPS6_S8_S8_EET2_RT_T0_T1_S9_, symObjAddr: 0x4F050, symBinAddr: 0x10005B3D8, symSize: 0x80 }
  - { offsetInCU: 0x8C75E, offset: 0xA35DD, size: 0x8, addend: 0x0, symName: __ZNSt3__114__unwrap_rangeB8ue170006IPNS_12basic_stringIcNS_11char_traitsIcEENS_9allocatorIcEEEES7_EENS_4pairIT0_S9_EET_SB_, symObjAddr: 0x4F0D0, symBinAddr: 0x10005B458, symSize: 0x60 }
  - { offsetInCU: 0x8C7A9, offset: 0xA3628, size: 0x8, addend: 0x0, symName: __ZNSt3__135__uninitialized_allocator_copy_implB8ue170006INS_9allocatorINS_12basic_stringIcNS_11char_traitsIcEENS1_IcEEEEEEPS6_S8_S8_EET2_RT_T0_T1_S9_, symObjAddr: 0x4F130, symBinAddr: 0x10005B4B8, symSize: 0xF4 }
  - { offsetInCU: 0x8C847, offset: 0xA36C6, size: 0x8, addend: 0x0, symName: __ZNSt3__19make_pairB8ue170006IPNS_12basic_stringIcNS_11char_traitsIcEENS_9allocatorIcEEEES7_EENS_4pairINS_18__unwrap_ref_decayIT_E4typeENS9_IT0_E4typeEEEOSA_OSD_, symObjAddr: 0x4F224, symBinAddr: 0x10005B5AC, symSize: 0x38 }
  - { offsetInCU: 0x8C96C, offset: 0xA37EB, size: 0x8, addend: 0x0, symName: __ZNSt3__123__dispatch_copy_or_moveB8ue170006INS_17_ClassicAlgPolicyENS_11__copy_loopIS1_EENS_14__copy_trivialEPNS_12basic_stringIcNS_11char_traitsIcEENS_9allocatorIcEEEESB_SB_EENS_4pairIT2_T4_EESD_T3_SE_, symObjAddr: 0x4F330, symBinAddr: 0x10005B6B8, symSize: 0x44 }
  - { offsetInCU: 0x8C9EA, offset: 0xA3869, size: 0x8, addend: 0x0, symName: __ZNSt3__121__unwrap_and_dispatchB8ue170006INS_10__overloadINS_11__copy_loopINS_17_ClassicAlgPolicyEEENS_14__copy_trivialEEEPNS_12basic_stringIcNS_11char_traitsIcEENS_9allocatorIcEEEESD_SD_Li0EEENS_4pairIT0_T2_EESF_T1_SG_, symObjAddr: 0x4F374, symBinAddr: 0x10005B6FC, symSize: 0xB4 }
  - { offsetInCU: 0x8CA79, offset: 0xA38F8, size: 0x8, addend: 0x0, symName: __ZNSt3__114__rewrap_rangeB8ue170006IPNS_12basic_stringIcNS_11char_traitsIcEENS_9allocatorIcEEEES7_EET_S8_T0_, symObjAddr: 0x4F4B0, symBinAddr: 0x10005B838, symSize: 0x2C }
  - { offsetInCU: 0x8CAC5, offset: 0xA3944, size: 0x8, addend: 0x0, symName: __ZNSt3__110__distanceB8ue170006IPNS_12basic_stringIcNS_11char_traitsIcEENS_9allocatorIcEEEEEENS_15iterator_traitsIT_E15difference_typeES9_S9_NS_26random_access_iterator_tagE, symObjAddr: 0x4F5AC, symBinAddr: 0x10005B934, symSize: 0x28 }
  - { offsetInCU: 0x8CB12, offset: 0xA3991, size: 0x8, addend: 0x0, symName: __ZNSt3__18distanceB8ue170006IPN5Catch5clara6detail3OptEEENS_15iterator_traitsIT_E15difference_typeES7_S7_, symObjAddr: 0x4FB1C, symBinAddr: 0x10005BEA4, symSize: 0x2C }
  - { offsetInCU: 0x8CB55, offset: 0xA39D4, size: 0x8, addend: 0x0, symName: __ZNSt3__14nextB8ue170006IPN5Catch5clara6detail3OptEEENS_9enable_ifIXsr29__has_input_iterator_categoryIT_EE5valueES7_E4typeES7_NS_15iterator_traitsIS7_E15difference_typeE, symObjAddr: 0x4FB48, symBinAddr: 0x10005BED0, symSize: 0x34 }
  - { offsetInCU: 0x8CB98, offset: 0xA3A17, size: 0x8, addend: 0x0, symName: __ZNSt3__14copyB8ue170006IPN5Catch5clara6detail3OptES5_EET0_T_S7_S6_, symObjAddr: 0x4FB7C, symBinAddr: 0x10005BF04, symSize: 0x40 }
  - { offsetInCU: 0x8CBF2, offset: 0xA3A71, size: 0x8, addend: 0x0, symName: __ZNSt3__16__copyB8ue170006INS_17_ClassicAlgPolicyEPN5Catch5clara6detail3OptES6_S6_EENS_4pairIT0_T2_EES8_T1_S9_, symObjAddr: 0x4FC48, symBinAddr: 0x10005BFD0, symSize: 0x44 }
  - { offsetInCU: 0x8CC5E, offset: 0xA3ADD, size: 0x8, addend: 0x0, symName: __ZNSt3__19__advanceB8ue170006IPN5Catch5clara6detail3OptEEEvRT_NS_15iterator_traitsIS6_E15difference_typeENS_26random_access_iterator_tagE, symObjAddr: 0x4FE78, symBinAddr: 0x10005C200, symSize: 0x30 }
  - { offsetInCU: 0x8CCA7, offset: 0xA3B26, size: 0x8, addend: 0x0, symName: __ZNSt3__130__uninitialized_allocator_copyB8ue170006INS_9allocatorIN5Catch5clara6detail3OptEEEPS5_S7_S7_EET2_RT_T0_T1_S8_, symObjAddr: 0x4FEE4, symBinAddr: 0x10005C26C, symSize: 0x80 }
  - { offsetInCU: 0x8CD45, offset: 0xA3BC4, size: 0x8, addend: 0x0, symName: __ZNSt3__114__unwrap_rangeB8ue170006IPN5Catch5clara6detail3OptES5_EENS_4pairIT0_S7_EET_S9_, symObjAddr: 0x4FFDC, symBinAddr: 0x10005C364, symSize: 0x60 }
  - { offsetInCU: 0x8CD90, offset: 0xA3C0F, size: 0x8, addend: 0x0, symName: __ZNSt3__135__uninitialized_allocator_copy_implB8ue170006INS_9allocatorIN5Catch5clara6detail3OptEEEPS5_S7_S7_EET2_RT_T0_T1_S8_, symObjAddr: 0x5003C, symBinAddr: 0x10005C3C4, symSize: 0xF4 }
  - { offsetInCU: 0x8CE2F, offset: 0xA3CAE, size: 0x8, addend: 0x0, symName: __ZNSt3__113__unwrap_iterB8ue170006IPN5Catch5clara6detail3OptENS_18__unwrap_iter_implIS5_Lb1EEELi0EEEDTclsrT0_8__unwrapclsr3stdE7declvalIT_EEEES9_, symObjAddr: 0x50130, symBinAddr: 0x10005C4B8, symSize: 0x24 }
  - { offsetInCU: 0x8CE74, offset: 0xA3CF3, size: 0x8, addend: 0x0, symName: __ZNSt3__113__rewrap_iterB8ue170006IPN5Catch5clara6detail3OptES5_NS_18__unwrap_iter_implIS5_Lb1EEEEET_S8_T0_, symObjAddr: 0x50154, symBinAddr: 0x10005C4DC, symSize: 0x3C }
  - { offsetInCU: 0x8CEC8, offset: 0xA3D47, size: 0x8, addend: 0x0, symName: __ZNSt3__19make_pairB8ue170006IPN5Catch5clara6detail3OptES5_EENS_4pairINS_18__unwrap_ref_decayIT_E4typeENS7_IT0_E4typeEEEOS8_OSB_, symObjAddr: 0x50190, symBinAddr: 0x10005C518, symSize: 0x38 }
  - { offsetInCU: 0x8CFED, offset: 0xA3E6C, size: 0x8, addend: 0x0, symName: __ZNSt3__122__make_exception_guardB8ue170006INS_29_AllocatorDestroyRangeReverseINS_9allocatorIN5Catch5clara6detail3OptEEEPS6_EEEENS_28__exception_guard_exceptionsIT_EESB_, symObjAddr: 0x50238, symBinAddr: 0x10005C5C0, symSize: 0x4C }
  - { offsetInCU: 0x8D022, offset: 0xA3EA1, size: 0x8, addend: 0x0, symName: __ZNSt3__119__allocator_destroyB8ue170006INS_9allocatorIN5Catch5clara6detail3OptEEENS_16reverse_iteratorIPS5_EES9_EEvRT_T0_T1_, symObjAddr: 0x506E4, symBinAddr: 0x10005CA6C, symSize: 0x70 }
  - { offsetInCU: 0x8D087, offset: 0xA3F06, size: 0x8, addend: 0x0, symName: __ZNSt3__1neB8ue170006IPN5Catch5clara6detail3OptES5_EEbRKNS_16reverse_iteratorIT_EERKNS6_IT0_EE, symObjAddr: 0x50788, symBinAddr: 0x10005CB10, symSize: 0x48 }
  - { offsetInCU: 0x8D0D3, offset: 0xA3F52, size: 0x8, addend: 0x0, symName: __ZNSt3__112__to_addressB8ue170006INS_16reverse_iteratorIPN5Catch5clara6detail3OptEEEvEEu7__decayIDTclsr19__to_address_helperIT_EE6__callclsr3stdE7declvalIRKS8_EEEEESA_, symObjAddr: 0x507D0, symBinAddr: 0x10005CB58, symSize: 0x24 }
  - { offsetInCU: 0x8D188, offset: 0xA4007, size: 0x8, addend: 0x0, symName: __ZNSt3__123__dispatch_copy_or_moveB8ue170006INS_17_ClassicAlgPolicyENS_11__copy_loopIS1_EENS_14__copy_trivialEPN5Catch5clara6detail3OptES9_S9_EENS_4pairIT2_T4_EESB_T3_SC_, symObjAddr: 0x50974, symBinAddr: 0x10005CCFC, symSize: 0x44 }
  - { offsetInCU: 0x8D206, offset: 0xA4085, size: 0x8, addend: 0x0, symName: __ZNSt3__121__unwrap_and_dispatchB8ue170006INS_10__overloadINS_11__copy_loopINS_17_ClassicAlgPolicyEEENS_14__copy_trivialEEEPN5Catch5clara6detail3OptESB_SB_Li0EEENS_4pairIT0_T2_EESD_T1_SE_, symObjAddr: 0x509B8, symBinAddr: 0x10005CD40, symSize: 0xB4 }
  - { offsetInCU: 0x8D295, offset: 0xA4114, size: 0x8, addend: 0x0, symName: __ZNSt3__114__rewrap_rangeB8ue170006IPN5Catch5clara6detail3OptES5_EET_S6_T0_, symObjAddr: 0x50AF4, symBinAddr: 0x10005CE7C, symSize: 0x2C }
  - { offsetInCU: 0x8D2E1, offset: 0xA4160, size: 0x8, addend: 0x0, symName: __ZNSt3__14swapB8ue170006IPN5Catch5clara6detail8BoundRefEEENS_9enable_ifIXaasr21is_move_constructibleIT_EE5valuesr18is_move_assignableIS7_EE5valueEvE4typeERS7_SA_, symObjAddr: 0x50CAC, symBinAddr: 0x10005D034, symSize: 0x3C }
  - { offsetInCU: 0x8D332, offset: 0xA41B1, size: 0x8, addend: 0x0, symName: __ZNSt3__119__allocate_at_leastB8ue170006INS_9allocatorIN5Catch5clara6detail3OptEEEEENS_19__allocation_resultINS_16allocator_traitsIT_E7pointerEEERS9_m, symObjAddr: 0x50D64, symBinAddr: 0x10005D0EC, symSize: 0x40 }
  - { offsetInCU: 0x8D375, offset: 0xA41F4, size: 0x8, addend: 0x0, symName: __ZNSt3__110__distanceB8ue170006IPN5Catch5clara6detail3OptEEENS_15iterator_traitsIT_E15difference_typeES7_S7_NS_26random_access_iterator_tagE, symObjAddr: 0x50F6C, symBinAddr: 0x10005D2F4, symSize: 0x28 }
  - { offsetInCU: 0x8D3C2, offset: 0xA4241, size: 0x8, addend: 0x0, symName: __ZNSt3__18distanceB8ue170006IPN5Catch5clara6detail3ArgEEENS_15iterator_traitsIT_E15difference_typeES7_S7_, symObjAddr: 0x51194, symBinAddr: 0x10005D51C, symSize: 0x2C }
  - { offsetInCU: 0x8D405, offset: 0xA4284, size: 0x8, addend: 0x0, symName: __ZNSt3__14nextB8ue170006IPN5Catch5clara6detail3ArgEEENS_9enable_ifIXsr29__has_input_iterator_categoryIT_EE5valueES7_E4typeES7_NS_15iterator_traitsIS7_E15difference_typeE, symObjAddr: 0x511C0, symBinAddr: 0x10005D548, symSize: 0x34 }
  - { offsetInCU: 0x8D448, offset: 0xA42C7, size: 0x8, addend: 0x0, symName: __ZNSt3__14copyB8ue170006IPN5Catch5clara6detail3ArgES5_EET0_T_S7_S6_, symObjAddr: 0x511F4, symBinAddr: 0x10005D57C, symSize: 0x40 }
  - { offsetInCU: 0x8D4A2, offset: 0xA4321, size: 0x8, addend: 0x0, symName: __ZNSt3__16__copyB8ue170006INS_17_ClassicAlgPolicyEPN5Catch5clara6detail3ArgES6_S6_EENS_4pairIT0_T2_EES8_T1_S9_, symObjAddr: 0x512C0, symBinAddr: 0x10005D648, symSize: 0x44 }
  - { offsetInCU: 0x8D50E, offset: 0xA438D, size: 0x8, addend: 0x0, symName: __ZNSt3__19__advanceB8ue170006IPN5Catch5clara6detail3ArgEEEvRT_NS_15iterator_traitsIS6_E15difference_typeENS_26random_access_iterator_tagE, symObjAddr: 0x514F0, symBinAddr: 0x10005D878, symSize: 0x30 }
  - { offsetInCU: 0x8D557, offset: 0xA43D6, size: 0x8, addend: 0x0, symName: __ZNSt3__130__uninitialized_allocator_copyB8ue170006INS_9allocatorIN5Catch5clara6detail3ArgEEEPS5_S7_S7_EET2_RT_T0_T1_S8_, symObjAddr: 0x5155C, symBinAddr: 0x10005D8E4, symSize: 0x80 }
  - { offsetInCU: 0x8D5F5, offset: 0xA4474, size: 0x8, addend: 0x0, symName: __ZNSt3__114__unwrap_rangeB8ue170006IPN5Catch5clara6detail3ArgES5_EENS_4pairIT0_S7_EET_S9_, symObjAddr: 0x51654, symBinAddr: 0x10005D9DC, symSize: 0x60 }
  - { offsetInCU: 0x8D640, offset: 0xA44BF, size: 0x8, addend: 0x0, symName: __ZNSt3__135__uninitialized_allocator_copy_implB8ue170006INS_9allocatorIN5Catch5clara6detail3ArgEEEPS5_S7_S7_EET2_RT_T0_T1_S8_, symObjAddr: 0x516B4, symBinAddr: 0x10005DA3C, symSize: 0xF4 }
  - { offsetInCU: 0x8D6DF, offset: 0xA455E, size: 0x8, addend: 0x0, symName: __ZNSt3__113__unwrap_iterB8ue170006IPN5Catch5clara6detail3ArgENS_18__unwrap_iter_implIS5_Lb1EEELi0EEEDTclsrT0_8__unwrapclsr3stdE7declvalIT_EEEES9_, symObjAddr: 0x517A8, symBinAddr: 0x10005DB30, symSize: 0x24 }
  - { offsetInCU: 0x8D724, offset: 0xA45A3, size: 0x8, addend: 0x0, symName: __ZNSt3__113__rewrap_iterB8ue170006IPN5Catch5clara6detail3ArgES5_NS_18__unwrap_iter_implIS5_Lb1EEEEET_S8_T0_, symObjAddr: 0x517CC, symBinAddr: 0x10005DB54, symSize: 0x3C }
  - { offsetInCU: 0x8D778, offset: 0xA45F7, size: 0x8, addend: 0x0, symName: __ZNSt3__19make_pairB8ue170006IPN5Catch5clara6detail3ArgES5_EENS_4pairINS_18__unwrap_ref_decayIT_E4typeENS7_IT0_E4typeEEEOS8_OSB_, symObjAddr: 0x51808, symBinAddr: 0x10005DB90, symSize: 0x38 }
  - { offsetInCU: 0x8D89D, offset: 0xA471C, size: 0x8, addend: 0x0, symName: __ZNSt3__122__make_exception_guardB8ue170006INS_29_AllocatorDestroyRangeReverseINS_9allocatorIN5Catch5clara6detail3ArgEEEPS6_EEEENS_28__exception_guard_exceptionsIT_EESB_, symObjAddr: 0x518B0, symBinAddr: 0x10005DC38, symSize: 0x4C }
  - { offsetInCU: 0x8D8D2, offset: 0xA4751, size: 0x8, addend: 0x0, symName: __ZNSt3__119__allocator_destroyB8ue170006INS_9allocatorIN5Catch5clara6detail3ArgEEENS_16reverse_iteratorIPS5_EES9_EEvRT_T0_T1_, symObjAddr: 0x51CF8, symBinAddr: 0x10005E080, symSize: 0x70 }
  - { offsetInCU: 0x8D937, offset: 0xA47B6, size: 0x8, addend: 0x0, symName: __ZNSt3__1neB8ue170006IPN5Catch5clara6detail3ArgES5_EEbRKNS_16reverse_iteratorIT_EERKNS6_IT0_EE, symObjAddr: 0x51D9C, symBinAddr: 0x10005E124, symSize: 0x48 }
  - { offsetInCU: 0x8D983, offset: 0xA4802, size: 0x8, addend: 0x0, symName: __ZNSt3__112__to_addressB8ue170006INS_16reverse_iteratorIPN5Catch5clara6detail3ArgEEEvEEu7__decayIDTclsr19__to_address_helperIT_EE6__callclsr3stdE7declvalIRKS8_EEEEESA_, symObjAddr: 0x51DE4, symBinAddr: 0x10005E16C, symSize: 0x24 }
  - { offsetInCU: 0x8DA38, offset: 0xA48B7, size: 0x8, addend: 0x0, symName: __ZNSt3__123__dispatch_copy_or_moveB8ue170006INS_17_ClassicAlgPolicyENS_11__copy_loopIS1_EENS_14__copy_trivialEPN5Catch5clara6detail3ArgES9_S9_EENS_4pairIT2_T4_EESB_T3_SC_, symObjAddr: 0x51F88, symBinAddr: 0x10005E310, symSize: 0x44 }
  - { offsetInCU: 0x8DAB6, offset: 0xA4935, size: 0x8, addend: 0x0, symName: __ZNSt3__121__unwrap_and_dispatchB8ue170006INS_10__overloadINS_11__copy_loopINS_17_ClassicAlgPolicyEEENS_14__copy_trivialEEEPN5Catch5clara6detail3ArgESB_SB_Li0EEENS_4pairIT0_T2_EESD_T1_SE_, symObjAddr: 0x51FCC, symBinAddr: 0x10005E354, symSize: 0xB4 }
  - { offsetInCU: 0x8DB45, offset: 0xA49C4, size: 0x8, addend: 0x0, symName: __ZNSt3__114__rewrap_rangeB8ue170006IPN5Catch5clara6detail3ArgES5_EET_S6_T0_, symObjAddr: 0x52108, symBinAddr: 0x10005E490, symSize: 0x2C }
  - { offsetInCU: 0x8DB91, offset: 0xA4A10, size: 0x8, addend: 0x0, symName: __ZNSt3__119__allocate_at_leastB8ue170006INS_9allocatorIN5Catch5clara6detail3ArgEEEEENS_19__allocation_resultINS_16allocator_traitsIT_E7pointerEEERS9_m, symObjAddr: 0x52294, symBinAddr: 0x10005E61C, symSize: 0x40 }
  - { offsetInCU: 0x8DBD4, offset: 0xA4A53, size: 0x8, addend: 0x0, symName: __ZNSt3__110__distanceB8ue170006IPN5Catch5clara6detail3ArgEEENS_15iterator_traitsIT_E15difference_typeES7_S7_NS_26random_access_iterator_tagE, symObjAddr: 0x52494, symBinAddr: 0x10005E81C, symSize: 0x28 }
  - { offsetInCU: 0x8DC21, offset: 0xA4AA0, size: 0x8, addend: 0x0, symName: __ZNSt3__1neB8ue170006IPKNS_10shared_ptrIN5Catch16IReporterFactoryEEEEEbRKNS_11__wrap_iterIT_EESB_, symObjAddr: 0x52A90, symBinAddr: 0x10005EE18, symSize: 0x34 }
  - { offsetInCU: 0x8DC64, offset: 0xA4AE3, size: 0x8, addend: 0x0, symName: __ZNSt3__1eqB8ue170006IPKNS_10shared_ptrIN5Catch16IReporterFactoryEEEEEbRKNS_11__wrap_iterIT_EESB_, symObjAddr: 0x52D38, symBinAddr: 0x10005F0C0, symSize: 0x48 }
  - { offsetInCU: 0x8DCA7, offset: 0xA4B26, size: 0x8, addend: 0x0, symName: __ZNSt3__13minB8ue170006IiNS_6__lessIvvEEEERKT_S5_S5_T0_, symObjAddr: 0x53164, symBinAddr: 0x10005F4EC, symSize: 0x54 }
  - { offsetInCU: 0x8DD01, offset: 0xA4B80, size: 0x8, addend: 0x0, symName: __ZNSt3__13maxB8ue170006IiNS_6__lessIvvEEEERKT_S5_S5_T0_, symObjAddr: 0x531EC, symBinAddr: 0x10005F574, symSize: 0x54 }
  - { offsetInCU: 0x8DD5B, offset: 0xA4BDA, size: 0x8, addend: 0x0, symName: __ZNSt3__1eqB8ue170006IPPN5Catch10ISingletonEEEbRKNS_11__wrap_iterIT_EES9_, symObjAddr: 0x533BC, symBinAddr: 0x10005F744, symSize: 0x48 }
  - { offsetInCU: 0x8DD9E, offset: 0xA4C1D, size: 0x8, addend: 0x0, symName: __ZNSt3__112__to_addressB8ue170006INS_10unique_ptrINS_19basic_ostringstreamIcNS_11char_traitsIcEENS_9allocatorIcEEEENS_14default_deleteIS7_EEEEEEPT_SC_, symObjAddr: 0x54800, symBinAddr: 0x100060B88, symSize: 0x14 }
  - { offsetInCU: 0x8DDD3, offset: 0xA4C52, size: 0x8, addend: 0x0, symName: __ZNSt3__119__allocate_at_leastB8ue170006INS_9allocatorINS_10unique_ptrINS_19basic_ostringstreamIcNS_11char_traitsIcEENS1_IcEEEENS_14default_deleteIS7_EEEEEEEENS_19__allocation_resultINS_16allocator_traitsIT_E7pointerEEERSE_m, symObjAddr: 0x5502C, symBinAddr: 0x1000613B4, symSize: 0x40 }
  - { offsetInCU: 0x8DE15, offset: 0xA4C94, size: 0x8, addend: 0x0, symName: __ZNSt3__142__uninitialized_allocator_move_if_noexceptB8ue170006INS_9allocatorINS_10unique_ptrINS_19basic_ostringstreamIcNS_11char_traitsIcEENS1_IcEEEENS_14default_deleteIS7_EEEEEENS_16reverse_iteratorIPSA_EESE_SE_EET2_RT_T0_T1_SF_, symObjAddr: 0x552B4, symBinAddr: 0x10006163C, symSize: 0x12C }
  - { offsetInCU: 0x8DEB6, offset: 0xA4D35, size: 0x8, addend: 0x0, symName: __ZNSt3__14swapB8ue170006IPNS_10unique_ptrINS_19basic_ostringstreamIcNS_11char_traitsIcEENS_9allocatorIcEEEENS_14default_deleteIS7_EEEEEENS_9enable_ifIXaasr21is_move_constructibleIT_EE5valuesr18is_move_assignableISD_EE5valueEvE4typeERSD_SG_, symObjAddr: 0x5542C, symBinAddr: 0x1000617B4, symSize: 0x3C }
  - { offsetInCU: 0x8DF07, offset: 0xA4D86, size: 0x8, addend: 0x0, symName: __ZNSt3__122__make_exception_guardB8ue170006INS_29_AllocatorDestroyRangeReverseINS_9allocatorINS_10unique_ptrINS_19basic_ostringstreamIcNS_11char_traitsIcEENS2_IcEEEENS_14default_deleteIS8_EEEEEENS_16reverse_iteratorIPSB_EEEEEENS_28__exception_guard_exceptionsIT_EESI_, symObjAddr: 0x5555C, symBinAddr: 0x1000618E4, symSize: 0x4C }
  - { offsetInCU: 0x8DF3D, offset: 0xA4DBC, size: 0x8, addend: 0x0, symName: __ZNSt3__1neB8ue170006IPNS_10unique_ptrINS_19basic_ostringstreamIcNS_11char_traitsIcEENS_9allocatorIcEEEENS_14default_deleteIS7_EEEESB_EEbRKNS_16reverse_iteratorIT_EERKNSC_IT0_EE, symObjAddr: 0x555EC, symBinAddr: 0x100061974, symSize: 0x48 }
  - { offsetInCU: 0x8DF89, offset: 0xA4E08, size: 0x8, addend: 0x0, symName: __ZNSt3__112__to_addressB8ue170006INS_16reverse_iteratorIPNS_10unique_ptrINS_19basic_ostringstreamIcNS_11char_traitsIcEENS_9allocatorIcEEEENS_14default_deleteIS8_EEEEEEvEEu7__decayIDTclsr19__to_address_helperIT_EE6__callclsr3stdE7declvalIRKSE_EEEEESG_, symObjAddr: 0x55634, symBinAddr: 0x1000619BC, symSize: 0x24 }
  - { offsetInCU: 0x8DFE9, offset: 0xA4E68, size: 0x8, addend: 0x0, symName: __ZNSt3__119__allocator_destroyB8ue170006INS_9allocatorINS_10unique_ptrINS_19basic_ostringstreamIcNS_11char_traitsIcEENS1_IcEEEENS_14default_deleteIS7_EEEEEENS_16reverse_iteratorINSC_IPSA_EEEESF_EEvRT_T0_T1_, symObjAddr: 0x558E4, symBinAddr: 0x100061C6C, symSize: 0x70 }
  - { offsetInCU: 0x8E050, offset: 0xA4ECF, size: 0x8, addend: 0x0, symName: __ZNSt3__1neB8ue170006INS_16reverse_iteratorIPNS_10unique_ptrINS_19basic_ostringstreamIcNS_11char_traitsIcEENS_9allocatorIcEEEENS_14default_deleteIS8_EEEEEESD_EEbRKNS1_IT_EERKNS1_IT0_EE, symObjAddr: 0x55990, symBinAddr: 0x100061D18, symSize: 0x60 }
  - { offsetInCU: 0x8E09C, offset: 0xA4F1B, size: 0x8, addend: 0x0, symName: __ZNSt3__112__to_addressB8ue170006INS_16reverse_iteratorINS1_IPNS_10unique_ptrINS_19basic_ostringstreamIcNS_11char_traitsIcEENS_9allocatorIcEEEENS_14default_deleteIS8_EEEEEEEEvEEu7__decayIDTclsr19__to_address_helperIT_EE6__callclsr3stdE7declvalIRKSF_EEEEESH_, symObjAddr: 0x55A1C, symBinAddr: 0x100061DA4, symSize: 0x24 }
  - { offsetInCU: 0x8E0FD, offset: 0xA4F7C, size: 0x8, addend: 0x0, symName: __ZNSt3__112__to_addressB8ue170006ImEEPT_S2_, symObjAddr: 0x561EC, symBinAddr: 0x100062574, symSize: 0x14 }
  - { offsetInCU: 0x8E132, offset: 0xA4FB1, size: 0x8, addend: 0x0, symName: __ZNSt3__1eqB8ue170006IPcEEbRKNS_11__wrap_iterIT_EES6_, symObjAddr: 0x56514, symBinAddr: 0x10006289C, symSize: 0x48 }
  - { offsetInCU: 0x8E175, offset: 0xA4FF4, size: 0x8, addend: 0x0, symName: __ZNSt3__1eqB8ue170006IPNS_12basic_stringIcNS_11char_traitsIcEENS_9allocatorIcEEEEEEbRKNS_11__wrap_iterIT_EESC_, symObjAddr: 0x56724, symBinAddr: 0x100062AAC, symSize: 0x48 }
  - { offsetInCU: 0x8E1B8, offset: 0xA5037, size: 0x8, addend: 0x0, symName: __ZNSt3__1eqB8ue170006IPKN5Catch8TestCaseEEEbRKNS_11__wrap_iterIT_EES9_, symObjAddr: 0x56910, symBinAddr: 0x100062C98, symSize: 0x48 }
  - { offsetInCU: 0x8E1FB, offset: 0xA507A, size: 0x8, addend: 0x0, symName: __ZNSt3__1eqB8ue170006IPNS_10shared_ptrIN5Catch16TestCaseTracking8ITrackerEEEEEbRKNS_11__wrap_iterIT_EESB_, symObjAddr: 0x569B0, symBinAddr: 0x100062D38, symSize: 0x48 }
  - { offsetInCU: 0x8E23E, offset: 0xA50BD, size: 0x8, addend: 0x0, symName: __ZNSt3__1eqB8ue170006IPKNS_10shared_ptrIN5Catch8TestSpec7PatternEEEEEbRKNS_11__wrap_iterIT_EESC_, symObjAddr: 0x56AA8, symBinAddr: 0x100062E30, symSize: 0x48 }
  - { offsetInCU: 0x8E281, offset: 0xA5100, size: 0x8, addend: 0x0, symName: __ZNSt3__1eqB8ue170006IPKN5Catch8TestSpec6FilterEEEbRKNS_11__wrap_iterIT_EESA_, symObjAddr: 0x56B08, symBinAddr: 0x100062E90, symSize: 0x48 }
  - { offsetInCU: 0x8E339, offset: 0xA51B8, size: 0x8, addend: 0x0, symName: __ZNSt3__1eqB8ue170006IPKcEEbRKNS_11__wrap_iterIT_EES7_, symObjAddr: 0x570E8, symBinAddr: 0x100063470, symSize: 0x48 }
  - { offsetInCU: 0x8E37C, offset: 0xA51FB, size: 0x8, addend: 0x0, symName: __ZNSt3__1eqB8ue170006IPKwEEbRKNS_11__wrap_iterIT_EES7_, symObjAddr: 0x57148, symBinAddr: 0x1000634D0, symSize: 0x48 }
  - { offsetInCU: 0x8E3BF, offset: 0xA523E, size: 0x8, addend: 0x0, symName: __ZNSt3__1lsB8ue170006INS_11char_traitsIcEEEERNS_13basic_ostreamIcT_EES6_RKNS_8__iom_t4IcEE, symObjAddr: 0x571A8, symBinAddr: 0x100063530, symSize: 0x40 }
  - { offsetInCU: 0x8E401, offset: 0xA5280, size: 0x8, addend: 0x0, symName: __ZNSt3__19uppercaseB8ue170006ERNS_8ios_baseE, symObjAddr: 0x571E8, symBinAddr: 0x100063570, symSize: 0x2C }
  - { offsetInCU: 0x8E430, offset: 0xA52AF, size: 0x8, addend: 0x0, symName: __ZNSt3__1eqB8ue170006IPKN5Catch11MessageInfoEPS2_EEbRKNS_11__wrap_iterIT_EERKNS6_IT0_EE, symObjAddr: 0x57B78, symBinAddr: 0x100063DF0, symSize: 0x48 }
  - { offsetInCU: 0x8E47C, offset: 0xA52FB, size: 0x8, addend: 0x0, symName: __ZNSt3__18distanceB8ue170006INS_11__wrap_iterIPKN5Catch11MessageInfoEEEEENS_15iterator_traitsIT_E15difference_typeES8_S8_, symObjAddr: 0x57BC0, symBinAddr: 0x100063E38, symSize: 0x3C }
  - { offsetInCU: 0x8E4BF, offset: 0xA533E, size: 0x8, addend: 0x0, symName: __ZNSt3__110__distanceB8ue170006INS_11__wrap_iterIPKN5Catch11MessageInfoEEEEENS_15iterator_traitsIT_E15difference_typeES8_S8_NS_26random_access_iterator_tagE, symObjAddr: 0x57C3C, symBinAddr: 0x100063EB4, symSize: 0x30 }
  - { offsetInCU: 0x8E50C, offset: 0xA538B, size: 0x8, addend: 0x0, symName: __ZNSt3__1miB8ue170006IPKN5Catch11MessageInfoES4_EEDTmicldtfp_4baseEcldtfp0_4baseEERKNS_11__wrap_iterIT_EERKNS6_IT0_EE, symObjAddr: 0x57C6C, symBinAddr: 0x100063EE4, symSize: 0x48 }
  - { offsetInCU: 0x8E558, offset: 0xA53D7, size: 0x8, addend: 0x0, symName: __ZNSt3__112__to_addressB8ue170006IKN5Catch11MessageInfoEEEPT_S5_, symObjAddr: 0x57CB4, symBinAddr: 0x100063F2C, symSize: 0x14 }
  - { offsetInCU: 0x8E58D, offset: 0xA540C, size: 0x8, addend: 0x0, symName: __ZNSt3__1neB8ue170006IPKN5Catch11MessageInfoEPS2_EEbRKNS_11__wrap_iterIT_EERKNS6_IT0_EE, symObjAddr: 0x57CC8, symBinAddr: 0x100063F40, symSize: 0x34 }
  - { offsetInCU: 0x8E5D9, offset: 0xA5458, size: 0x8, addend: 0x0, symName: __ZNSt3__112__to_addressB8ue170006IN5Catch11SectionInfoEEEPT_S4_, symObjAddr: 0x58244, symBinAddr: 0x1000644BC, symSize: 0x14 }
  - { offsetInCU: 0x8E60E, offset: 0xA548D, size: 0x8, addend: 0x0, symName: __ZNSt3__1neB8ue170006IPN5Catch12_GLOBAL__N_110ColumnInfoEEEbRKNS_11__wrap_iterIT_EES9_, symObjAddr: 0x5A128, symBinAddr: 0x1000663A0, symSize: 0x34 }
  - { offsetInCU: 0x8E652, offset: 0xA54D1, size: 0x8, addend: 0x0, symName: __ZNSt3__1eqB8ue170006IPN5Catch12_GLOBAL__N_110ColumnInfoEEEbRKNS_11__wrap_iterIT_EES9_, symObjAddr: 0x5A218, symBinAddr: 0x100066490, symSize: 0x48 }
  - { offsetInCU: 0x8E696, offset: 0xA5515, size: 0x8, addend: 0x0, symName: __ZNSt3__1eqB8ue170006IPN5Catch11SectionInfoEEEbRKNS_11__wrap_iterIT_EES8_, symObjAddr: 0x5A40C, symBinAddr: 0x100066684, symSize: 0x48 }
  - { offsetInCU: 0x8E6D9, offset: 0xA5558, size: 0x8, addend: 0x0, symName: __ZNSt3__1eqB8ue170006IPKN5Catch13SummaryColumnEEEbRKNS_11__wrap_iterIT_EES9_, symObjAddr: 0x5A4F0, symBinAddr: 0x100066768, symSize: 0x48 }
  - { offsetInCU: 0x8E71C, offset: 0xA559B, size: 0x8, addend: 0x0, symName: __ZNSt3__112__to_addressB8ue170006INS_10shared_ptrIN5Catch22CumulativeReporterBaseINS2_13JunitReporterEE11SectionNodeEEEEEPT_S9_, symObjAddr: 0x5AA90, symBinAddr: 0x100066D08, symSize: 0x14 }
  - { offsetInCU: 0x8E751, offset: 0xA55D0, size: 0x8, addend: 0x0, symName: __ZNSt3__112__to_addressB8ue170006INS_10shared_ptrIN5Catch22CumulativeReporterBaseINS2_13JunitReporterEE4NodeINS2_12TestRunStatsENS6_INS2_14TestGroupStatsENS6_INS2_13TestCaseStatsENS5_11SectionNodeEEEEEEEEEEEPT_SG_, symObjAddr: 0x5AF9C, symBinAddr: 0x100067214, symSize: 0x14 }
  - { offsetInCU: 0x8E786, offset: 0xA5605, size: 0x8, addend: 0x0, symName: __ZNSt3__112__to_addressB8ue170006INS_10shared_ptrIN5Catch22CumulativeReporterBaseINS2_13JunitReporterEE4NodeINS2_14TestGroupStatsENS6_INS2_13TestCaseStatsENS5_11SectionNodeEEEEEEEEEPT_SE_, symObjAddr: 0x5B4FC, symBinAddr: 0x100067774, symSize: 0x14 }
  - { offsetInCU: 0x8E7BB, offset: 0xA563A, size: 0x8, addend: 0x0, symName: __ZNSt3__112__to_addressB8ue170006INS_10shared_ptrIN5Catch22CumulativeReporterBaseINS2_13JunitReporterEE4NodeINS2_13TestCaseStatsENS5_11SectionNodeEEEEEEEPT_SC_, symObjAddr: 0x5BA5C, symBinAddr: 0x100067CD4, symSize: 0x14 }
  - { offsetInCU: 0x8E7F0, offset: 0xA566F, size: 0x8, addend: 0x0, symName: __ZNSt3__112__to_addressB8ue170006INS_6vectorINS_10shared_ptrIN5Catch22CumulativeReporterBaseINS3_13JunitReporterEE11SectionNodeEEENS_9allocatorIS8_EEEEEEPT_SD_, symObjAddr: 0x5BFD8, symBinAddr: 0x100068250, symSize: 0x14 }
  - { offsetInCU: 0x8E825, offset: 0xA56A4, size: 0x8, addend: 0x0, symName: __ZNSt3__112__to_addressB8ue170006IN5Catch14AssertionStatsEEEPT_S4_, symObjAddr: 0x5C4D8, symBinAddr: 0x100068750, symSize: 0x14 }
  - { offsetInCU: 0x8E85A, offset: 0xA56D9, size: 0x8, addend: 0x0, symName: __ZNSt3__1eqB8ue170006IPKNS_10shared_ptrIN5Catch22CumulativeReporterBaseINS2_13JunitReporterEE4NodeINS2_13TestCaseStatsENS5_11SectionNodeEEEEEEEbRKNS_11__wrap_iterIT_EESH_, symObjAddr: 0x5C668, symBinAddr: 0x1000688E0, symSize: 0x48 }
  - { offsetInCU: 0x8E89D, offset: 0xA571C, size: 0x8, addend: 0x0, symName: '__ZNSt3__17find_ifB8ue170006INS_11__wrap_iterIPKNS_12basic_stringIcNS_11char_traitsIcEENS_9allocatorIcEEEEEEZN5Catch12_GLOBAL__N_111fileNameTagERKNS_6vectorIS7_NS5_IS7_EEEEE4$_13EET_SJ_SJ_T0_', symObjAddr: 0x5C6C8, symBinAddr: 0x100068940, symSize: 0x74 }
  - { offsetInCU: 0x8E8F8, offset: 0xA5777, size: 0x8, addend: 0x0, symName: __ZNSt3__1eqB8ue170006IPKNS_10shared_ptrIN5Catch22CumulativeReporterBaseINS2_13JunitReporterEE11SectionNodeEEEEEbRKNS_11__wrap_iterIT_EESE_, symObjAddr: 0x5C798, symBinAddr: 0x100068A10, symSize: 0x48 }
  - { offsetInCU: 0x8E93B, offset: 0xA57BA, size: 0x8, addend: 0x0, symName: __ZNSt3__1eqB8ue170006IPKN5Catch14AssertionStatsEEEbRKNS_11__wrap_iterIT_EES9_, symObjAddr: 0x5C7F8, symBinAddr: 0x100068A70, symSize: 0x48 }
  - { offsetInCU: 0x8E97E, offset: 0xA57FD, size: 0x8, addend: 0x0, symName: __ZNSt3__1eqB8ue170006IPKN5Catch11MessageInfoEEEbRKNS_11__wrap_iterIT_EES9_, symObjAddr: 0x5C858, symBinAddr: 0x100068AD0, symSize: 0x48 }
  - { offsetInCU: 0x8E9C1, offset: 0xA5840, size: 0x8, addend: 0x0, symName: __ZNSt3__1eqB8ue170006IPNS_10unique_ptrIN5Catch18IStreamingReporterENS_14default_deleteIS3_EEEEEEbRKNS_11__wrap_iterIT_EESC_, symObjAddr: 0x5C8BC, symBinAddr: 0x100068B34, symSize: 0x48 }
  - { offsetInCU: 0x8EA04, offset: 0xA5883, size: 0x8, addend: 0x0, symName: __ZNSt3__14swapB8ue170006IPKN5Catch7IConfigEEENS_9enable_ifIXaasr21is_move_constructibleIT_EE5valuesr18is_move_assignableIS6_EE5valueEvE4typeERS6_S9_, symObjAddr: 0x5CA4C, symBinAddr: 0x100068CA8, symSize: 0x3C }
  - { offsetInCU: 0x8EA55, offset: 0xA58D4, size: 0x8, addend: 0x0, symName: __ZNSt3__112__to_addressB8ue170006INS_10unique_ptrIN5Catch18IStreamingReporterENS_14default_deleteIS3_EEEEEEPT_S8_, symObjAddr: 0x5D3EC, symBinAddr: 0x100069648, symSize: 0x14 }
  - { offsetInCU: 0x8EA89, offset: 0xA5908, size: 0x8, addend: 0x0, symName: __ZNSt3__142__uninitialized_allocator_move_if_noexceptB8ue170006INS_9allocatorINS_12basic_stringIcNS_11char_traitsIcEENS1_IcEEEEEENS_16reverse_iteratorIPS6_EESA_SA_EET2_RT_T0_T1_SB_, symObjAddr: 0x5E7EC, symBinAddr: 0x10006A0F0, symSize: 0x11C }
  - { offsetInCU: 0x8EB2A, offset: 0xA59A9, size: 0x8, addend: 0x0, symName: __ZNSt3__122__make_exception_guardB8ue170006INS_29_AllocatorDestroyRangeReverseINS_9allocatorINS_12basic_stringIcNS_11char_traitsIcEENS2_IcEEEEEENS_16reverse_iteratorIPS7_EEEEEENS_28__exception_guard_exceptionsIT_EESE_, symObjAddr: 0x5E908, symBinAddr: 0x10006A20C, symSize: 0x4C }
  - { offsetInCU: 0x8EB5F, offset: 0xA59DE, size: 0x8, addend: 0x0, symName: __ZNSt3__119__allocator_destroyB8ue170006INS_9allocatorINS_12basic_stringIcNS_11char_traitsIcEENS1_IcEEEEEENS_16reverse_iteratorINS8_IPS6_EEEESB_EEvRT_T0_T1_, symObjAddr: 0x5EBE4, symBinAddr: 0x10006A4E8, symSize: 0x70 }
  - { offsetInCU: 0x8EBC6, offset: 0xA5A45, size: 0x8, addend: 0x0, symName: __ZNSt3__1neB8ue170006INS_16reverse_iteratorIPNS_12basic_stringIcNS_11char_traitsIcEENS_9allocatorIcEEEEEES9_EEbRKNS1_IT_EERKNS1_IT0_EE, symObjAddr: 0x5EC90, symBinAddr: 0x10006A594, symSize: 0x60 }
  - { offsetInCU: 0x8EC12, offset: 0xA5A91, size: 0x8, addend: 0x0, symName: __ZNSt3__112__to_addressB8ue170006INS_16reverse_iteratorINS1_IPNS_12basic_stringIcNS_11char_traitsIcEENS_9allocatorIcEEEEEEEEvEEu7__decayIDTclsr19__to_address_helperIT_EE6__callclsr3stdE7declvalIRKSB_EEEEESD_, symObjAddr: 0x5ECF0, symBinAddr: 0x10006A5F4, symSize: 0x24 }
  - { offsetInCU: 0x8EC72, offset: 0xA5AF1, size: 0x8, addend: 0x0, symName: __ZNSt3__1neB8ue170006ERKNS_21__tree_const_iteratorINS_12__value_typeINS_12basic_stringIcNS_11char_traitsIcEENS_9allocatorIcEEEENS_10shared_ptrIN5Catch16IReporterFactoryEEEEEPNS_11__tree_nodeISC_PvEElEESJ_, symObjAddr: 0x5F4F8, symBinAddr: 0x10006ADC8, symSize: 0x34 }
  - { offsetInCU: 0x8ECAF, offset: 0xA5B2E, size: 0x8, addend: 0x0, symName: __ZNSt3__1eqB8ue170006ERKNS_21__tree_const_iteratorINS_12__value_typeINS_12basic_stringIcNS_11char_traitsIcEENS_9allocatorIcEEEENS_10shared_ptrIN5Catch16IReporterFactoryEEEEEPNS_11__tree_nodeISC_PvEElEESJ_, symObjAddr: 0x5F708, symBinAddr: 0x10006AFD8, symSize: 0x30 }
  - { offsetInCU: 0x8ECEE, offset: 0xA5B6D, size: 0x8, addend: 0x0, symName: __ZNSt3__122__make_exception_guardB8ue170006INS_6vectorIN5Catch5clara6detail3OptENS_9allocatorIS5_EEE16__destroy_vectorEEENS_28__exception_guard_exceptionsIT_EESB_, symObjAddr: 0x5FD5C, symBinAddr: 0x10006B62C, symSize: 0x40 }
  - { offsetInCU: 0x8ED23, offset: 0xA5BA2, size: 0x8, addend: 0x0, symName: __ZNSt3__122__make_exception_guardB8ue170006INS_6vectorIN5Catch5clara6detail3ArgENS_9allocatorIS5_EEE16__destroy_vectorEEENS_28__exception_guard_exceptionsIT_EESB_, symObjAddr: 0x60078, symBinAddr: 0x10006B948, symSize: 0x40 }
  - { offsetInCU: 0x8ED57, offset: 0xA5BD6, size: 0x8, addend: 0x0, symName: __ZNSt3__142__uninitialized_allocator_move_if_noexceptB8ue170006INS_9allocatorIN5Catch5clara6detail3OptEEENS_16reverse_iteratorIPS5_EES9_S9_EET2_RT_T0_T1_SA_, symObjAddr: 0x607C8, symBinAddr: 0x10006C098, symSize: 0x11C }
  - { offsetInCU: 0x8EDF8, offset: 0xA5C77, size: 0x8, addend: 0x0, symName: __ZNSt3__14swapB8ue170006IPN5Catch5clara6detail3OptEEENS_9enable_ifIXaasr21is_move_constructibleIT_EE5valuesr18is_move_assignableIS7_EE5valueEvE4typeERS7_SA_, symObjAddr: 0x608E4, symBinAddr: 0x10006C1B4, symSize: 0x3C }
  - { offsetInCU: 0x8EE49, offset: 0xA5CC8, size: 0x8, addend: 0x0, symName: __ZNSt3__122__make_exception_guardB8ue170006INS_29_AllocatorDestroyRangeReverseINS_9allocatorIN5Catch5clara6detail3OptEEENS_16reverse_iteratorIPS6_EEEEEENS_28__exception_guard_exceptionsIT_EESD_, symObjAddr: 0x60920, symBinAddr: 0x10006C1F0, symSize: 0x4C }
  - { offsetInCU: 0x8EE7E, offset: 0xA5CFD, size: 0x8, addend: 0x0, symName: __ZNSt3__119__allocator_destroyB8ue170006INS_9allocatorIN5Catch5clara6detail3OptEEENS_16reverse_iteratorINS7_IPS5_EEEESA_EEvRT_T0_T1_, symObjAddr: 0x60DE4, symBinAddr: 0x10006C6B4, symSize: 0x70 }
  - { offsetInCU: 0x8EEE5, offset: 0xA5D64, size: 0x8, addend: 0x0, symName: __ZNSt3__1neB8ue170006INS_16reverse_iteratorIPN5Catch5clara6detail3OptEEES7_EEbRKNS1_IT_EERKNS1_IT0_EE, symObjAddr: 0x60E90, symBinAddr: 0x10006C760, symSize: 0x60 }
  - { offsetInCU: 0x8EF31, offset: 0xA5DB0, size: 0x8, addend: 0x0, symName: __ZNSt3__112__to_addressB8ue170006INS_16reverse_iteratorINS1_IPN5Catch5clara6detail3OptEEEEEvEEu7__decayIDTclsr19__to_address_helperIT_EE6__callclsr3stdE7declvalIRKS9_EEEEESB_, symObjAddr: 0x60EF0, symBinAddr: 0x10006C7C0, symSize: 0x24 }
  - { offsetInCU: 0x8EF91, offset: 0xA5E10, size: 0x8, addend: 0x0, symName: '__ZNSt3__111make_sharedB8ue170006IN5Catch5clara6detail11BoundLambdaIZNS1_21makeCommandLineParserERNS1_10ConfigDataEE3$_0EEJRKS7_EvEENS_10shared_ptrIT_EEDpOT0_', symObjAddr: 0x6152C, symBinAddr: 0x10006CDFC, symSize: 0x40 }
  - { offsetInCU: 0x8F1D4, offset: 0xA6053, size: 0x8, addend: 0x0, symName: '__ZNSt3__115allocate_sharedB8ue170006IN5Catch5clara6detail11BoundLambdaIZNS1_21makeCommandLineParserERNS1_10ConfigDataEE3$_0EENS_9allocatorIS8_EEJRKS7_EvEENS_10shared_ptrIT_EERKT0_DpOT1_', symObjAddr: 0x615CC, symBinAddr: 0x10006CE9C, symSize: 0x98 }
  - { offsetInCU: 0x8F59B, offset: 0xA641A, size: 0x8, addend: 0x0, symName: '__ZNSt3__111make_sharedB8ue170006IN5Catch5clara6detail15BoundFlagLambdaIZNS1_21makeCommandLineParserERNS1_10ConfigDataEE3$_1EEJRKS7_EvEENS_10shared_ptrIT_EEDpOT0_', symObjAddr: 0x626CC, symBinAddr: 0x10006DF9C, symSize: 0x40 }
  - { offsetInCU: 0x8F7DE, offset: 0xA665D, size: 0x8, addend: 0x0, symName: '__ZNSt3__115allocate_sharedB8ue170006IN5Catch5clara6detail15BoundFlagLambdaIZNS1_21makeCommandLineParserERNS1_10ConfigDataEE3$_1EENS_9allocatorIS8_EEJRKS7_EvEENS_10shared_ptrIT_EERKT0_DpOT1_', symObjAddr: 0x6276C, symBinAddr: 0x10006E03C, symSize: 0x98 }
  - { offsetInCU: 0x8FBA5, offset: 0xA6A24, size: 0x8, addend: 0x0, symName: '__ZNSt3__111make_sharedB8ue170006IN5Catch5clara6detail11BoundLambdaIZNS1_21makeCommandLineParserERNS1_10ConfigDataEE3$_2EEJRKS7_EvEENS_10shared_ptrIT_EEDpOT0_', symObjAddr: 0x633F8, symBinAddr: 0x10006ECC8, symSize: 0x40 }
  - { offsetInCU: 0x8FDE8, offset: 0xA6C67, size: 0x8, addend: 0x0, symName: '__ZNSt3__115allocate_sharedB8ue170006IN5Catch5clara6detail11BoundLambdaIZNS1_21makeCommandLineParserERNS1_10ConfigDataEE3$_2EENS_9allocatorIS8_EEJRKS7_EvEENS_10shared_ptrIT_EERKT0_DpOT1_', symObjAddr: 0x63498, symBinAddr: 0x10006ED68, symSize: 0x98 }
  - { offsetInCU: 0x9091E, offset: 0xA779D, size: 0x8, addend: 0x0, symName: '__ZNSt3__111make_sharedB8ue170006IN5Catch5clara6detail11BoundLambdaIZNS1_21makeCommandLineParserERNS1_10ConfigDataEE3$_3EEJRKS7_EvEENS_10shared_ptrIT_EEDpOT0_', symObjAddr: 0x64658, symBinAddr: 0x10006FF28, symSize: 0x40 }
  - { offsetInCU: 0x90B61, offset: 0xA79E0, size: 0x8, addend: 0x0, symName: '__ZNSt3__115allocate_sharedB8ue170006IN5Catch5clara6detail11BoundLambdaIZNS1_21makeCommandLineParserERNS1_10ConfigDataEE3$_3EENS_9allocatorIS8_EEJRKS7_EvEENS_10shared_ptrIT_EERKT0_DpOT1_', symObjAddr: 0x646F8, symBinAddr: 0x10006FFC8, symSize: 0x98 }
  - { offsetInCU: 0x90F28, offset: 0xA7DA7, size: 0x8, addend: 0x0, symName: '__ZNSt3__111make_sharedB8ue170006IN5Catch5clara6detail11BoundLambdaIZNS1_21makeCommandLineParserERNS1_10ConfigDataEE3$_4EEJRKS7_EvEENS_10shared_ptrIT_EEDpOT0_', symObjAddr: 0x655A4, symBinAddr: 0x100070E74, symSize: 0x40 }
  - { offsetInCU: 0x9116B, offset: 0xA7FEA, size: 0x8, addend: 0x0, symName: '__ZNSt3__115allocate_sharedB8ue170006IN5Catch5clara6detail11BoundLambdaIZNS1_21makeCommandLineParserERNS1_10ConfigDataEE3$_4EENS_9allocatorIS8_EEJRKS7_EvEENS_10shared_ptrIT_EERKT0_DpOT1_', symObjAddr: 0x65644, symBinAddr: 0x100070F14, symSize: 0x98 }
  - { offsetInCU: 0x914FF, offset: 0xA837E, size: 0x8, addend: 0x0, symName: __ZNSt3__19transformB8ue170006INS_11__wrap_iterIPcEES3_ZN5Catch5clara6detail11convertIntoERKNS_12basic_stringIcNS_11char_traitsIcEENS_9allocatorIcEEEERbEUlcE_EET0_T_SI_SH_T1_, symObjAddr: 0x66158, symBinAddr: 0x100071A28, symSize: 0x8C }
  - { offsetInCU: 0x915A3, offset: 0xA8422, size: 0x8, addend: 0x0, symName: '__ZNSt3__111make_sharedB8ue170006IN5Catch5clara6detail11BoundLambdaIZNS1_21makeCommandLineParserERNS1_10ConfigDataEE3$_5EEJRKS7_EvEENS_10shared_ptrIT_EEDpOT0_', symObjAddr: 0x666AC, symBinAddr: 0x100071F7C, symSize: 0x40 }
  - { offsetInCU: 0x917E6, offset: 0xA8665, size: 0x8, addend: 0x0, symName: '__ZNSt3__115allocate_sharedB8ue170006IN5Catch5clara6detail11BoundLambdaIZNS1_21makeCommandLineParserERNS1_10ConfigDataEE3$_5EENS_9allocatorIS8_EEJRKS7_EvEENS_10shared_ptrIT_EERKT0_DpOT1_', symObjAddr: 0x6674C, symBinAddr: 0x10007201C, symSize: 0x98 }
  - { offsetInCU: 0x91CE6, offset: 0xA8B65, size: 0x8, addend: 0x0, symName: __ZNSt3__17getlineB8ue170006IcNS_11char_traitsIcEENS_9allocatorIcEEEERNS_13basic_istreamIT_T0_EES9_RNS_12basic_stringIS6_S7_T1_EE, symObjAddr: 0x674DC, symBinAddr: 0x100072DAC, symSize: 0x5C }
  - { offsetInCU: 0x91D49, offset: 0xA8BC8, size: 0x8, addend: 0x0, symName: __ZNSt3__17getlineB8ue170006IcNS_11char_traitsIcEENS_9allocatorIcEEEERNS_13basic_istreamIT_T0_EES9_RNS_12basic_stringIS6_S7_T1_EES6_, symObjAddr: 0x675C8, symBinAddr: 0x100072E98, symSize: 0x238 }
  - { offsetInCU: 0x91E3B, offset: 0xA8CBA, size: 0x8, addend: 0x0, symName: '__ZNSt3__111make_sharedB8ue170006IN5Catch5clara6detail11BoundLambdaIZNS1_21makeCommandLineParserERNS1_10ConfigDataEE3$_6EEJRKS7_EvEENS_10shared_ptrIT_EEDpOT0_', symObjAddr: 0x67F7C, symBinAddr: 0x10007384C, symSize: 0x40 }
  - { offsetInCU: 0x9207E, offset: 0xA8EFD, size: 0x8, addend: 0x0, symName: '__ZNSt3__115allocate_sharedB8ue170006IN5Catch5clara6detail11BoundLambdaIZNS1_21makeCommandLineParserERNS1_10ConfigDataEE3$_6EENS_9allocatorIS8_EEJRKS7_EvEENS_10shared_ptrIT_EERKT0_DpOT1_', symObjAddr: 0x6801C, symBinAddr: 0x1000738EC, symSize: 0x98 }
  - { offsetInCU: 0x92445, offset: 0xA92C4, size: 0x8, addend: 0x0, symName: '__ZNSt3__111make_sharedB8ue170006IN5Catch5clara6detail11BoundLambdaIZNS1_21makeCommandLineParserERNS1_10ConfigDataEE3$_7EEJRKS7_EvEENS_10shared_ptrIT_EEDpOT0_', symObjAddr: 0x68ED8, symBinAddr: 0x1000747A8, symSize: 0x40 }
  - { offsetInCU: 0x92688, offset: 0xA9507, size: 0x8, addend: 0x0, symName: '__ZNSt3__115allocate_sharedB8ue170006IN5Catch5clara6detail11BoundLambdaIZNS1_21makeCommandLineParserERNS1_10ConfigDataEE3$_7EENS_9allocatorIS8_EEJRKS7_EvEENS_10shared_ptrIT_EERKT0_DpOT1_', symObjAddr: 0x68F78, symBinAddr: 0x100074848, symSize: 0x98 }
  - { offsetInCU: 0x92A4F, offset: 0xA98CE, size: 0x8, addend: 0x0, symName: '__ZNSt3__111make_sharedB8ue170006IN5Catch5clara6detail11BoundLambdaIZNS1_21makeCommandLineParserERNS1_10ConfigDataEE3$_8EEJRKS7_EvEENS_10shared_ptrIT_EEDpOT0_', symObjAddr: 0x69EC8, symBinAddr: 0x100075798, symSize: 0x40 }
  - { offsetInCU: 0x92C92, offset: 0xA9B11, size: 0x8, addend: 0x0, symName: '__ZNSt3__115allocate_sharedB8ue170006IN5Catch5clara6detail11BoundLambdaIZNS1_21makeCommandLineParserERNS1_10ConfigDataEE3$_8EENS_9allocatorIS8_EEJRKS7_EvEENS_10shared_ptrIT_EERKT0_DpOT1_', symObjAddr: 0x69F68, symBinAddr: 0x100075838, symSize: 0x98 }
  - { offsetInCU: 0x93059, offset: 0xA9ED8, size: 0x8, addend: 0x0, symName: '__ZNSt3__111make_sharedB8ue170006IN5Catch5clara6detail11BoundLambdaIZNS1_21makeCommandLineParserERNS1_10ConfigDataEE3$_9EEJRKS7_EvEENS_10shared_ptrIT_EEDpOT0_', symObjAddr: 0x6AE74, symBinAddr: 0x100076744, symSize: 0x40 }
  - { offsetInCU: 0x9329C, offset: 0xAA11B, size: 0x8, addend: 0x0, symName: '__ZNSt3__115allocate_sharedB8ue170006IN5Catch5clara6detail11BoundLambdaIZNS1_21makeCommandLineParserERNS1_10ConfigDataEE3$_9EENS_9allocatorIS8_EEJRKS7_EvEENS_10shared_ptrIT_EERKT0_DpOT1_', symObjAddr: 0x6AF14, symBinAddr: 0x1000767E4, symSize: 0x98 }
  - { offsetInCU: 0x93663, offset: 0xAA4E2, size: 0x8, addend: 0x0, symName: '__ZNSt3__111make_sharedB8ue170006IN5Catch5clara6detail11BoundLambdaIZNS1_21makeCommandLineParserERNS1_10ConfigDataEE4$_10EEJRKS7_EvEENS_10shared_ptrIT_EEDpOT0_', symObjAddr: 0x6BDD0, symBinAddr: 0x1000776A0, symSize: 0x40 }
  - { offsetInCU: 0x938A6, offset: 0xAA725, size: 0x8, addend: 0x0, symName: '__ZNSt3__115allocate_sharedB8ue170006IN5Catch5clara6detail11BoundLambdaIZNS1_21makeCommandLineParserERNS1_10ConfigDataEE4$_10EENS_9allocatorIS8_EEJRKS7_EvEENS_10shared_ptrIT_EERKT0_DpOT1_', symObjAddr: 0x6BE70, symBinAddr: 0x100077740, symSize: 0x98 }
  - { offsetInCU: 0x93C6D, offset: 0xAAAEC, size: 0x8, addend: 0x0, symName: __ZNSt3__111make_sharedB8ue170006IN5Catch5clara6detail13BoundValueRefIiEEJRiEvEENS_10shared_ptrIT_EEDpOT0_, symObjAddr: 0x6CD30, symBinAddr: 0x100078600, symSize: 0x40 }
  - { offsetInCU: 0x93E9D, offset: 0xAAD1C, size: 0x8, addend: 0x0, symName: __ZNSt3__115allocate_sharedB8ue170006IN5Catch5clara6detail13BoundValueRefIiEENS_9allocatorIS5_EEJRiEvEENS_10shared_ptrIT_EERKT0_DpOT1_, symObjAddr: 0x6CDD0, symBinAddr: 0x1000786A0, symSize: 0x98 }
  - { offsetInCU: 0x9424C, offset: 0xAB0CB, size: 0x8, addend: 0x0, symName: __ZNSt3__142__uninitialized_allocator_move_if_noexceptB8ue170006INS_9allocatorIN5Catch5clara6detail3ArgEEENS_16reverse_iteratorIPS5_EES9_S9_EET2_RT_T0_T1_SA_, symObjAddr: 0x6DEC4, symBinAddr: 0x100079794, symSize: 0x11C }
  - { offsetInCU: 0x942ED, offset: 0xAB16C, size: 0x8, addend: 0x0, symName: __ZNSt3__14swapB8ue170006IPN5Catch5clara6detail3ArgEEENS_9enable_ifIXaasr21is_move_constructibleIT_EE5valuesr18is_move_assignableIS7_EE5valueEvE4typeERS7_SA_, symObjAddr: 0x6DFE0, symBinAddr: 0x1000798B0, symSize: 0x3C }
  - { offsetInCU: 0x9433E, offset: 0xAB1BD, size: 0x8, addend: 0x0, symName: __ZNSt3__122__make_exception_guardB8ue170006INS_29_AllocatorDestroyRangeReverseINS_9allocatorIN5Catch5clara6detail3ArgEEENS_16reverse_iteratorIPS6_EEEEEENS_28__exception_guard_exceptionsIT_EESD_, symObjAddr: 0x6E01C, symBinAddr: 0x1000798EC, symSize: 0x4C }
  - { offsetInCU: 0x94373, offset: 0xAB1F2, size: 0x8, addend: 0x0, symName: __ZNSt3__119__allocator_destroyB8ue170006INS_9allocatorIN5Catch5clara6detail3ArgEEENS_16reverse_iteratorINS7_IPS5_EEEESA_EEvRT_T0_T1_, symObjAddr: 0x6E458, symBinAddr: 0x100079D28, symSize: 0x70 }
  - { offsetInCU: 0x943DA, offset: 0xAB259, size: 0x8, addend: 0x0, symName: __ZNSt3__1neB8ue170006INS_16reverse_iteratorIPN5Catch5clara6detail3ArgEEES7_EEbRKNS1_IT_EERKNS1_IT0_EE, symObjAddr: 0x6E504, symBinAddr: 0x100079DD4, symSize: 0x60 }
  - { offsetInCU: 0x94426, offset: 0xAB2A5, size: 0x8, addend: 0x0, symName: __ZNSt3__112__to_addressB8ue170006INS_16reverse_iteratorINS1_IPN5Catch5clara6detail3ArgEEEEEvEEu7__decayIDTclsr19__to_address_helperIT_EE6__callclsr3stdE7declvalIRKS9_EEEEESB_, symObjAddr: 0x6E564, symBinAddr: 0x100079E34, symSize: 0x24 }
  - { offsetInCU: 0x94487, offset: 0xAB306, size: 0x8, addend: 0x0, symName: __ZNSt3__112__to_addressB8ue170006INS_10unique_ptrIKN5Catch20IExceptionTranslatorENS_14default_deleteIS4_EEEEEEPT_S9_, symObjAddr: 0x6F330, symBinAddr: 0x10007AC00, symSize: 0x14 }
  - { offsetInCU: 0x944BC, offset: 0xAB33B, size: 0x8, addend: 0x0, symName: __ZNSt3__119__allocate_at_leastB8ue170006INS_9allocatorINS_10unique_ptrIKN5Catch20IExceptionTranslatorENS_14default_deleteIS5_EEEEEEEENS_19__allocation_resultINS_16allocator_traitsIT_E7pointerEEERSC_m, symObjAddr: 0x70018, symBinAddr: 0x10007B8E8, symSize: 0x40 }
  - { offsetInCU: 0x944FE, offset: 0xAB37D, size: 0x8, addend: 0x0, symName: __ZNSt3__142__uninitialized_allocator_move_if_noexceptB8ue170006INS_9allocatorINS_10unique_ptrIKN5Catch20IExceptionTranslatorENS_14default_deleteIS5_EEEEEENS_16reverse_iteratorIPS8_EESC_SC_EET2_RT_T0_T1_SD_, symObjAddr: 0x701E8, symBinAddr: 0x10007BAB8, symSize: 0x12C }
  - { offsetInCU: 0x9459F, offset: 0xAB41E, size: 0x8, addend: 0x0, symName: __ZNSt3__14swapB8ue170006IPNS_10unique_ptrIKN5Catch20IExceptionTranslatorENS_14default_deleteIS4_EEEEEENS_9enable_ifIXaasr21is_move_constructibleIT_EE5valuesr18is_move_assignableISA_EE5valueEvE4typeERSA_SD_, symObjAddr: 0x70360, symBinAddr: 0x10007BC30, symSize: 0x3C }
  - { offsetInCU: 0x945F0, offset: 0xAB46F, size: 0x8, addend: 0x0, symName: __ZNSt3__122__make_exception_guardB8ue170006INS_29_AllocatorDestroyRangeReverseINS_9allocatorINS_10unique_ptrIKN5Catch20IExceptionTranslatorENS_14default_deleteIS6_EEEEEENS_16reverse_iteratorIPS9_EEEEEENS_28__exception_guard_exceptionsIT_EESG_, symObjAddr: 0x70448, symBinAddr: 0x10007BD18, symSize: 0x4C }
  - { offsetInCU: 0x94626, offset: 0xAB4A5, size: 0x8, addend: 0x0, symName: __ZNSt3__1neB8ue170006IPNS_10unique_ptrIKN5Catch20IExceptionTranslatorENS_14default_deleteIS4_EEEES8_EEbRKNS_16reverse_iteratorIT_EERKNS9_IT0_EE, symObjAddr: 0x704D8, symBinAddr: 0x10007BDA8, symSize: 0x48 }
  - { offsetInCU: 0x94672, offset: 0xAB4F1, size: 0x8, addend: 0x0, symName: __ZNSt3__112__to_addressB8ue170006INS_16reverse_iteratorIPNS_10unique_ptrIKN5Catch20IExceptionTranslatorENS_14default_deleteIS5_EEEEEEvEEu7__decayIDTclsr19__to_address_helperIT_EE6__callclsr3stdE7declvalIRKSB_EEEEESD_, symObjAddr: 0x70520, symBinAddr: 0x10007BDF0, symSize: 0x24 }
  - { offsetInCU: 0x946D2, offset: 0xAB551, size: 0x8, addend: 0x0, symName: __ZNSt3__119__allocator_destroyB8ue170006INS_9allocatorINS_10unique_ptrIKN5Catch20IExceptionTranslatorENS_14default_deleteIS5_EEEEEENS_16reverse_iteratorINSA_IPS8_EEEESD_EEvRT_T0_T1_, symObjAddr: 0x707D0, symBinAddr: 0x10007C0A0, symSize: 0x70 }
  - { offsetInCU: 0x94739, offset: 0xAB5B8, size: 0x8, addend: 0x0, symName: __ZNSt3__1neB8ue170006INS_16reverse_iteratorIPNS_10unique_ptrIKN5Catch20IExceptionTranslatorENS_14default_deleteIS5_EEEEEESA_EEbRKNS1_IT_EERKNS1_IT0_EE, symObjAddr: 0x7087C, symBinAddr: 0x10007C14C, symSize: 0x60 }
  - { offsetInCU: 0x94785, offset: 0xAB604, size: 0x8, addend: 0x0, symName: __ZNSt3__112__to_addressB8ue170006INS_16reverse_iteratorINS1_IPNS_10unique_ptrIKN5Catch20IExceptionTranslatorENS_14default_deleteIS5_EEEEEEEEvEEu7__decayIDTclsr19__to_address_helperIT_EE6__callclsr3stdE7declvalIRKSC_EEEEESE_, symObjAddr: 0x708DC, symBinAddr: 0x10007C1AC, symSize: 0x24 }
  - { offsetInCU: 0x947E6, offset: 0xAB665, size: 0x8, addend: 0x0, symName: __ZNSt3__119__allocate_at_leastB8ue170006INS_9allocatorImEEEENS_19__allocation_resultINS_16allocator_traitsIT_E7pointerEEERS5_m, symObjAddr: 0x711F4, symBinAddr: 0x10007CAC4, symSize: 0x40 }
  - { offsetInCU: 0x94828, offset: 0xAB6A7, size: 0x8, addend: 0x0, symName: __ZNSt3__142__uninitialized_allocator_move_if_noexceptB8ue170006INS_9allocatorImEENS_16reverse_iteratorIPmEES5_mvEET1_RT_T0_S9_S6_, symObjAddr: 0x713BC, symBinAddr: 0x10007CC8C, symSize: 0x78 }
  - { offsetInCU: 0x948A8, offset: 0xAB727, size: 0x8, addend: 0x0, symName: __ZNSt3__14swapB8ue170006IPmEENS_9enable_ifIXaasr21is_move_constructibleIT_EE5valuesr18is_move_assignableIS3_EE5valueEvE4typeERS3_S6_, symObjAddr: 0x71480, symBinAddr: 0x10007CD50, symSize: 0x3C }
  - { offsetInCU: 0x948F9, offset: 0xAB778, size: 0x8, addend: 0x0, symName: __ZNSt3__14moveB8ue170006INS_16reverse_iteratorIPmEES3_EET0_T_S5_S4_, symObjAddr: 0x71590, symBinAddr: 0x10007CE60, symSize: 0x78 }
  - { offsetInCU: 0x94953, offset: 0xAB7D2, size: 0x8, addend: 0x0, symName: __ZNSt3__16__moveB8ue170006INS_17_ClassicAlgPolicyENS_16reverse_iteratorIPmEES4_S4_EENS_4pairIT0_T2_EES6_T1_S7_, symObjAddr: 0x71608, symBinAddr: 0x10007CED8, symSize: 0x64 }
  - { offsetInCU: 0x949BF, offset: 0xAB83E, size: 0x8, addend: 0x0, symName: __ZNSt3__123__dispatch_copy_or_moveB8ue170006INS_17_ClassicAlgPolicyENS_11__move_loopIS1_EENS_14__move_trivialENS_16reverse_iteratorIPmEES7_S7_EENS_4pairIT2_T4_EES9_T3_SA_, symObjAddr: 0x7166C, symBinAddr: 0x10007CF3C, symSize: 0x64 }
  - { offsetInCU: 0x94A3D, offset: 0xAB8BC, size: 0x8, addend: 0x0, symName: __ZNSt3__121__unwrap_and_dispatchB8ue170006INS_10__overloadINS_11__move_loopINS_17_ClassicAlgPolicyEEENS_14__move_trivialEEENS_16reverse_iteratorIPmEES9_S9_Li0EEENS_4pairIT0_T2_EESB_T1_SC_, symObjAddr: 0x716D0, symBinAddr: 0x10007CFA0, symSize: 0x12C }
  - { offsetInCU: 0x94ACE, offset: 0xAB94D, size: 0x8, addend: 0x0, symName: __ZNSt3__114__unwrap_rangeB8ue170006INS_16reverse_iteratorIPmEES3_EENS_4pairIT0_S5_EET_S7_, symObjAddr: 0x717FC, symBinAddr: 0x10007D0CC, symSize: 0x84 }
  - { offsetInCU: 0x94BEF, offset: 0xABA6E, size: 0x8, addend: 0x0, symName: __ZNSt3__113__unwrap_iterB8ue170006INS_16reverse_iteratorIPmEENS_18__unwrap_iter_implIS3_Lb0EEELi0EEEDTclsrT0_8__unwrapclsr3stdE7declvalIT_EEEES7_, symObjAddr: 0x71920, symBinAddr: 0x10007D1F0, symSize: 0x44 }
  - { offsetInCU: 0x94C33, offset: 0xABAB2, size: 0x8, addend: 0x0, symName: __ZNSt3__19make_pairB8ue170006INS_16reverse_iteratorIPmEES3_EENS_4pairINS_18__unwrap_ref_decayIT_E4typeENS5_IT0_E4typeEEEOS6_OS9_, symObjAddr: 0x71964, symBinAddr: 0x10007D234, symSize: 0x38 }
  - { offsetInCU: 0x94C83, offset: 0xABB02, size: 0x8, addend: 0x0, symName: __ZNSt3__114__rewrap_rangeB8ue170006INS_16reverse_iteratorIPmEES3_EET_S4_T0_, symObjAddr: 0x7199C, symBinAddr: 0x10007D26C, symSize: 0x5C }
  - { offsetInCU: 0x94CCF, offset: 0xABB4E, size: 0x8, addend: 0x0, symName: __ZNSt3__113__rewrap_iterB8ue170006INS_16reverse_iteratorIPmEES3_NS_18__unwrap_iter_implIS3_Lb0EEEEET_S6_T0_, symObjAddr: 0x719F8, symBinAddr: 0x10007D2C8, symSize: 0x74 }
  - { offsetInCU: 0x94D24, offset: 0xABBA3, size: 0x8, addend: 0x0, symName: __ZNSt3__1neB8ue170006IPmS1_EEbRKNS_16reverse_iteratorIT_EERKNS2_IT0_EE, symObjAddr: 0x71A6C, symBinAddr: 0x10007D33C, symSize: 0x48 }
  - { offsetInCU: 0x94DDE, offset: 0xABC5D, size: 0x8, addend: 0x0, symName: __ZNSt3__113__countl_zeroB8ue170006ImEEiT_, symObjAddr: 0x72624, symBinAddr: 0x10007DEF4, symSize: 0x54 }
  - { offsetInCU: 0x94E38, offset: 0xABCB7, size: 0x8, addend: 0x0, symName: __ZNSt3__112__libcpp_clzB8ue170006Em, symObjAddr: 0x72CA0, symBinAddr: 0x10007E570, symSize: 0x1C }
  - { offsetInCU: 0x94E81, offset: 0xABD00, size: 0x8, addend: 0x0, symName: __ZNSt3__127__tree_balance_after_insertB8ue170006IPNS_16__tree_node_baseIPvEEEEvT_S5_, symObjAddr: 0x7370C, symBinAddr: 0x10007EFDC, symSize: 0x32C }
  - { offsetInCU: 0x94EFF, offset: 0xABD7E, size: 0x8, addend: 0x0, symName: __ZNSt3__120__tree_is_left_childB8ue170006IPNS_16__tree_node_baseIPvEEEEbT_, symObjAddr: 0x73A78, symBinAddr: 0x10007F348, symSize: 0x2C }
  - { offsetInCU: 0x94F33, offset: 0xABDB2, size: 0x8, addend: 0x0, symName: __ZNSt3__118__tree_left_rotateB8ue170006IPNS_16__tree_node_baseIPvEEEEvT_, symObjAddr: 0x73AA4, symBinAddr: 0x10007F374, symSize: 0xD8 }
  - { offsetInCU: 0x94F76, offset: 0xABDF5, size: 0x8, addend: 0x0, symName: __ZNSt3__119__tree_right_rotateB8ue170006IPNS_16__tree_node_baseIPvEEEEvT_, symObjAddr: 0x73B7C, symBinAddr: 0x10007F44C, symSize: 0xCC }
  - { offsetInCU: 0x95464, offset: 0xAC2E3, size: 0x8, addend: 0x0, symName: __ZNSt3__122__make_exception_guardB8ue170006INS_6vectorIN5Catch11MessageInfoENS_9allocatorIS3_EEE16__destroy_vectorEEENS_28__exception_guard_exceptionsIT_EES9_, symObjAddr: 0x75298, symBinAddr: 0x100080B68, symSize: 0x40 }
  - { offsetInCU: 0x95499, offset: 0xAC318, size: 0x8, addend: 0x0, symName: __ZNSt3__119__allocate_at_leastB8ue170006INS_9allocatorIN5Catch11MessageInfoEEEEENS_19__allocation_resultINS_16allocator_traitsIT_E7pointerEEERS7_m, symObjAddr: 0x75588, symBinAddr: 0x100080E58, symSize: 0x40 }
  - { offsetInCU: 0x954DC, offset: 0xAC35B, size: 0x8, addend: 0x0, symName: __ZNSt3__112__to_addressB8ue170006IN5Catch11MessageInfoEEEPT_S4_, symObjAddr: 0x75878, symBinAddr: 0x100081148, symSize: 0x14 }
  - { offsetInCU: 0x95510, offset: 0xAC38F, size: 0x8, addend: 0x0, symName: __ZNSt3__130__uninitialized_allocator_copyB8ue170006INS_9allocatorIN5Catch11MessageInfoEEEPS3_S5_S5_EET2_RT_T0_T1_S6_, symObjAddr: 0x75928, symBinAddr: 0x1000811F8, symSize: 0x80 }
  - { offsetInCU: 0x955AE, offset: 0xAC42D, size: 0x8, addend: 0x0, symName: __ZNSt3__114__unwrap_rangeB8ue170006IPN5Catch11MessageInfoES3_EENS_4pairIT0_S5_EET_S7_, symObjAddr: 0x75A20, symBinAddr: 0x1000812F0, symSize: 0x60 }
  - { offsetInCU: 0x955F9, offset: 0xAC478, size: 0x8, addend: 0x0, symName: __ZNSt3__135__uninitialized_allocator_copy_implB8ue170006INS_9allocatorIN5Catch11MessageInfoEEEPS3_S5_S5_EET2_RT_T0_T1_S6_, symObjAddr: 0x75A80, symBinAddr: 0x100081350, symSize: 0xF4 }
  - { offsetInCU: 0x95698, offset: 0xAC517, size: 0x8, addend: 0x0, symName: __ZNSt3__113__unwrap_iterB8ue170006IPN5Catch11MessageInfoENS_18__unwrap_iter_implIS3_Lb1EEELi0EEEDTclsrT0_8__unwrapclsr3stdE7declvalIT_EEEES7_, symObjAddr: 0x75B74, symBinAddr: 0x100081444, symSize: 0x24 }
  - { offsetInCU: 0x956DD, offset: 0xAC55C, size: 0x8, addend: 0x0, symName: __ZNSt3__113__rewrap_iterB8ue170006IPN5Catch11MessageInfoES3_NS_18__unwrap_iter_implIS3_Lb1EEEEET_S6_T0_, symObjAddr: 0x75B98, symBinAddr: 0x100081468, symSize: 0x3C }
  - { offsetInCU: 0x95731, offset: 0xAC5B0, size: 0x8, addend: 0x0, symName: __ZNSt3__19make_pairB8ue170006IPN5Catch11MessageInfoES3_EENS_4pairINS_18__unwrap_ref_decayIT_E4typeENS5_IT0_E4typeEEEOS6_OS9_, symObjAddr: 0x75BD4, symBinAddr: 0x1000814A4, symSize: 0x38 }
  - { offsetInCU: 0x95856, offset: 0xAC6D5, size: 0x8, addend: 0x0, symName: __ZNSt3__122__make_exception_guardB8ue170006INS_29_AllocatorDestroyRangeReverseINS_9allocatorIN5Catch11MessageInfoEEEPS4_EEEENS_28__exception_guard_exceptionsIT_EES9_, symObjAddr: 0x75C7C, symBinAddr: 0x10008154C, symSize: 0x4C }
  - { offsetInCU: 0x9588B, offset: 0xAC70A, size: 0x8, addend: 0x0, symName: __ZNSt3__119__allocator_destroyB8ue170006INS_9allocatorIN5Catch11MessageInfoEEENS_16reverse_iteratorIPS3_EES7_EEvRT_T0_T1_, symObjAddr: 0x75F0C, symBinAddr: 0x1000817DC, symSize: 0x70 }
  - { offsetInCU: 0x958F0, offset: 0xAC76F, size: 0x8, addend: 0x0, symName: __ZNSt3__1neB8ue170006IPN5Catch11MessageInfoES3_EEbRKNS_16reverse_iteratorIT_EERKNS4_IT0_EE, symObjAddr: 0x75FB0, symBinAddr: 0x100081880, symSize: 0x48 }
  - { offsetInCU: 0x9593C, offset: 0xAC7BB, size: 0x8, addend: 0x0, symName: __ZNSt3__112__to_addressB8ue170006INS_16reverse_iteratorIPN5Catch11MessageInfoEEEvEEu7__decayIDTclsr19__to_address_helperIT_EE6__callclsr3stdE7declvalIRKS6_EEEEES8_, symObjAddr: 0x76024, symBinAddr: 0x1000818F4, symSize: 0x24 }
  - { offsetInCU: 0x959F0, offset: 0xAC86F, size: 0x8, addend: 0x0, symName: __ZNSt3__142__uninitialized_allocator_move_if_noexceptB8ue170006INS_9allocatorIN5Catch11MessageInfoEEENS_16reverse_iteratorIPS3_EES7_S7_EET2_RT_T0_T1_S8_, symObjAddr: 0x76B48, symBinAddr: 0x100082418, symSize: 0x11C }
  - { offsetInCU: 0x95A91, offset: 0xAC910, size: 0x8, addend: 0x0, symName: __ZNSt3__14swapB8ue170006IPN5Catch11MessageInfoEEENS_9enable_ifIXaasr21is_move_constructibleIT_EE5valuesr18is_move_assignableIS5_EE5valueEvE4typeERS5_S8_, symObjAddr: 0x76C64, symBinAddr: 0x100082534, symSize: 0x3C }
  - { offsetInCU: 0x95AE2, offset: 0xAC961, size: 0x8, addend: 0x0, symName: __ZNSt3__122__make_exception_guardB8ue170006INS_29_AllocatorDestroyRangeReverseINS_9allocatorIN5Catch11MessageInfoEEENS_16reverse_iteratorIPS4_EEEEEENS_28__exception_guard_exceptionsIT_EESB_, symObjAddr: 0x76CA0, symBinAddr: 0x100082570, symSize: 0x4C }
  - { offsetInCU: 0x95B17, offset: 0xAC996, size: 0x8, addend: 0x0, symName: __ZNSt3__119__allocator_destroyB8ue170006INS_9allocatorIN5Catch11MessageInfoEEENS_16reverse_iteratorINS5_IPS3_EEEES8_EEvRT_T0_T1_, symObjAddr: 0x77084, symBinAddr: 0x100082954, symSize: 0x70 }
  - { offsetInCU: 0x95B7E, offset: 0xAC9FD, size: 0x8, addend: 0x0, symName: __ZNSt3__1neB8ue170006INS_16reverse_iteratorIPN5Catch11MessageInfoEEES5_EEbRKNS1_IT_EERKNS1_IT0_EE, symObjAddr: 0x77130, symBinAddr: 0x100082A00, symSize: 0x60 }
  - { offsetInCU: 0x95BCA, offset: 0xACA49, size: 0x8, addend: 0x0, symName: __ZNSt3__112__to_addressB8ue170006INS_16reverse_iteratorINS1_IPN5Catch11MessageInfoEEEEEvEEu7__decayIDTclsr19__to_address_helperIT_EE6__callclsr3stdE7declvalIRKS7_EEEEES9_, symObjAddr: 0x77190, symBinAddr: 0x100082A60, symSize: 0x24 }
  - { offsetInCU: 0x95C2B, offset: 0xACAAA, size: 0x8, addend: 0x0, symName: __ZNSt3__112__to_addressB8ue170006IN5Catch8TestCaseEEEPT_S4_, symObjAddr: 0x77848, symBinAddr: 0x100083118, symSize: 0x14 }
  - { offsetInCU: 0x95CA2, offset: 0xACB21, size: 0x8, addend: 0x0, symName: __ZNSt3__1eqB8ue170006ERKNS_21__tree_const_iteratorINS_12basic_stringIcNS_11char_traitsIcEENS_9allocatorIcEEEEPNS_11__tree_nodeIS6_PvEElEESD_, symObjAddr: 0x78804, symBinAddr: 0x1000840D4, symSize: 0x30 }
  - { offsetInCU: 0x95CE1, offset: 0xACB60, size: 0x8, addend: 0x0, symName: __ZNSt3__116__tree_next_iterB8ue170006IPNS_15__tree_end_nodeIPNS_16__tree_node_baseIPvEEEES5_EET_T0_, symObjAddr: 0x78834, symBinAddr: 0x100084104, symSize: 0x80 }
  - { offsetInCU: 0x95D1F, offset: 0xACB9E, size: 0x8, addend: 0x0, symName: __ZNSt3__110__tree_minB8ue170006IPNS_16__tree_node_baseIPvEEEET_S5_, symObjAddr: 0x788B4, symBinAddr: 0x100084184, symSize: 0x40 }
  - { offsetInCU: 0x95D53, offset: 0xACBD2, size: 0x8, addend: 0x0, symName: __ZNSt3__1neB8ue170006ERKNS_15__tree_iteratorINS_12__value_typeINS_12basic_stringIcNS_11char_traitsIcEENS_9allocatorIcEEEEN5Catch7TagInfoEEEPNS_11__tree_nodeISA_PvEElEESH_, symObjAddr: 0x79124, symBinAddr: 0x1000849F4, symSize: 0x34 }
  - { offsetInCU: 0x95D90, offset: 0xACC0F, size: 0x8, addend: 0x0, symName: __ZNSt3__1eqB8ue170006ERKNS_15__tree_iteratorINS_12__value_typeINS_12basic_stringIcNS_11char_traitsIcEENS_9allocatorIcEEEEN5Catch7TagInfoEEEPNS_11__tree_nodeISA_PvEElEESH_, symObjAddr: 0x792DC, symBinAddr: 0x100084BAC, symSize: 0x30 }
  - { offsetInCU: 0x95E8F, offset: 0xACD0E, size: 0x8, addend: 0x0, symName: __ZNSt3__19use_facetB8ue170006INS_7collateIcEEEERKT_RKNS_6localeE, symObjAddr: 0x7A69C, symBinAddr: 0x100085F6C, symSize: 0x2C }
  - { offsetInCU: 0x95EC3, offset: 0xACD42, size: 0x8, addend: 0x0, symName: __ZNSt3__119__throw_regex_errorB8ue170006ILNS_15regex_constants10error_typeE17EEEvv, symObjAddr: 0x7A998, symBinAddr: 0x100086268, symSize: 0x60 }
  - { offsetInCU: 0x96358, offset: 0xAD1D7, size: 0x8, addend: 0x0, symName: __ZNSt3__119__throw_regex_errorB8ue170006ILNS_15regex_constants10error_typeE14EEEvv, symObjAddr: 0x7B33C, symBinAddr: 0x100086C0C, symSize: 0x60 }
  - { offsetInCU: 0x96F2C, offset: 0xADDAB, size: 0x8, addend: 0x0, symName: __ZNSt3__14swapB8ue170006IPNS_13__empty_stateIcEEEENS_9enable_ifIXaasr21is_move_constructibleIT_EE5valuesr18is_move_assignableIS5_EE5valueEvE4typeERS5_S8_, symObjAddr: 0x7C20C, symBinAddr: 0x100087ADC, symSize: 0x3C }
  - { offsetInCU: 0x96F7D, offset: 0xADDFC, size: 0x8, addend: 0x0, symName: __ZNSt3__14nextB8ue170006INS_11__wrap_iterIPKcEEEENS_9enable_ifIXsr29__has_input_iterator_categoryIT_EE5valueES6_E4typeES6_NS_15iterator_traitsIS6_E15difference_typeE, symObjAddr: 0x7DAC8, symBinAddr: 0x100089398, symSize: 0x3C }
  - { offsetInCU: 0x96FBF, offset: 0xADE3E, size: 0x8, addend: 0x0, symName: __ZNSt3__119__throw_regex_errorB8ue170006ILNS_15regex_constants10error_typeE6EEEvv, symObjAddr: 0x7DCC4, symBinAddr: 0x100089594, symSize: 0x60 }
  - { offsetInCU: 0x9706C, offset: 0xADEEB, size: 0x8, addend: 0x0, symName: __ZNSt3__18__is_eolB8ue170006IcEEbT_, symObjAddr: 0x7E018, symBinAddr: 0x1000898E8, symSize: 0x48 }
  - { offsetInCU: 0x970A5, offset: 0xADF24, size: 0x8, addend: 0x0, symName: __ZNSt3__14prevB8ue170006IPKcEENS_9enable_ifIXsr29__has_input_iterator_categoryIT_EE5valueES4_E4typeES4_NS_15iterator_traitsIS4_E15difference_typeE, symObjAddr: 0x7E060, symBinAddr: 0x100089930, symSize: 0x3C }
  - { offsetInCU: 0x970E8, offset: 0xADF67, size: 0x8, addend: 0x0, symName: __ZNSt3__19__advanceB8ue170006IPKcEEvRT_NS_15iterator_traitsIS3_E15difference_typeENS_26random_access_iterator_tagE, symObjAddr: 0x7E0D4, symBinAddr: 0x1000899A4, symSize: 0x28 }
  - { offsetInCU: 0x971B9, offset: 0xAE038, size: 0x8, addend: 0x0, symName: __ZNSt3__19__advanceB8ue170006INS_11__wrap_iterIPKcEEEEvRT_NS_15iterator_traitsIS5_E15difference_typeENS_26random_access_iterator_tagE, symObjAddr: 0x7E354, symBinAddr: 0x100089C24, symSize: 0x2C }
  - { offsetInCU: 0x9766F, offset: 0xAE4EE, size: 0x8, addend: 0x0, symName: __ZNSt3__112__to_addressB8ue170006INS_9sub_matchIPKcEEEEPT_S6_, symObjAddr: 0x7FD40, symBinAddr: 0x10008B610, symSize: 0x14 }
  - { offsetInCU: 0x976A4, offset: 0xAE523, size: 0x8, addend: 0x0, symName: __ZNSt3__16fill_nB8ue170006IPNS_9sub_matchIPKcEEmS4_EET_S6_T0_RKT1_, symObjAddr: 0x7FFC4, symBinAddr: 0x10008B894, symSize: 0x44 }
  - { offsetInCU: 0x97707, offset: 0xAE586, size: 0x8, addend: 0x0, symName: __ZNSt3__18__fill_nB8ue170006IPNS_9sub_matchIPKcEEmS4_EET_S6_T0_RKT1_, symObjAddr: 0x80320, symBinAddr: 0x10008BBF0, symSize: 0x6C }
  - { offsetInCU: 0x9776A, offset: 0xAE5E9, size: 0x8, addend: 0x0, symName: __ZNSt3__119__allocate_at_leastB8ue170006INS_9allocatorINS_9sub_matchIPKcEEEEEENS_19__allocation_resultINS_16allocator_traitsIT_E7pointerEEERS9_m, symObjAddr: 0x806B4, symBinAddr: 0x10008BF84, symSize: 0x40 }
  - { offsetInCU: 0x977AC, offset: 0xAE62B, size: 0x8, addend: 0x0, symName: __ZNSt3__119__throw_regex_errorB8ue170006ILNS_15regex_constants10error_typeE12EEEvv, symObjAddr: 0x80B10, symBinAddr: 0x10008C3E0, symSize: 0x60 }
  - { offsetInCU: 0x977D3, offset: 0xAE652, size: 0x8, addend: 0x0, symName: __ZNSt3__14nextB8ue170006IPKcEENS_9enable_ifIXsr29__has_input_iterator_categoryIT_EE5valueES4_E4typeES4_NS_15iterator_traitsIS4_E15difference_typeE, symObjAddr: 0x80B9C, symBinAddr: 0x10008C46C, symSize: 0x34 }
  - { offsetInCU: 0x97815, offset: 0xAE694, size: 0x8, addend: 0x0, symName: __ZNSt3__119__throw_regex_errorB8ue170006ILNS_15regex_constants10error_typeE16EEEvv, symObjAddr: 0x80C04, symBinAddr: 0x10008C4D4, symSize: 0x60 }
  - { offsetInCU: 0x9783C, offset: 0xAE6BB, size: 0x8, addend: 0x0, symName: __ZNSt3__112__to_addressB8ue170006INS_7__stateIcEEEEPT_S4_, symObjAddr: 0x81068, symBinAddr: 0x10008C938, symSize: 0x14 }
  - { offsetInCU: 0x97871, offset: 0xAE6F0, size: 0x8, addend: 0x0, symName: __ZNSt3__119__allocate_at_leastB8ue170006INS_9allocatorINS_7__stateIcEEEEEENS_19__allocation_resultINS_16allocator_traitsIT_E7pointerEEERS7_m, symObjAddr: 0x81B54, symBinAddr: 0x10008D424, symSize: 0x40 }
  - { offsetInCU: 0x978B3, offset: 0xAE732, size: 0x8, addend: 0x0, symName: __ZNSt3__142__uninitialized_allocator_move_if_noexceptB8ue170006INS_9allocatorINS_7__stateIcEEEENS_16reverse_iteratorIPS3_EES7_S7_EET2_RT_T0_T1_S8_, symObjAddr: 0x81DE0, symBinAddr: 0x10008D6B0, symSize: 0x12C }
  - { offsetInCU: 0x97954, offset: 0xAE7D3, size: 0x8, addend: 0x0, symName: __ZNSt3__14swapB8ue170006IPNS_7__stateIcEEEENS_9enable_ifIXaasr21is_move_constructibleIT_EE5valuesr18is_move_assignableIS5_EE5valueEvE4typeERS5_S8_, symObjAddr: 0x81F58, symBinAddr: 0x10008D828, symSize: 0x3C }
  - { offsetInCU: 0x979A5, offset: 0xAE824, size: 0x8, addend: 0x0, symName: __ZNSt3__122__make_exception_guardB8ue170006INS_29_AllocatorDestroyRangeReverseINS_9allocatorINS_7__stateIcEEEENS_16reverse_iteratorIPS4_EEEEEENS_28__exception_guard_exceptionsIT_EESB_, symObjAddr: 0x820A4, symBinAddr: 0x10008D974, symSize: 0x4C }
  - { offsetInCU: 0x979DB, offset: 0xAE85A, size: 0x8, addend: 0x0, symName: __ZNSt3__1neB8ue170006IPNS_7__stateIcEES3_EEbRKNS_16reverse_iteratorIT_EERKNS4_IT0_EE, symObjAddr: 0x82134, symBinAddr: 0x10008DA04, symSize: 0x48 }
  - { offsetInCU: 0x97A27, offset: 0xAE8A6, size: 0x8, addend: 0x0, symName: __ZNSt3__112__to_addressB8ue170006INS_16reverse_iteratorIPNS_7__stateIcEEEEvEEu7__decayIDTclsr19__to_address_helperIT_EE6__callclsr3stdE7declvalIRKS6_EEEEES8_, symObjAddr: 0x8217C, symBinAddr: 0x10008DA4C, symSize: 0x24 }
  - { offsetInCU: 0x97A87, offset: 0xAE906, size: 0x8, addend: 0x0, symName: __ZNSt3__119__allocator_destroyB8ue170006INS_9allocatorINS_7__stateIcEEEENS_16reverse_iteratorINS5_IPS3_EEEES8_EEvRT_T0_T1_, symObjAddr: 0x8242C, symBinAddr: 0x10008DCFC, symSize: 0x70 }
  - { offsetInCU: 0x97AEE, offset: 0xAE96D, size: 0x8, addend: 0x0, symName: __ZNSt3__1neB8ue170006INS_16reverse_iteratorIPNS_7__stateIcEEEES5_EEbRKNS1_IT_EERKNS1_IT0_EE, symObjAddr: 0x824D8, symBinAddr: 0x10008DDA8, symSize: 0x60 }
  - { offsetInCU: 0x97B3A, offset: 0xAE9B9, size: 0x8, addend: 0x0, symName: __ZNSt3__112__to_addressB8ue170006INS_16reverse_iteratorINS1_IPNS_7__stateIcEEEEEEvEEu7__decayIDTclsr19__to_address_helperIT_EE6__callclsr3stdE7declvalIRKS7_EEEEES9_, symObjAddr: 0x82564, symBinAddr: 0x10008DE34, symSize: 0x24 }
  - { offsetInCU: 0x97B9B, offset: 0xAEA1A, size: 0x8, addend: 0x0, symName: __ZNSt3__112__to_addressB8ue170006INS_4pairImPKcEEEEPT_S6_, symObjAddr: 0x82FDC, symBinAddr: 0x10008E8AC, symSize: 0x14 }
  - { offsetInCU: 0x97BCF, offset: 0xAEA4E, size: 0x8, addend: 0x0, symName: __ZNSt3__142__uninitialized_allocator_move_if_noexceptB8ue170006INS_9allocatorINS_9sub_matchIPKcEEEENS_16reverse_iteratorIPS5_EES9_S9_EET2_RT_T0_T1_SA_, symObjAddr: 0x83770, symBinAddr: 0x10008F040, symSize: 0x12C }
  - { offsetInCU: 0x97C70, offset: 0xAEAEF, size: 0x8, addend: 0x0, symName: __ZNSt3__14swapB8ue170006IPNS_9sub_matchIPKcEEEENS_9enable_ifIXaasr21is_move_constructibleIT_EE5valuesr18is_move_assignableIS7_EE5valueEvE4typeERS7_SA_, symObjAddr: 0x838E8, symBinAddr: 0x10008F1B8, symSize: 0x3C }
  - { offsetInCU: 0x97CC1, offset: 0xAEB40, size: 0x8, addend: 0x0, symName: __ZNSt3__122__make_exception_guardB8ue170006INS_29_AllocatorDestroyRangeReverseINS_9allocatorINS_9sub_matchIPKcEEEENS_16reverse_iteratorIPS6_EEEEEENS_28__exception_guard_exceptionsIT_EESD_, symObjAddr: 0x83924, symBinAddr: 0x10008F1F4, symSize: 0x4C }
  - { offsetInCU: 0x97CF7, offset: 0xAEB76, size: 0x8, addend: 0x0, symName: __ZNSt3__1neB8ue170006IPNS_9sub_matchIPKcEES5_EEbRKNS_16reverse_iteratorIT_EERKNS6_IT0_EE, symObjAddr: 0x839B4, symBinAddr: 0x10008F284, symSize: 0x48 }
  - { offsetInCU: 0x97D43, offset: 0xAEBC2, size: 0x8, addend: 0x0, symName: __ZNSt3__112__to_addressB8ue170006INS_16reverse_iteratorIPNS_9sub_matchIPKcEEEEvEEu7__decayIDTclsr19__to_address_helperIT_EE6__callclsr3stdE7declvalIRKS8_EEEEESA_, symObjAddr: 0x83A30, symBinAddr: 0x10008F300, symSize: 0x24 }
  - { offsetInCU: 0x97DA3, offset: 0xAEC22, size: 0x8, addend: 0x0, symName: __ZNSt3__119__allocator_destroyB8ue170006INS_9allocatorINS_9sub_matchIPKcEEEENS_16reverse_iteratorINS7_IPS5_EEEESA_EEvRT_T0_T1_, symObjAddr: 0x83D10, symBinAddr: 0x10008F5E0, symSize: 0x70 }
  - { offsetInCU: 0x97E0A, offset: 0xAEC89, size: 0x8, addend: 0x0, symName: __ZNSt3__1neB8ue170006INS_16reverse_iteratorIPNS_9sub_matchIPKcEEEES7_EEbRKNS1_IT_EERKNS1_IT0_EE, symObjAddr: 0x83DBC, symBinAddr: 0x10008F68C, symSize: 0x60 }
  - { offsetInCU: 0x97E56, offset: 0xAECD5, size: 0x8, addend: 0x0, symName: __ZNSt3__112__to_addressB8ue170006INS_16reverse_iteratorINS1_IPNS_9sub_matchIPKcEEEEEEvEEu7__decayIDTclsr19__to_address_helperIT_EE6__callclsr3stdE7declvalIRKS9_EEEEESB_, symObjAddr: 0x83E1C, symBinAddr: 0x10008F6EC, symSize: 0x24 }
  - { offsetInCU: 0x97EB7, offset: 0xAED36, size: 0x8, addend: 0x0, symName: __ZNSt3__119__allocate_at_leastB8ue170006INS_9allocatorINS_4pairImPKcEEEEEENS_19__allocation_resultINS_16allocator_traitsIT_E7pointerEEERS9_m, symObjAddr: 0x84A14, symBinAddr: 0x1000902E4, symSize: 0x40 }
  - { offsetInCU: 0x97EF9, offset: 0xAED78, size: 0x8, addend: 0x0, symName: __ZNSt3__142__uninitialized_allocator_move_if_noexceptB8ue170006INS_9allocatorINS_4pairImPKcEEEENS_16reverse_iteratorIPS5_EES9_S9_EET2_RT_T0_T1_SA_, symObjAddr: 0x84C94, symBinAddr: 0x100090564, symSize: 0x12C }
  - { offsetInCU: 0x97F9A, offset: 0xAEE19, size: 0x8, addend: 0x0, symName: __ZNSt3__14swapB8ue170006IPNS_4pairImPKcEEEENS_9enable_ifIXaasr21is_move_constructibleIT_EE5valuesr18is_move_assignableIS7_EE5valueEvE4typeERS7_SA_, symObjAddr: 0x84E0C, symBinAddr: 0x1000906DC, symSize: 0x3C }
  - { offsetInCU: 0x97FEB, offset: 0xAEE6A, size: 0x8, addend: 0x0, symName: __ZNSt3__122__make_exception_guardB8ue170006INS_29_AllocatorDestroyRangeReverseINS_9allocatorINS_4pairImPKcEEEENS_16reverse_iteratorIPS6_EEEEEENS_28__exception_guard_exceptionsIT_EESD_, symObjAddr: 0x84EF4, symBinAddr: 0x1000907C4, symSize: 0x4C }
  - { offsetInCU: 0x98021, offset: 0xAEEA0, size: 0x8, addend: 0x0, symName: __ZNSt3__1neB8ue170006IPNS_4pairImPKcEES5_EEbRKNS_16reverse_iteratorIT_EERKNS6_IT0_EE, symObjAddr: 0x84F84, symBinAddr: 0x100090854, symSize: 0x48 }
  - { offsetInCU: 0x9806D, offset: 0xAEEEC, size: 0x8, addend: 0x0, symName: __ZNSt3__112__to_addressB8ue170006INS_16reverse_iteratorIPNS_4pairImPKcEEEEvEEu7__decayIDTclsr19__to_address_helperIT_EE6__callclsr3stdE7declvalIRKS8_EEEEESA_, symObjAddr: 0x85000, symBinAddr: 0x1000908D0, symSize: 0x24 }
  - { offsetInCU: 0x980CD, offset: 0xAEF4C, size: 0x8, addend: 0x0, symName: __ZNSt3__119__allocator_destroyB8ue170006INS_9allocatorINS_4pairImPKcEEEENS_16reverse_iteratorINS7_IPS5_EEEESA_EEvRT_T0_T1_, symObjAddr: 0x852D8, symBinAddr: 0x100090BA8, symSize: 0x70 }
  - { offsetInCU: 0x98134, offset: 0xAEFB3, size: 0x8, addend: 0x0, symName: __ZNSt3__1neB8ue170006INS_16reverse_iteratorIPNS_4pairImPKcEEEES7_EEbRKNS1_IT_EERKNS1_IT0_EE, symObjAddr: 0x85384, symBinAddr: 0x100090C54, symSize: 0x60 }
  - { offsetInCU: 0x98180, offset: 0xAEFFF, size: 0x8, addend: 0x0, symName: __ZNSt3__112__to_addressB8ue170006INS_16reverse_iteratorINS1_IPNS_4pairImPKcEEEEEEvEEu7__decayIDTclsr19__to_address_helperIT_EE6__callclsr3stdE7declvalIRKS9_EEEEESB_, symObjAddr: 0x853E4, symBinAddr: 0x100090CB4, symSize: 0x24 }
  - { offsetInCU: 0x981E1, offset: 0xAF060, size: 0x8, addend: 0x0, symName: __ZNSt3__122__make_exception_guardB8ue170006INS_6vectorINS_9sub_matchIPKcEENS_9allocatorIS5_EEE16__destroy_vectorEEENS_28__exception_guard_exceptionsIT_EESB_, symObjAddr: 0x85C10, symBinAddr: 0x1000914E0, symSize: 0x40 }
  - { offsetInCU: 0x98215, offset: 0xAF094, size: 0x8, addend: 0x0, symName: __ZNSt3__130__uninitialized_allocator_copyB8ue170006INS_9allocatorINS_9sub_matchIPKcEEEEPS5_S7_S7_EET2_RT_T0_T1_S8_, symObjAddr: 0x85D7C, symBinAddr: 0x10009164C, symSize: 0x80 }
  - { offsetInCU: 0x982B3, offset: 0xAF132, size: 0x8, addend: 0x0, symName: __ZNSt3__114__unwrap_rangeB8ue170006IPNS_9sub_matchIPKcEES5_EENS_4pairIT0_S7_EET_S9_, symObjAddr: 0x85DFC, symBinAddr: 0x1000916CC, symSize: 0x60 }
  - { offsetInCU: 0x982FE, offset: 0xAF17D, size: 0x8, addend: 0x0, symName: __ZNSt3__135__uninitialized_allocator_copy_implB8ue170006INS_9allocatorINS_9sub_matchIPKcEEEEPS5_S7_S7_EET2_RT_T0_T1_S8_, symObjAddr: 0x85E5C, symBinAddr: 0x10009172C, symSize: 0xF4 }
  - { offsetInCU: 0x9839D, offset: 0xAF21C, size: 0x8, addend: 0x0, symName: __ZNSt3__113__unwrap_iterB8ue170006IPNS_9sub_matchIPKcEENS_18__unwrap_iter_implIS5_Lb1EEELi0EEEDTclsrT0_8__unwrapclsr3stdE7declvalIT_EEEES9_, symObjAddr: 0x85F50, symBinAddr: 0x100091820, symSize: 0x24 }
  - { offsetInCU: 0x983E2, offset: 0xAF261, size: 0x8, addend: 0x0, symName: __ZNSt3__113__rewrap_iterB8ue170006IPNS_9sub_matchIPKcEES5_NS_18__unwrap_iter_implIS5_Lb1EEEEET_S8_T0_, symObjAddr: 0x85F74, symBinAddr: 0x100091844, symSize: 0x3C }
  - { offsetInCU: 0x98436, offset: 0xAF2B5, size: 0x8, addend: 0x0, symName: __ZNSt3__19make_pairB8ue170006IPNS_9sub_matchIPKcEES5_EENS_4pairINS_18__unwrap_ref_decayIT_E4typeENS7_IT0_E4typeEEEOS8_OSB_, symObjAddr: 0x85FB0, symBinAddr: 0x100091880, symSize: 0x38 }
  - { offsetInCU: 0x9855B, offset: 0xAF3DA, size: 0x8, addend: 0x0, symName: __ZNSt3__122__make_exception_guardB8ue170006INS_29_AllocatorDestroyRangeReverseINS_9allocatorINS_9sub_matchIPKcEEEEPS6_EEEENS_28__exception_guard_exceptionsIT_EESB_, symObjAddr: 0x86058, symBinAddr: 0x100091928, symSize: 0x4C }
  - { offsetInCU: 0x98590, offset: 0xAF40F, size: 0x8, addend: 0x0, symName: __ZNSt3__119__allocator_destroyB8ue170006INS_9allocatorINS_9sub_matchIPKcEEEENS_16reverse_iteratorIPS5_EES9_EEvRT_T0_T1_, symObjAddr: 0x862E8, symBinAddr: 0x100091BB8, symSize: 0x70 }
  - { offsetInCU: 0x98649, offset: 0xAF4C8, size: 0x8, addend: 0x0, symName: __ZNSt3__122__make_exception_guardB8ue170006INS_6vectorINS_4pairImPKcEENS_9allocatorIS5_EEE16__destroy_vectorEEENS_28__exception_guard_exceptionsIT_EESB_, symObjAddr: 0x86578, symBinAddr: 0x100091E48, symSize: 0x40 }
  - { offsetInCU: 0x9867D, offset: 0xAF4FC, size: 0x8, addend: 0x0, symName: __ZNSt3__130__uninitialized_allocator_copyB8ue170006INS_9allocatorINS_4pairImPKcEEEEPS5_S7_S7_EET2_RT_T0_T1_S8_, symObjAddr: 0x86790, symBinAddr: 0x100092060, symSize: 0x80 }
  - { offsetInCU: 0x9871B, offset: 0xAF59A, size: 0x8, addend: 0x0, symName: __ZNSt3__114__unwrap_rangeB8ue170006IPNS_4pairImPKcEES5_EENS1_IT0_S6_EET_S8_, symObjAddr: 0x86810, symBinAddr: 0x1000920E0, symSize: 0x60 }
  - { offsetInCU: 0x98766, offset: 0xAF5E5, size: 0x8, addend: 0x0, symName: __ZNSt3__135__uninitialized_allocator_copy_implB8ue170006INS_9allocatorINS_4pairImPKcEEEEPS5_S7_S7_EET2_RT_T0_T1_S8_, symObjAddr: 0x86870, symBinAddr: 0x100092140, symSize: 0xF4 }
  - { offsetInCU: 0x98805, offset: 0xAF684, size: 0x8, addend: 0x0, symName: __ZNSt3__113__unwrap_iterB8ue170006IPNS_4pairImPKcEENS_18__unwrap_iter_implIS5_Lb1EEELi0EEEDTclsrT0_8__unwrapclsr3stdE7declvalIT_EEEES9_, symObjAddr: 0x86964, symBinAddr: 0x100092234, symSize: 0x24 }
  - { offsetInCU: 0x9884A, offset: 0xAF6C9, size: 0x8, addend: 0x0, symName: __ZNSt3__113__rewrap_iterB8ue170006IPNS_4pairImPKcEES5_NS_18__unwrap_iter_implIS5_Lb1EEEEET_S8_T0_, symObjAddr: 0x86988, symBinAddr: 0x100092258, symSize: 0x3C }
  - { offsetInCU: 0x9889E, offset: 0xAF71D, size: 0x8, addend: 0x0, symName: __ZNSt3__19make_pairB8ue170006IPNS_4pairImPKcEES5_EENS1_INS_18__unwrap_ref_decayIT_E4typeENS6_IT0_E4typeEEEOS7_OSA_, symObjAddr: 0x869C4, symBinAddr: 0x100092294, symSize: 0x38 }
  - { offsetInCU: 0x989C3, offset: 0xAF842, size: 0x8, addend: 0x0, symName: __ZNSt3__122__make_exception_guardB8ue170006INS_29_AllocatorDestroyRangeReverseINS_9allocatorINS_4pairImPKcEEEEPS6_EEEENS_28__exception_guard_exceptionsIT_EESB_, symObjAddr: 0x86A6C, symBinAddr: 0x10009233C, symSize: 0x4C }
  - { offsetInCU: 0x989F8, offset: 0xAF877, size: 0x8, addend: 0x0, symName: __ZNSt3__119__allocator_destroyB8ue170006INS_9allocatorINS_4pairImPKcEEEENS_16reverse_iteratorIPS5_EES9_EEvRT_T0_T1_, symObjAddr: 0x86CF4, symBinAddr: 0x1000925C4, symSize: 0x70 }
  - { offsetInCU: 0x98AB0, offset: 0xAF92F, size: 0x8, addend: 0x0, symName: __ZNSt3__119__throw_regex_errorB8ue170006ILNS_15regex_constants10error_typeE11EEEvv, symObjAddr: 0x875C8, symBinAddr: 0x100092E98, symSize: 0x60 }
  - { offsetInCU: 0x98B4B, offset: 0xAF9CA, size: 0x8, addend: 0x0, symName: __ZNSt3__119__throw_regex_errorB8ue170006ILNS_15regex_constants10error_typeE3EEEvv, symObjAddr: 0x87954, symBinAddr: 0x100093224, symSize: 0x60 }
  - { offsetInCU: 0x98D7C, offset: 0xAFBFB, size: 0x8, addend: 0x0, symName: __ZNSt3__119__throw_regex_errorB8ue170006ILNS_15regex_constants10error_typeE4EEEvv, symObjAddr: 0x88768, symBinAddr: 0x100094038, symSize: 0x60 }
  - { offsetInCU: 0x991C3, offset: 0xB0042, size: 0x8, addend: 0x0, symName: __ZNSt3__15equalB8ue170006IPKcS2_EEbT_S3_T0_, symObjAddr: 0x898EC, symBinAddr: 0x1000951BC, symSize: 0x38 }
  - { offsetInCU: 0x9921D, offset: 0xB009C, size: 0x8, addend: 0x0, symName: __ZNSt3__15equalB8ue170006IPKcS2_NS_10__equal_toEEEbT_S4_T0_T1_, symObjAddr: 0x89924, symBinAddr: 0x1000951F4, symSize: 0x5C }
  - { offsetInCU: 0x9928E, offset: 0xB010D, size: 0x8, addend: 0x0, symName: __ZNSt3__117__equal_iter_implB8ue170006IKcS1_NS_10__equal_toELi0EEEbPT_S4_PT0_RT1_, symObjAddr: 0x89980, symBinAddr: 0x100095250, symSize: 0x44 }
  - { offsetInCU: 0x99302, offset: 0xB0181, size: 0x8, addend: 0x0, symName: __ZNSt3__124__constexpr_memcmp_equalB8ue170006IccEEbPKT_PKT0_NS_15__element_countE, symObjAddr: 0x899C4, symBinAddr: 0x100095294, symSize: 0x4C }
  - { offsetInCU: 0x9936A, offset: 0xB01E9, size: 0x8, addend: 0x0, symName: __ZNSt3__112__to_addressB8ue170006INS_4pairIccEEEEPT_S4_, symObjAddr: 0x8AF94, symBinAddr: 0x100096864, symSize: 0x14 }
  - { offsetInCU: 0x9939F, offset: 0xB021E, size: 0x8, addend: 0x0, symName: __ZNSt3__112__to_addressB8ue170006INS_4pairINS_12basic_stringIcNS_11char_traitsIcEENS_9allocatorIcEEEES7_EEEEPT_SA_, symObjAddr: 0x8B47C, symBinAddr: 0x100096D4C, symSize: 0x14 }
  - { offsetInCU: 0x993D3, offset: 0xB0252, size: 0x8, addend: 0x0, symName: __ZNSt3__1eqB8ue170006IccccEEbRKNS_4pairIT_T0_EERKNS1_IT1_T2_EE, symObjAddr: 0x8BB48, symBinAddr: 0x100097418, symSize: 0x64 }
  - { offsetInCU: 0x99435, offset: 0xB02B4, size: 0x8, addend: 0x0, symName: __ZNSt3__1leB8ue170006IcNS_11char_traitsIcEENS_9allocatorIcEEEEbRKNS_12basic_stringIT_T0_T1_EESB_, symObjAddr: 0x8BCE8, symBinAddr: 0x1000975B8, symSize: 0x34 }
  - { offsetInCU: 0x9948E, offset: 0xB030D, size: 0x8, addend: 0x0, symName: __ZNSt3__14findB8ue170006INS_11__wrap_iterIPKcEEcEET_S5_S5_RKT0_, symObjAddr: 0x8BDD4, symBinAddr: 0x1000976A4, symSize: 0x78 }
  - { offsetInCU: 0x994F6, offset: 0xB0375, size: 0x8, addend: 0x0, symName: __ZNSt3__18distanceB8ue170006IPcEENS_15iterator_traitsIT_E15difference_typeES3_S3_, symObjAddr: 0x8C1DC, symBinAddr: 0x100097AAC, symSize: 0x2C }
  - { offsetInCU: 0x99539, offset: 0xB03B8, size: 0x8, addend: 0x0, symName: __ZNSt3__110__distanceB8ue170006IPcEENS_15iterator_traitsIT_E15difference_typeES3_S3_NS_26random_access_iterator_tagE, symObjAddr: 0x8C34C, symBinAddr: 0x100097C1C, symSize: 0x20 }
  - { offsetInCU: 0x99586, offset: 0xB0405, size: 0x8, addend: 0x0, symName: __ZNSt3__119__allocate_at_leastB8ue170006INS_9allocatorIcEEEENS_19__allocation_resultINS_16allocator_traitsIT_E7pointerEEERS5_m, symObjAddr: 0x8C36C, symBinAddr: 0x100097C3C, symSize: 0x40 }
  - { offsetInCU: 0x995C9, offset: 0xB0448, size: 0x8, addend: 0x0, symName: __ZNSt3__113__rewrap_iterB8ue170006INS_11__wrap_iterIPKcEES3_NS_18__unwrap_iter_implIS4_Lb1EEEEET_S7_T0_, symObjAddr: 0x8C548, symBinAddr: 0x100097E18, symSize: 0x4C }
  - { offsetInCU: 0x9961E, offset: 0xB049D, size: 0x8, addend: 0x0, symName: __ZNSt3__111__find_implB8ue170006IKccNS_10__identityELi0EEEPT_S4_S4_RKT0_RT1_, symObjAddr: 0x8C594, symBinAddr: 0x100097E64, symSize: 0x78 }
  - { offsetInCU: 0x996A6, offset: 0xB0525, size: 0x8, addend: 0x0, symName: __ZNSt3__113__unwrap_iterB8ue170006INS_11__wrap_iterIPKcEENS_18__unwrap_iter_implIS4_Lb1EEELi0EEEDTclsrT0_8__unwrapclsr3stdE7declvalIT_EEEES8_, symObjAddr: 0x8C60C, symBinAddr: 0x100097EDC, symSize: 0x2C }
  - { offsetInCU: 0x9973F, offset: 0xB05BE, size: 0x8, addend: 0x0, symName: __ZNSt3__112__to_addressB8ue170006INS_11__wrap_iterIPKcEEvEEu7__decayIDTclsr19__to_address_helperIT_EE6__callclsr3stdE7declvalIRKS5_EEEEES7_, symObjAddr: 0x8C6C8, symBinAddr: 0x100097F98, symSize: 0x24 }
  - { offsetInCU: 0x997DD, offset: 0xB065C, size: 0x8, addend: 0x0, symName: __ZNSt3__142__uninitialized_allocator_move_if_noexceptB8ue170006INS_9allocatorIcEENS_16reverse_iteratorIPcEES5_cvEET1_RT_T0_S9_S6_, symObjAddr: 0x8D0E4, symBinAddr: 0x1000989B4, symSize: 0x78 }
  - { offsetInCU: 0x9985D, offset: 0xB06DC, size: 0x8, addend: 0x0, symName: __ZNSt3__14moveB8ue170006INS_16reverse_iteratorIPcEES3_EET0_T_S5_S4_, symObjAddr: 0x8D254, symBinAddr: 0x100098B24, symSize: 0x78 }
  - { offsetInCU: 0x998B7, offset: 0xB0736, size: 0x8, addend: 0x0, symName: __ZNSt3__16__moveB8ue170006INS_17_ClassicAlgPolicyENS_16reverse_iteratorIPcEES4_S4_EENS_4pairIT0_T2_EES6_T1_S7_, symObjAddr: 0x8D2CC, symBinAddr: 0x100098B9C, symSize: 0x64 }
  - { offsetInCU: 0x99923, offset: 0xB07A2, size: 0x8, addend: 0x0, symName: __ZNSt3__123__dispatch_copy_or_moveB8ue170006INS_17_ClassicAlgPolicyENS_11__move_loopIS1_EENS_14__move_trivialENS_16reverse_iteratorIPcEES7_S7_EENS_4pairIT2_T4_EES9_T3_SA_, symObjAddr: 0x8D330, symBinAddr: 0x100098C00, symSize: 0x64 }
  - { offsetInCU: 0x999A1, offset: 0xB0820, size: 0x8, addend: 0x0, symName: __ZNSt3__121__unwrap_and_dispatchB8ue170006INS_10__overloadINS_11__move_loopINS_17_ClassicAlgPolicyEEENS_14__move_trivialEEENS_16reverse_iteratorIPcEES9_S9_Li0EEENS_4pairIT0_T2_EESB_T1_SC_, symObjAddr: 0x8D394, symBinAddr: 0x100098C64, symSize: 0x12C }
  - { offsetInCU: 0x99A32, offset: 0xB08B1, size: 0x8, addend: 0x0, symName: __ZNSt3__114__unwrap_rangeB8ue170006INS_16reverse_iteratorIPcEES3_EENS_4pairIT0_S5_EET_S7_, symObjAddr: 0x8D4C0, symBinAddr: 0x100098D90, symSize: 0x84 }
  - { offsetInCU: 0x99B53, offset: 0xB09D2, size: 0x8, addend: 0x0, symName: __ZNSt3__113__unwrap_iterB8ue170006INS_16reverse_iteratorIPcEENS_18__unwrap_iter_implIS3_Lb0EEELi0EEEDTclsrT0_8__unwrapclsr3stdE7declvalIT_EEEES7_, symObjAddr: 0x8D5E4, symBinAddr: 0x100098EB4, symSize: 0x44 }
  - { offsetInCU: 0x99B97, offset: 0xB0A16, size: 0x8, addend: 0x0, symName: __ZNSt3__19make_pairB8ue170006INS_16reverse_iteratorIPcEES3_EENS_4pairINS_18__unwrap_ref_decayIT_E4typeENS5_IT0_E4typeEEEOS6_OS9_, symObjAddr: 0x8D628, symBinAddr: 0x100098EF8, symSize: 0x38 }
  - { offsetInCU: 0x99BE7, offset: 0xB0A66, size: 0x8, addend: 0x0, symName: __ZNSt3__114__rewrap_rangeB8ue170006INS_16reverse_iteratorIPcEES3_EET_S4_T0_, symObjAddr: 0x8D660, symBinAddr: 0x100098F30, symSize: 0x5C }
  - { offsetInCU: 0x99C33, offset: 0xB0AB2, size: 0x8, addend: 0x0, symName: __ZNSt3__113__rewrap_iterB8ue170006INS_16reverse_iteratorIPcEES3_NS_18__unwrap_iter_implIS3_Lb0EEEEET_S6_T0_, symObjAddr: 0x8D6BC, symBinAddr: 0x100098F8C, symSize: 0x74 }
  - { offsetInCU: 0x99C88, offset: 0xB0B07, size: 0x8, addend: 0x0, symName: __ZNSt3__1neB8ue170006IPcS1_EEbRKNS_16reverse_iteratorIT_EERKNS2_IT0_EE, symObjAddr: 0x8D730, symBinAddr: 0x100099000, symSize: 0x48 }
  - { offsetInCU: 0x99D41, offset: 0xB0BC0, size: 0x8, addend: 0x0, symName: __ZNSt3__17__is_07B8ue170006Eh, symObjAddr: 0x8DE0C, symBinAddr: 0x1000996DC, symSize: 0x24 }
  - { offsetInCU: 0x99D70, offset: 0xB0BEF, size: 0x8, addend: 0x0, symName: __ZNSt3__17__is_89B8ue170006Eh, symObjAddr: 0x8DE30, symBinAddr: 0x100099700, symSize: 0x24 }
  - { offsetInCU: 0x99D9F, offset: 0xB0C1E, size: 0x8, addend: 0x0, symName: __ZNSt3__110__to_lowerB8ue170006Eh, symObjAddr: 0x8DE54, symBinAddr: 0x100099724, symSize: 0x1C }
  - { offsetInCU: 0x99DCE, offset: 0xB0C4D, size: 0x8, addend: 0x0, symName: __ZNSt3__119__throw_regex_errorB8ue170006ILNS_15regex_constants10error_typeE5EEEvv, symObjAddr: 0x8DE70, symBinAddr: 0x100099740, symSize: 0x60 }
  - { offsetInCU: 0x99DF5, offset: 0xB0C74, size: 0x8, addend: 0x0, symName: __ZNSt3__16searchB8ue170006INS_11__wrap_iterIPKcEEPcEET_S6_S6_T0_S7_, symObjAddr: 0x8FAB8, symBinAddr: 0x10009B388, symSize: 0x54 }
  - { offsetInCU: 0x99E5C, offset: 0xB0CDB, size: 0x8, addend: 0x0, symName: __ZNSt3__119__throw_regex_errorB8ue170006ILNS_15regex_constants10error_typeE1EEEvv, symObjAddr: 0x8FB5C, symBinAddr: 0x10009B42C, symSize: 0x60 }
  - { offsetInCU: 0x99E83, offset: 0xB0D02, size: 0x8, addend: 0x0, symName: __ZNSt3__16searchB8ue170006INS_11__wrap_iterIPKcEEPcNS_10__equal_toEEET_S7_S7_T0_S8_T1_, symObjAddr: 0x8FC3C, symBinAddr: 0x10009B50C, symSize: 0x7C }
  - { offsetInCU: 0x99F10, offset: 0xB0D8F, size: 0x8, addend: 0x0, symName: __ZNSt3__113__search_implB8ue170006INS_11__wrap_iterIPKcEES4_PcS5_NS_10__equal_toENS_10__identityES7_EENS_4pairIT_S9_EES9_T0_T1_T2_RT3_RT4_RT5_PNS_9enable_ifIXaasr37__has_random_access_iterator_categoryIS9_EE5valuesr37__has_random_access_iterator_categoryISC_EE5valueEvE4typeE, symObjAddr: 0x8FCB8, symBinAddr: 0x10009B588, symSize: 0x108 }
  - { offsetInCU: 0x99FF5, offset: 0xB0E74, size: 0x8, addend: 0x0, symName: __ZNSt3__19make_pairB8ue170006IRNS_11__wrap_iterIPKcEES5_EENS_4pairINS_18__unwrap_ref_decayIT_E4typeENS7_IT0_E4typeEEEOS8_OSB_, symObjAddr: 0x8FDC0, symBinAddr: 0x10009B690, symSize: 0x38 }
  - { offsetInCU: 0x9A045, offset: 0xB0EC4, size: 0x8, addend: 0x0, symName: __ZNSt3__1miB8ue170006IPKcS2_EEDTmicldtfp_4baseEcldtfp0_4baseEERKNS_11__wrap_iterIT_EERKNS4_IT0_EE, symObjAddr: 0x8FDF8, symBinAddr: 0x10009B6C8, symSize: 0x40 }
  - { offsetInCU: 0x9A091, offset: 0xB0F10, size: 0x8, addend: 0x0, symName: __ZNSt3__127__search_random_access_implB8ue170006INS_17_ClassicAlgPolicyENS_11__wrap_iterIPKcEES5_PcS6_NS_10__equal_toENS_10__identityES8_llEENS_4pairIT0_SA_EESA_T1_T2_T3_RT4_RT5_RT6_T7_T8_, symObjAddr: 0x8FE38, symBinAddr: 0x10009B708, symSize: 0x1F0 }
  - { offsetInCU: 0x9A1C4, offset: 0xB1043, size: 0x8, addend: 0x0, symName: __ZNSt3__18__invokeB8ue170006IRNS_10__equal_toEJRKcRcEEEDTclclsr3stdE7declvalIT_EEspclsr3stdE7declvalIT0_EEEEOS6_DpOS7_, symObjAddr: 0x900F4, symBinAddr: 0x10009B9C4, symSize: 0x38 }
  - { offsetInCU: 0x9A22C, offset: 0xB10AB, size: 0x8, addend: 0x0, symName: __ZNSt3__18__invokeB8ue170006IRNS_10__identityEJRKcEEEDTclclsr3stdE7declvalIT_EEspclsr3stdE7declvalIT0_EEEEOS5_DpOS6_, symObjAddr: 0x9012C, symBinAddr: 0x10009B9FC, symSize: 0x2C }
  - { offsetInCU: 0x9A27F, offset: 0xB10FE, size: 0x8, addend: 0x0, symName: __ZNSt3__18__invokeB8ue170006IRNS_10__identityEJRcEEEDTclclsr3stdE7declvalIT_EEspclsr3stdE7declvalIT0_EEEEOS4_DpOS5_, symObjAddr: 0x90158, symBinAddr: 0x10009BA28, symSize: 0x2C }
  - { offsetInCU: 0x9A2D2, offset: 0xB1151, size: 0x8, addend: 0x0, symName: __ZNSt3__19make_pairB8ue170006IRNS_11__wrap_iterIPKcEES4_EENS_4pairINS_18__unwrap_ref_decayIT_E4typeENS7_IT0_E4typeEEEOS8_OSB_, symObjAddr: 0x90184, symBinAddr: 0x10009BA54, symSize: 0x38 }
  - { offsetInCU: 0x9A3B8, offset: 0xB1237, size: 0x8, addend: 0x0, symName: __ZNSt3__18distanceB8ue170006INS_11__wrap_iterIPKcEEEENS_15iterator_traitsIT_E15difference_typeES6_S6_, symObjAddr: 0x905CC, symBinAddr: 0x10009BE9C, symSize: 0x3C }
  - { offsetInCU: 0x9A3FB, offset: 0xB127A, size: 0x8, addend: 0x0, symName: __ZNSt3__110__distanceB8ue170006INS_11__wrap_iterIPKcEEEENS_15iterator_traitsIT_E15difference_typeES6_S6_NS_26random_access_iterator_tagE, symObjAddr: 0x90754, symBinAddr: 0x10009C024, symSize: 0x30 }
  - { offsetInCU: 0x9A448, offset: 0xB12C7, size: 0x8, addend: 0x0, symName: __ZNSt3__18distanceB8ue170006INS_11__wrap_iterIPcEEEENS_15iterator_traitsIT_E15difference_typeES5_S5_, symObjAddr: 0x90A3C, symBinAddr: 0x10009C30C, symSize: 0x3C }
  - { offsetInCU: 0x9A48B, offset: 0xB130A, size: 0x8, addend: 0x0, symName: __ZNSt3__110__distanceB8ue170006INS_11__wrap_iterIPcEEEENS_15iterator_traitsIT_E15difference_typeES5_S5_NS_26random_access_iterator_tagE, symObjAddr: 0x90BC4, symBinAddr: 0x10009C494, symSize: 0x30 }
  - { offsetInCU: 0x9A4D8, offset: 0xB1357, size: 0x8, addend: 0x0, symName: __ZNSt3__1miB8ue170006IPcS1_EEDTmicldtfp_4baseEcldtfp0_4baseEERKNS_11__wrap_iterIT_EERKNS3_IT0_EE, symObjAddr: 0x90BF4, symBinAddr: 0x10009C4C4, symSize: 0x40 }
  - { offsetInCU: 0x9A523, offset: 0xB13A2, size: 0x8, addend: 0x0, symName: __ZNSt3__119__throw_regex_errorB8ue170006ILNS_15regex_constants10error_typeE2EEEvv, symObjAddr: 0x90C90, symBinAddr: 0x10009C560, symSize: 0x60 }
  - { offsetInCU: 0x9A549, offset: 0xB13C8, size: 0x8, addend: 0x0, symName: __ZNSt3__19make_pairB8ue170006INS_12basic_stringIcNS_11char_traitsIcEENS_9allocatorIcEEEES6_EENS_4pairINS_18__unwrap_ref_decayIT_E4typeENS8_IT0_E4typeEEEOS9_OSC_, symObjAddr: 0x90FB0, symBinAddr: 0x10009C880, symSize: 0x40 }
  - { offsetInCU: 0x9A598, offset: 0xB1417, size: 0x8, addend: 0x0, symName: __ZNSt3__119__throw_regex_errorB8ue170006ILNS_15regex_constants10error_typeE9EEEvv, symObjAddr: 0x910F0, symBinAddr: 0x10009C9C0, symSize: 0x60 }
  - { offsetInCU: 0x9A5BF, offset: 0xB143E, size: 0x8, addend: 0x0, symName: __ZNSt3__119__allocate_at_leastB8ue170006INS_9allocatorINS_4pairINS_12basic_stringIcNS_11char_traitsIcEENS1_IcEEEES7_EEEEEENS_19__allocation_resultINS_16allocator_traitsIT_E7pointerEEERSC_m, symObjAddr: 0x91934, symBinAddr: 0x10009D204, symSize: 0x40 }
  - { offsetInCU: 0x9A601, offset: 0xB1480, size: 0x8, addend: 0x0, symName: __ZNSt3__142__uninitialized_allocator_move_if_noexceptB8ue170006INS_9allocatorINS_4pairINS_12basic_stringIcNS_11char_traitsIcEENS1_IcEEEES7_EEEENS_16reverse_iteratorIPS8_EESC_SC_EET2_RT_T0_T1_SD_, symObjAddr: 0x91AEC, symBinAddr: 0x10009D3BC, symSize: 0x12C }
  - { offsetInCU: 0x9A6A2, offset: 0xB1521, size: 0x8, addend: 0x0, symName: __ZNSt3__14swapB8ue170006IPNS_4pairINS_12basic_stringIcNS_11char_traitsIcEENS_9allocatorIcEEEES7_EEEENS_9enable_ifIXaasr21is_move_constructibleIT_EE5valuesr18is_move_assignableISB_EE5valueEvE4typeERSB_SE_, symObjAddr: 0x91C64, symBinAddr: 0x10009D534, symSize: 0x3C }
  - { offsetInCU: 0x9A6F3, offset: 0xB1572, size: 0x8, addend: 0x0, symName: __ZNSt3__122__make_exception_guardB8ue170006INS_29_AllocatorDestroyRangeReverseINS_9allocatorINS_4pairINS_12basic_stringIcNS_11char_traitsIcEENS2_IcEEEES8_EEEENS_16reverse_iteratorIPS9_EEEEEENS_28__exception_guard_exceptionsIT_EESG_, symObjAddr: 0x91D68, symBinAddr: 0x10009D638, symSize: 0x4C }
  - { offsetInCU: 0x9A729, offset: 0xB15A8, size: 0x8, addend: 0x0, symName: __ZNSt3__1neB8ue170006IPNS_4pairINS_12basic_stringIcNS_11char_traitsIcEENS_9allocatorIcEEEES7_EES9_EEbRKNS_16reverse_iteratorIT_EERKNSA_IT0_EE, symObjAddr: 0x91DF8, symBinAddr: 0x10009D6C8, symSize: 0x48 }
  - { offsetInCU: 0x9A775, offset: 0xB15F4, size: 0x8, addend: 0x0, symName: __ZNSt3__112__to_addressB8ue170006INS_16reverse_iteratorIPNS_4pairINS_12basic_stringIcNS_11char_traitsIcEENS_9allocatorIcEEEES8_EEEEvEEu7__decayIDTclsr19__to_address_helperIT_EE6__callclsr3stdE7declvalIRKSC_EEEEESE_, symObjAddr: 0x91E40, symBinAddr: 0x10009D710, symSize: 0x24 }
  - { offsetInCU: 0x9A7D5, offset: 0xB1654, size: 0x8, addend: 0x0, symName: __ZNSt3__119__allocator_destroyB8ue170006INS_9allocatorINS_4pairINS_12basic_stringIcNS_11char_traitsIcEENS1_IcEEEES7_EEEENS_16reverse_iteratorINSA_IPS8_EEEESD_EEvRT_T0_T1_, symObjAddr: 0x920F0, symBinAddr: 0x10009D9C0, symSize: 0x70 }
  - { offsetInCU: 0x9A83C, offset: 0xB16BB, size: 0x8, addend: 0x0, symName: __ZNSt3__1neB8ue170006INS_16reverse_iteratorIPNS_4pairINS_12basic_stringIcNS_11char_traitsIcEENS_9allocatorIcEEEES8_EEEESB_EEbRKNS1_IT_EERKNS1_IT0_EE, symObjAddr: 0x9219C, symBinAddr: 0x10009DA6C, symSize: 0x60 }
  - { offsetInCU: 0x9A888, offset: 0xB1707, size: 0x8, addend: 0x0, symName: __ZNSt3__112__to_addressB8ue170006INS_16reverse_iteratorINS1_IPNS_4pairINS_12basic_stringIcNS_11char_traitsIcEENS_9allocatorIcEEEES8_EEEEEEvEEu7__decayIDTclsr19__to_address_helperIT_EE6__callclsr3stdE7declvalIRKSD_EEEEESF_, symObjAddr: 0x921FC, symBinAddr: 0x10009DACC, symSize: 0x24 }
  - { offsetInCU: 0x9A8E8, offset: 0xB1767, size: 0x8, addend: 0x0, symName: __ZNSt3__19make_pairB8ue170006IccEENS_4pairINS_18__unwrap_ref_decayIT_E4typeENS2_IT0_E4typeEEEOS3_OS6_, symObjAddr: 0x92654, symBinAddr: 0x10009DF24, symSize: 0x34 }
  - { offsetInCU: 0x9A937, offset: 0xB17B6, size: 0x8, addend: 0x0, symName: __ZNSt3__19make_pairB8ue170006IRcS1_EENS_4pairINS_18__unwrap_ref_decayIT_E4typeENS3_IT0_E4typeEEEOS4_OS7_, symObjAddr: 0x92688, symBinAddr: 0x10009DF58, symSize: 0x34 }
  - { offsetInCU: 0x9A987, offset: 0xB1806, size: 0x8, addend: 0x0, symName: __ZNSt3__119__allocate_at_leastB8ue170006INS_9allocatorINS_4pairIccEEEEEENS_19__allocation_resultINS_16allocator_traitsIT_E7pointerEEERS7_m, symObjAddr: 0x92E04, symBinAddr: 0x10009E6D4, symSize: 0x40 }
  - { offsetInCU: 0x9A9C9, offset: 0xB1848, size: 0x8, addend: 0x0, symName: __ZNSt3__142__uninitialized_allocator_move_if_noexceptB8ue170006INS_9allocatorINS_4pairIccEEEENS_16reverse_iteratorIPS3_EES7_S7_EET2_RT_T0_T1_S8_, symObjAddr: 0x92FB8, symBinAddr: 0x10009E888, symSize: 0x12C }
  - { offsetInCU: 0x9AA6A, offset: 0xB18E9, size: 0x8, addend: 0x0, symName: __ZNSt3__14swapB8ue170006IPNS_4pairIccEEEENS_9enable_ifIXaasr21is_move_constructibleIT_EE5valuesr18is_move_assignableIS5_EE5valueEvE4typeERS5_S8_, symObjAddr: 0x93130, symBinAddr: 0x10009EA00, symSize: 0x3C }
  - { offsetInCU: 0x9AABB, offset: 0xB193A, size: 0x8, addend: 0x0, symName: __ZNSt3__122__make_exception_guardB8ue170006INS_29_AllocatorDestroyRangeReverseINS_9allocatorINS_4pairIccEEEENS_16reverse_iteratorIPS4_EEEEEENS_28__exception_guard_exceptionsIT_EESB_, symObjAddr: 0x93218, symBinAddr: 0x10009EAE8, symSize: 0x4C }
  - { offsetInCU: 0x9AAF1, offset: 0xB1970, size: 0x8, addend: 0x0, symName: __ZNSt3__1neB8ue170006IPNS_4pairIccEES3_EEbRKNS_16reverse_iteratorIT_EERKNS4_IT0_EE, symObjAddr: 0x932A8, symBinAddr: 0x10009EB78, symSize: 0x48 }
  - { offsetInCU: 0x9AB3D, offset: 0xB19BC, size: 0x8, addend: 0x0, symName: __ZNSt3__112__to_addressB8ue170006INS_16reverse_iteratorIPNS_4pairIccEEEEvEEu7__decayIDTclsr19__to_address_helperIT_EE6__callclsr3stdE7declvalIRKS6_EEEEES8_, symObjAddr: 0x932F0, symBinAddr: 0x10009EBC0, symSize: 0x24 }
  - { offsetInCU: 0x9AB9D, offset: 0xB1A1C, size: 0x8, addend: 0x0, symName: __ZNSt3__119__allocator_destroyB8ue170006INS_9allocatorINS_4pairIccEEEENS_16reverse_iteratorINS5_IPS3_EEEES8_EEvRT_T0_T1_, symObjAddr: 0x935A0, symBinAddr: 0x10009EE70, symSize: 0x70 }
  - { offsetInCU: 0x9AC04, offset: 0xB1A83, size: 0x8, addend: 0x0, symName: __ZNSt3__1neB8ue170006INS_16reverse_iteratorIPNS_4pairIccEEEES5_EEbRKNS1_IT_EERKNS1_IT0_EE, symObjAddr: 0x9364C, symBinAddr: 0x10009EF1C, symSize: 0x60 }
  - { offsetInCU: 0x9AC50, offset: 0xB1ACF, size: 0x8, addend: 0x0, symName: __ZNSt3__112__to_addressB8ue170006INS_16reverse_iteratorINS1_IPNS_4pairIccEEEEEEvEEu7__decayIDTclsr19__to_address_helperIT_EE6__callclsr3stdE7declvalIRKS7_EEEEES9_, symObjAddr: 0x936AC, symBinAddr: 0x10009EF7C, symSize: 0x24 }
  - { offsetInCU: 0x9ADBE, offset: 0xB1C3D, size: 0x8, addend: 0x0, symName: __ZNSt3__119__throw_regex_errorB8ue170006ILNS_15regex_constants10error_typeE8EEEvv, symObjAddr: 0x942D0, symBinAddr: 0x10009FBA0, symSize: 0x60 }
  - { offsetInCU: 0x9ADE4, offset: 0xB1C63, size: 0x8, addend: 0x0, symName: __ZNSt3__119__throw_regex_errorB8ue170006ILNS_15regex_constants10error_typeE7EEEvv, symObjAddr: 0x94330, symBinAddr: 0x10009FC00, symSize: 0x60 }
  - { offsetInCU: 0x9B54A, offset: 0xB23C9, size: 0x8, addend: 0x0, symName: __ZNSt3__119__throw_regex_errorB8ue170006ILNS_15regex_constants10error_typeE15EEEvv, symObjAddr: 0x95370, symBinAddr: 0x1000A0C40, symSize: 0x60 }
  - { offsetInCU: 0x9B5E5, offset: 0xB2464, size: 0x8, addend: 0x0, symName: __ZNSt3__111regex_matchB8ue170006INS_11__wrap_iterIPKcEEcNS_12regex_traitsIcEEEEbT_S7_RKNS_11basic_regexIT0_T1_EENS_15regex_constants15match_flag_typeE, symObjAddr: 0x96E44, symBinAddr: 0x1000A2714, symSize: 0xA0 }
  - { offsetInCU: 0x9B97F, offset: 0xB27FE, size: 0x8, addend: 0x0, symName: __ZNSt3__111regex_matchB8ue170006INS_11__wrap_iterIPKcEENS_9allocatorINS_9sub_matchIS4_EEEEcNS_12regex_traitsIcEEEEbT_SB_RNS_13match_resultsISB_T0_EERKNS_11basic_regexIT1_T2_EENS_15regex_constants15match_flag_typeE, symObjAddr: 0x96F24, symBinAddr: 0x1000A27F4, symSize: 0xD0 }
  - { offsetInCU: 0x9BA29, offset: 0xB28A8, size: 0x8, addend: 0x0, symName: __ZNSt3__112__to_addressB8ue170006INS_9sub_matchINS_11__wrap_iterIPKcEEEEEEPT_S8_, symObjAddr: 0x976C8, symBinAddr: 0x1000A2F98, symSize: 0x14 }
  - { offsetInCU: 0x9BA5D, offset: 0xB28DC, size: 0x8, addend: 0x0, symName: __ZNSt3__112regex_searchB8ue170006IPKcNS_9allocatorINS_9sub_matchINS_11__wrap_iterIS2_EEEEEEcNS_12regex_traitsIcEEEEbNS5_IT_EESC_RNS_13match_resultsISC_T0_EERKNS_11basic_regexIT1_T2_EENS_15regex_constants15match_flag_typeE, symObjAddr: 0x9783C, symBinAddr: 0x1000A310C, symSize: 0x124 }
  - { offsetInCU: 0x9BB0C, offset: 0xB298B, size: 0x8, addend: 0x0, symName: __ZNSt3__18distanceB8ue170006IPKcEENS_15iterator_traitsIT_E15difference_typeES4_S4_, symObjAddr: 0x98EFC, symBinAddr: 0x1000A47CC, symSize: 0x2C }
  - { offsetInCU: 0x9BB4F, offset: 0xB29CE, size: 0x8, addend: 0x0, symName: __ZNSt3__110__distanceB8ue170006IPKcEENS_15iterator_traitsIT_E15difference_typeES4_S4_NS_26random_access_iterator_tagE, symObjAddr: 0x99D50, symBinAddr: 0x1000A5620, symSize: 0x20 }
  - { offsetInCU: 0x9BF43, offset: 0xB2DC2, size: 0x8, addend: 0x0, symName: __ZNSt3__14swapB8ue170006IPPNS_7__stateIcEEEENS_9enable_ifIXaasr21is_move_constructibleIT_EE5valuesr18is_move_assignableIS6_EE5valueEvE4typeERS6_S9_, symObjAddr: 0x9B25C, symBinAddr: 0x1000A6B2C, symSize: 0x3C }
  - { offsetInCU: 0x9BF94, offset: 0xB2E13, size: 0x8, addend: 0x0, symName: __ZNSt3__14moveB8ue170006IPPNS_7__stateIcEES4_EET0_T_S6_S5_, symObjAddr: 0x9B38C, symBinAddr: 0x1000A6C5C, symSize: 0x40 }
  - { offsetInCU: 0x9BFEE, offset: 0xB2E6D, size: 0x8, addend: 0x0, symName: __ZNSt3__112__to_addressB8ue170006IPNS_7__stateIcEEEEPT_S5_, symObjAddr: 0x9B494, symBinAddr: 0x1000A6D64, symSize: 0x14 }
  - { offsetInCU: 0x9C023, offset: 0xB2EA2, size: 0x8, addend: 0x0, symName: __ZNSt3__16__moveB8ue170006INS_17_ClassicAlgPolicyEPPNS_7__stateIcEES5_S5_EENS_4pairIT0_T2_EES7_T1_S8_, symObjAddr: 0x9B4A8, symBinAddr: 0x1000A6D78, symSize: 0x44 }
  - { offsetInCU: 0x9C08F, offset: 0xB2F0E, size: 0x8, addend: 0x0, symName: __ZNSt3__123__dispatch_copy_or_moveB8ue170006INS_17_ClassicAlgPolicyENS_11__move_loopIS1_EENS_14__move_trivialEPPNS_7__stateIcEES8_S8_EENS_4pairIT2_T4_EESA_T3_SB_, symObjAddr: 0x9B4EC, symBinAddr: 0x1000A6DBC, symSize: 0x44 }
  - { offsetInCU: 0x9C10D, offset: 0xB2F8C, size: 0x8, addend: 0x0, symName: __ZNSt3__121__unwrap_and_dispatchB8ue170006INS_10__overloadINS_11__move_loopINS_17_ClassicAlgPolicyEEENS_14__move_trivialEEEPPNS_7__stateIcEESA_SA_Li0EEENS_4pairIT0_T2_EESC_T1_SD_, symObjAddr: 0x9B530, symBinAddr: 0x1000A6E00, symSize: 0xB4 }
  - { offsetInCU: 0x9C19C, offset: 0xB301B, size: 0x8, addend: 0x0, symName: __ZNSt3__114__unwrap_rangeB8ue170006IPPNS_7__stateIcEES4_EENS_4pairIT0_S6_EET_S8_, symObjAddr: 0x9B5E4, symBinAddr: 0x1000A6EB4, symSize: 0x60 }
  - { offsetInCU: 0x9C3A1, offset: 0xB3220, size: 0x8, addend: 0x0, symName: __ZNSt3__113__unwrap_iterB8ue170006IPPNS_7__stateIcEENS_18__unwrap_iter_implIS4_Lb1EEELi0EEEDTclsrT0_8__unwrapclsr3stdE7declvalIT_EEEES8_, symObjAddr: 0x9B68C, symBinAddr: 0x1000A6F5C, symSize: 0x24 }
  - { offsetInCU: 0x9C3E5, offset: 0xB3264, size: 0x8, addend: 0x0, symName: __ZNSt3__19make_pairB8ue170006IPPNS_7__stateIcEES4_EENS_4pairINS_18__unwrap_ref_decayIT_E4typeENS6_IT0_E4typeEEEOS7_OSA_, symObjAddr: 0x9B6B0, symBinAddr: 0x1000A6F80, symSize: 0x38 }
  - { offsetInCU: 0x9C435, offset: 0xB32B4, size: 0x8, addend: 0x0, symName: __ZNSt3__114__rewrap_rangeB8ue170006IPPNS_7__stateIcEES4_EET_S5_T0_, symObjAddr: 0x9B6E8, symBinAddr: 0x1000A6FB8, symSize: 0x2C }
  - { offsetInCU: 0x9C481, offset: 0xB3300, size: 0x8, addend: 0x0, symName: __ZNSt3__113__rewrap_iterB8ue170006IPPNS_7__stateIcEES4_NS_18__unwrap_iter_implIS4_Lb1EEEEET_S7_T0_, symObjAddr: 0x9B714, symBinAddr: 0x1000A6FE4, symSize: 0x3C }
  - { offsetInCU: 0x9C4D6, offset: 0xB3355, size: 0x8, addend: 0x0, symName: __ZNSt3__119__copy_trivial_implB8ue170006IPNS_7__stateIcEES3_EENS_4pairIPT_PT0_EES6_S6_S8_, symObjAddr: 0x9B750, symBinAddr: 0x1000A7020, symSize: 0x80 }
  - { offsetInCU: 0x9C53E, offset: 0xB33BD, size: 0x8, addend: 0x0, symName: __ZNSt3__119__constexpr_memmoveB8ue170006IPNS_7__stateIcEES3_Li0EEEPT_S5_PT0_NS_15__element_countE, symObjAddr: 0x9B7D0, symBinAddr: 0x1000A70A0, symSize: 0x64 }
  - { offsetInCU: 0x9C5AC, offset: 0xB342B, size: 0x8, addend: 0x0, symName: __ZNSt3__19make_pairB8ue170006IRPPNS_7__stateIcEES4_EENS_4pairINS_18__unwrap_ref_decayIT_E4typeENS7_IT0_E4typeEEEOS8_OSB_, symObjAddr: 0x9B834, symBinAddr: 0x1000A7104, symSize: 0x38 }
  - { offsetInCU: 0x9C650, offset: 0xB34CF, size: 0x8, addend: 0x0, symName: __ZNSt3__18distanceB8ue170006INS_13move_iteratorIPPNS_7__stateIcEEEEEENS_15iterator_traitsIT_E15difference_typeES8_S8_, symObjAddr: 0x9BA9C, symBinAddr: 0x1000A736C, symSize: 0x3C }
  - { offsetInCU: 0x9C693, offset: 0xB3512, size: 0x8, addend: 0x0, symName: __ZNSt3__110__distanceB8ue170006INS_13move_iteratorIPPNS_7__stateIcEEEEEENS_15iterator_traitsIT_E15difference_typeES8_S8_NS_26random_access_iterator_tagE, symObjAddr: 0x9BCA0, symBinAddr: 0x1000A7570, symSize: 0x30 }
  - { offsetInCU: 0x9C6DF, offset: 0xB355E, size: 0x8, addend: 0x0, symName: __ZNSt3__1miB8ue170006IPPNS_7__stateIcEES4_EEDTmicldtfp_4baseEcldtfp0_4baseEERKNS_13move_iteratorIT_EERKNS6_IT0_EE, symObjAddr: 0x9BCD0, symBinAddr: 0x1000A75A0, symSize: 0x48 }
  - { offsetInCU: 0x9C72F, offset: 0xB35AE, size: 0x8, addend: 0x0, symName: __ZNSt3__113move_backwardB8ue170006IPPNS_7__stateIcEES4_EET0_T_S6_S5_, symObjAddr: 0x9BDD8, symBinAddr: 0x1000A76A8, symSize: 0x40 }
  - { offsetInCU: 0x9C789, offset: 0xB3608, size: 0x8, addend: 0x0, symName: __ZNSt3__115__move_backwardB8ue170006INS_17_ClassicAlgPolicyEPPNS_7__stateIcEES5_S5_EENS_4pairIT0_T2_EES7_T1_S8_, symObjAddr: 0x9BE18, symBinAddr: 0x1000A76E8, symSize: 0x44 }
  - { offsetInCU: 0x9C7F5, offset: 0xB3674, size: 0x8, addend: 0x0, symName: __ZNSt3__123__dispatch_copy_or_moveB8ue170006INS_17_ClassicAlgPolicyENS_20__move_backward_loopIS1_EENS_23__move_backward_trivialEPPNS_7__stateIcEES8_S8_EENS_4pairIT2_T4_EESA_T3_SB_, symObjAddr: 0x9BE5C, symBinAddr: 0x1000A772C, symSize: 0x44 }
  - { offsetInCU: 0x9C873, offset: 0xB36F2, size: 0x8, addend: 0x0, symName: __ZNSt3__121__unwrap_and_dispatchB8ue170006INS_10__overloadINS_20__move_backward_loopINS_17_ClassicAlgPolicyEEENS_23__move_backward_trivialEEEPPNS_7__stateIcEESA_SA_Li0EEENS_4pairIT0_T2_EESC_T1_SD_, symObjAddr: 0x9BEA0, symBinAddr: 0x1000A7770, symSize: 0xB4 }
  - { offsetInCU: 0x9C986, offset: 0xB3805, size: 0x8, addend: 0x0, symName: __ZNSt3__128__copy_backward_trivial_implB8ue170006IPNS_7__stateIcEES3_EENS_4pairIPT_PT0_EES6_S6_S8_, symObjAddr: 0x9BF9C, symBinAddr: 0x1000A786C, symSize: 0x90 }
  - { offsetInCU: 0x9C9ED, offset: 0xB386C, size: 0x8, addend: 0x0, symName: __ZNSt3__19make_pairB8ue170006IRPPNS_7__stateIcEES5_EENS_4pairINS_18__unwrap_ref_decayIT_E4typeENS7_IT0_E4typeEEEOS8_OSB_, symObjAddr: 0x9C02C, symBinAddr: 0x1000A78FC, symSize: 0x38 }
  - { offsetInCU: 0x9CA3D, offset: 0xB38BC, size: 0x8, addend: 0x0, symName: __ZNSt3__119__allocate_at_leastB8ue170006INS_9allocatorIPNS_7__stateIcEEEEEENS_19__allocation_resultINS_16allocator_traitsIT_E7pointerEEERS8_m, symObjAddr: 0x9C260, symBinAddr: 0x1000A7B30, symSize: 0x40 }
  - { offsetInCU: 0x9CA7F, offset: 0xB38FE, size: 0x8, addend: 0x0, symName: __ZNSt3__1neB8ue170006ERKNS_16__deque_iteratorINS_7__stateIcEEPS2_RS2_PS3_lLl42EEES8_, symObjAddr: 0x9CDEC, symBinAddr: 0x1000A86BC, symSize: 0x34 }
  - { offsetInCU: 0x9CABC, offset: 0xB393B, size: 0x8, addend: 0x0, symName: __ZNSt3__1eqB8ue170006ERKNS_16__deque_iteratorINS_7__stateIcEEPS2_RS2_PS3_lLl42EEES8_, symObjAddr: 0x9CE90, symBinAddr: 0x1000A8760, symSize: 0x30 }
  - { offsetInCU: 0x9CAFB, offset: 0xB397A, size: 0x8, addend: 0x0, symName: __ZNSt3__18distanceB8ue170006IPNS_9sub_matchIPKcEEEENS_15iterator_traitsIT_E15difference_typeES7_S7_, symObjAddr: 0x9DCF4, symBinAddr: 0x1000A95C4, symSize: 0x2C }
  - { offsetInCU: 0x9CB3E, offset: 0xB39BD, size: 0x8, addend: 0x0, symName: __ZNSt3__14nextB8ue170006IPNS_9sub_matchIPKcEEEENS_9enable_ifIXsr29__has_input_iterator_categoryIT_EE5valueES7_E4typeES7_NS_15iterator_traitsIS7_E15difference_typeE, symObjAddr: 0x9DD20, symBinAddr: 0x1000A95F0, symSize: 0x34 }
  - { offsetInCU: 0x9CB81, offset: 0xB3A00, size: 0x8, addend: 0x0, symName: __ZNSt3__14copyB8ue170006IPNS_9sub_matchIPKcEES5_EET0_T_S7_S6_, symObjAddr: 0x9DD54, symBinAddr: 0x1000A9624, symSize: 0x40 }
  - { offsetInCU: 0x9CBDB, offset: 0xB3A5A, size: 0x8, addend: 0x0, symName: __ZNSt3__16__copyB8ue170006INS_17_ClassicAlgPolicyEPNS_9sub_matchIPKcEES6_S6_EENS_4pairIT0_T2_EES8_T1_S9_, symObjAddr: 0x9DD94, symBinAddr: 0x1000A9664, symSize: 0x44 }
  - { offsetInCU: 0x9CC47, offset: 0xB3AC6, size: 0x8, addend: 0x0, symName: __ZNSt3__19__advanceB8ue170006IPNS_9sub_matchIPKcEEEEvRT_NS_15iterator_traitsIS6_E15difference_typeENS_26random_access_iterator_tagE, symObjAddr: 0x9DE10, symBinAddr: 0x1000A96E0, symSize: 0x30 }
  - { offsetInCU: 0x9CC91, offset: 0xB3B10, size: 0x8, addend: 0x0, symName: __ZNSt3__123__dispatch_copy_or_moveB8ue170006INS_17_ClassicAlgPolicyENS_11__copy_loopIS1_EENS_14__copy_trivialEPNS_9sub_matchIPKcEES9_S9_EENS_4pairIT2_T4_EESB_T3_SC_, symObjAddr: 0x9DE40, symBinAddr: 0x1000A9710, symSize: 0x44 }
  - { offsetInCU: 0x9CD0F, offset: 0xB3B8E, size: 0x8, addend: 0x0, symName: __ZNSt3__121__unwrap_and_dispatchB8ue170006INS_10__overloadINS_11__copy_loopINS_17_ClassicAlgPolicyEEENS_14__copy_trivialEEEPNS_9sub_matchIPKcEESB_SB_Li0EEENS_4pairIT0_T2_EESD_T1_SE_, symObjAddr: 0x9DE84, symBinAddr: 0x1000A9754, symSize: 0xB4 }
  - { offsetInCU: 0x9CD9E, offset: 0xB3C1D, size: 0x8, addend: 0x0, symName: __ZNSt3__114__rewrap_rangeB8ue170006IPNS_9sub_matchIPKcEES5_EET_S6_T0_, symObjAddr: 0x9DFC0, symBinAddr: 0x1000A9890, symSize: 0x2C }
  - { offsetInCU: 0x9CDEA, offset: 0xB3C69, size: 0x8, addend: 0x0, symName: __ZNSt3__110__distanceB8ue170006IPNS_9sub_matchIPKcEEEENS_15iterator_traitsIT_E15difference_typeES7_S7_NS_26random_access_iterator_tagE, symObjAddr: 0x9DFEC, symBinAddr: 0x1000A98BC, symSize: 0x28 }
  - { offsetInCU: 0x9CE37, offset: 0xB3CB6, size: 0x8, addend: 0x0, symName: __ZNSt3__18distanceB8ue170006IPNS_4pairImPKcEEEENS_15iterator_traitsIT_E15difference_typeES7_S7_, symObjAddr: 0x9E214, symBinAddr: 0x1000A9AE4, symSize: 0x2C }
  - { offsetInCU: 0x9CE7A, offset: 0xB3CF9, size: 0x8, addend: 0x0, symName: __ZNSt3__14nextB8ue170006IPNS_4pairImPKcEEEENS_9enable_ifIXsr29__has_input_iterator_categoryIT_EE5valueES7_E4typeES7_NS_15iterator_traitsIS7_E15difference_typeE, symObjAddr: 0x9E240, symBinAddr: 0x1000A9B10, symSize: 0x34 }
  - { offsetInCU: 0x9CEBD, offset: 0xB3D3C, size: 0x8, addend: 0x0, symName: __ZNSt3__14copyB8ue170006IPNS_4pairImPKcEES5_EET0_T_S7_S6_, symObjAddr: 0x9E274, symBinAddr: 0x1000A9B44, symSize: 0x40 }
  - { offsetInCU: 0x9CF17, offset: 0xB3D96, size: 0x8, addend: 0x0, symName: __ZNSt3__16__copyB8ue170006INS_17_ClassicAlgPolicyEPNS_4pairImPKcEES6_S6_EENS2_IT0_T2_EES7_T1_S8_, symObjAddr: 0x9E2B4, symBinAddr: 0x1000A9B84, symSize: 0x44 }
  - { offsetInCU: 0x9CF83, offset: 0xB3E02, size: 0x8, addend: 0x0, symName: __ZNSt3__19__advanceB8ue170006IPNS_4pairImPKcEEEEvRT_NS_15iterator_traitsIS6_E15difference_typeENS_26random_access_iterator_tagE, symObjAddr: 0x9E3C4, symBinAddr: 0x1000A9C94, symSize: 0x28 }
  - { offsetInCU: 0x9CFCD, offset: 0xB3E4C, size: 0x8, addend: 0x0, symName: __ZNSt3__123__dispatch_copy_or_moveB8ue170006INS_17_ClassicAlgPolicyENS_11__copy_loopIS1_EENS_14__copy_trivialEPNS_4pairImPKcEES9_S9_EENS5_IT2_T4_EESA_T3_SB_, symObjAddr: 0x9E3EC, symBinAddr: 0x1000A9CBC, symSize: 0x44 }
  - { offsetInCU: 0x9D04B, offset: 0xB3ECA, size: 0x8, addend: 0x0, symName: __ZNSt3__121__unwrap_and_dispatchB8ue170006INS_10__overloadINS_11__copy_loopINS_17_ClassicAlgPolicyEEENS_14__copy_trivialEEEPNS_4pairImPKcEESB_SB_Li0EEENS7_IT0_T2_EESC_T1_SD_, symObjAddr: 0x9E430, symBinAddr: 0x1000A9D00, symSize: 0xB4 }
  - { offsetInCU: 0x9D0DA, offset: 0xB3F59, size: 0x8, addend: 0x0, symName: __ZNSt3__114__rewrap_rangeB8ue170006IPNS_4pairImPKcEES5_EET_S6_T0_, symObjAddr: 0x9E56C, symBinAddr: 0x1000A9E3C, symSize: 0x2C }
  - { offsetInCU: 0x9D126, offset: 0xB3FA5, size: 0x8, addend: 0x0, symName: __ZNSt3__110__distanceB8ue170006IPNS_4pairImPKcEEEENS_15iterator_traitsIT_E15difference_typeES7_S7_NS_26random_access_iterator_tagE, symObjAddr: 0x9E60C, symBinAddr: 0x1000A9EDC, symSize: 0x28 }
  - { offsetInCU: 0x9D173, offset: 0xB3FF2, size: 0x8, addend: 0x0, symName: __ZNSt3__119__allocate_at_leastB8ue170006INS_9allocatorINS_9sub_matchINS_11__wrap_iterIPKcEEEEEEEENS_19__allocation_resultINS_16allocator_traitsIT_E7pointerEEERSB_m, symObjAddr: 0x9F034, symBinAddr: 0x1000AA904, symSize: 0x40 }
  - { offsetInCU: 0x9D1B5, offset: 0xB4034, size: 0x8, addend: 0x0, symName: __ZNSt3__142__uninitialized_allocator_move_if_noexceptB8ue170006INS_9allocatorINS_9sub_matchINS_11__wrap_iterIPKcEEEEEENS_16reverse_iteratorIPS7_EESB_SB_EET2_RT_T0_T1_SC_, symObjAddr: 0x9F2C0, symBinAddr: 0x1000AAB90, symSize: 0x12C }
  - { offsetInCU: 0x9D256, offset: 0xB40D5, size: 0x8, addend: 0x0, symName: __ZNSt3__14swapB8ue170006IPNS_9sub_matchINS_11__wrap_iterIPKcEEEEEENS_9enable_ifIXaasr21is_move_constructibleIT_EE5valuesr18is_move_assignableIS9_EE5valueEvE4typeERS9_SC_, symObjAddr: 0x9F438, symBinAddr: 0x1000AAD08, symSize: 0x3C }
  - { offsetInCU: 0x9D2A7, offset: 0xB4126, size: 0x8, addend: 0x0, symName: __ZNSt3__122__make_exception_guardB8ue170006INS_29_AllocatorDestroyRangeReverseINS_9allocatorINS_9sub_matchINS_11__wrap_iterIPKcEEEEEENS_16reverse_iteratorIPS8_EEEEEENS_28__exception_guard_exceptionsIT_EESF_, symObjAddr: 0x9F53C, symBinAddr: 0x1000AAE0C, symSize: 0x4C }
  - { offsetInCU: 0x9D2DD, offset: 0xB415C, size: 0x8, addend: 0x0, symName: __ZNSt3__1neB8ue170006IPNS_9sub_matchINS_11__wrap_iterIPKcEEEES7_EEbRKNS_16reverse_iteratorIT_EERKNS8_IT0_EE, symObjAddr: 0x9F5CC, symBinAddr: 0x1000AAE9C, symSize: 0x48 }
  - { offsetInCU: 0x9D329, offset: 0xB41A8, size: 0x8, addend: 0x0, symName: __ZNSt3__112__to_addressB8ue170006INS_16reverse_iteratorIPNS_9sub_matchINS_11__wrap_iterIPKcEEEEEEvEEu7__decayIDTclsr19__to_address_helperIT_EE6__callclsr3stdE7declvalIRKSA_EEEEESC_, symObjAddr: 0x9F648, symBinAddr: 0x1000AAF18, symSize: 0x24 }
  - { offsetInCU: 0x9D389, offset: 0xB4208, size: 0x8, addend: 0x0, symName: __ZNSt3__119__allocator_destroyB8ue170006INS_9allocatorINS_9sub_matchINS_11__wrap_iterIPKcEEEEEENS_16reverse_iteratorINS9_IPS7_EEEESC_EEvRT_T0_T1_, symObjAddr: 0x9F928, symBinAddr: 0x1000AB1F8, symSize: 0x70 }
  - { offsetInCU: 0x9D3F0, offset: 0xB426F, size: 0x8, addend: 0x0, symName: __ZNSt3__1neB8ue170006INS_16reverse_iteratorIPNS_9sub_matchINS_11__wrap_iterIPKcEEEEEES9_EEbRKNS1_IT_EERKNS1_IT0_EE, symObjAddr: 0x9F9D4, symBinAddr: 0x1000AB2A4, symSize: 0x60 }
  - { offsetInCU: 0x9D43C, offset: 0xB42BB, size: 0x8, addend: 0x0, symName: __ZNSt3__112__to_addressB8ue170006INS_16reverse_iteratorINS1_IPNS_9sub_matchINS_11__wrap_iterIPKcEEEEEEEEvEEu7__decayIDTclsr19__to_address_helperIT_EE6__callclsr3stdE7declvalIRKSB_EEEEESD_, symObjAddr: 0x9FA34, symBinAddr: 0x1000AB304, symSize: 0x24 }
  - { offsetInCU: 0x9D844, offset: 0xB46C3, size: 0x8, addend: 0x0, symName: __ZNSt3__14swapB8ue170006IPPcEENS_9enable_ifIXaasr21is_move_constructibleIT_EE5valuesr18is_move_assignableIS4_EE5valueEvE4typeERS4_S7_, symObjAddr: 0xA14FC, symBinAddr: 0x1000ACDCC, symSize: 0x3C }
  - { offsetInCU: 0x9D895, offset: 0xB4714, size: 0x8, addend: 0x0, symName: __ZNSt3__14moveB8ue170006IPPcS2_EET0_T_S4_S3_, symObjAddr: 0xA15E0, symBinAddr: 0x1000ACEB0, symSize: 0x40 }
  - { offsetInCU: 0x9D8EF, offset: 0xB476E, size: 0x8, addend: 0x0, symName: __ZNSt3__16__moveB8ue170006INS_17_ClassicAlgPolicyEPPcS3_S3_EENS_4pairIT0_T2_EES5_T1_S6_, symObjAddr: 0xA16E8, symBinAddr: 0x1000ACFB8, symSize: 0x44 }
  - { offsetInCU: 0x9D95B, offset: 0xB47DA, size: 0x8, addend: 0x0, symName: __ZNSt3__123__dispatch_copy_or_moveB8ue170006INS_17_ClassicAlgPolicyENS_11__move_loopIS1_EENS_14__move_trivialEPPcS6_S6_EENS_4pairIT2_T4_EES8_T3_S9_, symObjAddr: 0xA172C, symBinAddr: 0x1000ACFFC, symSize: 0x44 }
  - { offsetInCU: 0x9D9D9, offset: 0xB4858, size: 0x8, addend: 0x0, symName: __ZNSt3__121__unwrap_and_dispatchB8ue170006INS_10__overloadINS_11__move_loopINS_17_ClassicAlgPolicyEEENS_14__move_trivialEEEPPcS8_S8_Li0EEENS_4pairIT0_T2_EESA_T1_SB_, symObjAddr: 0xA1770, symBinAddr: 0x1000AD040, symSize: 0xB4 }
  - { offsetInCU: 0x9DA68, offset: 0xB48E7, size: 0x8, addend: 0x0, symName: __ZNSt3__114__unwrap_rangeB8ue170006IPPcS2_EENS_4pairIT0_S4_EET_S6_, symObjAddr: 0xA1824, symBinAddr: 0x1000AD0F4, symSize: 0x60 }
  - { offsetInCU: 0x9DBE9, offset: 0xB4A68, size: 0x8, addend: 0x0, symName: __ZNSt3__113__unwrap_iterB8ue170006IPPcNS_18__unwrap_iter_implIS2_Lb1EEELi0EEEDTclsrT0_8__unwrapclsr3stdE7declvalIT_EEEES6_, symObjAddr: 0xA18CC, symBinAddr: 0x1000AD19C, symSize: 0x24 }
  - { offsetInCU: 0x9DC2D, offset: 0xB4AAC, size: 0x8, addend: 0x0, symName: __ZNSt3__19make_pairB8ue170006IPPcS2_EENS_4pairINS_18__unwrap_ref_decayIT_E4typeENS4_IT0_E4typeEEEOS5_OS8_, symObjAddr: 0xA18F0, symBinAddr: 0x1000AD1C0, symSize: 0x38 }
  - { offsetInCU: 0x9DC7D, offset: 0xB4AFC, size: 0x8, addend: 0x0, symName: __ZNSt3__114__rewrap_rangeB8ue170006IPPcS2_EET_S3_T0_, symObjAddr: 0xA1928, symBinAddr: 0x1000AD1F8, symSize: 0x2C }
  - { offsetInCU: 0x9DCC9, offset: 0xB4B48, size: 0x8, addend: 0x0, symName: __ZNSt3__113__rewrap_iterB8ue170006IPPcS2_NS_18__unwrap_iter_implIS2_Lb1EEEEET_S5_T0_, symObjAddr: 0xA1954, symBinAddr: 0x1000AD224, symSize: 0x3C }
  - { offsetInCU: 0x9DD1E, offset: 0xB4B9D, size: 0x8, addend: 0x0, symName: __ZNSt3__119__copy_trivial_implB8ue170006IPcS1_EENS_4pairIPT_PT0_EES4_S4_S6_, symObjAddr: 0xA1990, symBinAddr: 0x1000AD260, symSize: 0x80 }
  - { offsetInCU: 0x9DD86, offset: 0xB4C05, size: 0x8, addend: 0x0, symName: __ZNSt3__119__constexpr_memmoveB8ue170006IPcS1_Li0EEEPT_S3_PT0_NS_15__element_countE, symObjAddr: 0xA1A10, symBinAddr: 0x1000AD2E0, symSize: 0x64 }
  - { offsetInCU: 0x9DDF4, offset: 0xB4C73, size: 0x8, addend: 0x0, symName: __ZNSt3__19make_pairB8ue170006IRPPcS2_EENS_4pairINS_18__unwrap_ref_decayIT_E4typeENS5_IT0_E4typeEEEOS6_OS9_, symObjAddr: 0xA1A74, symBinAddr: 0x1000AD344, symSize: 0x38 }
  - { offsetInCU: 0x9DE98, offset: 0xB4D17, size: 0x8, addend: 0x0, symName: __ZNSt3__18distanceB8ue170006INS_13move_iteratorIPPcEEEENS_15iterator_traitsIT_E15difference_typeES6_S6_, symObjAddr: 0xA1CDC, symBinAddr: 0x1000AD5AC, symSize: 0x3C }
  - { offsetInCU: 0x9DEDB, offset: 0xB4D5A, size: 0x8, addend: 0x0, symName: __ZNSt3__110__distanceB8ue170006INS_13move_iteratorIPPcEEEENS_15iterator_traitsIT_E15difference_typeES6_S6_NS_26random_access_iterator_tagE, symObjAddr: 0xA1EE0, symBinAddr: 0x1000AD7B0, symSize: 0x30 }
  - { offsetInCU: 0x9DF27, offset: 0xB4DA6, size: 0x8, addend: 0x0, symName: __ZNSt3__1miB8ue170006IPPcS2_EEDTmicldtfp_4baseEcldtfp0_4baseEERKNS_13move_iteratorIT_EERKNS4_IT0_EE, symObjAddr: 0xA1F10, symBinAddr: 0x1000AD7E0, symSize: 0x48 }
  - { offsetInCU: 0x9DF77, offset: 0xB4DF6, size: 0x8, addend: 0x0, symName: __ZNSt3__113move_backwardB8ue170006IPPcS2_EET0_T_S4_S3_, symObjAddr: 0xA1FB8, symBinAddr: 0x1000AD888, symSize: 0x40 }
  - { offsetInCU: 0x9DFD1, offset: 0xB4E50, size: 0x8, addend: 0x0, symName: __ZNSt3__115__move_backwardB8ue170006INS_17_ClassicAlgPolicyEPPcS3_S3_EENS_4pairIT0_T2_EES5_T1_S6_, symObjAddr: 0xA1FF8, symBinAddr: 0x1000AD8C8, symSize: 0x44 }
  - { offsetInCU: 0x9E03D, offset: 0xB4EBC, size: 0x8, addend: 0x0, symName: __ZNSt3__123__dispatch_copy_or_moveB8ue170006INS_17_ClassicAlgPolicyENS_20__move_backward_loopIS1_EENS_23__move_backward_trivialEPPcS6_S6_EENS_4pairIT2_T4_EES8_T3_S9_, symObjAddr: 0xA203C, symBinAddr: 0x1000AD90C, symSize: 0x44 }
  - { offsetInCU: 0x9E0BB, offset: 0xB4F3A, size: 0x8, addend: 0x0, symName: __ZNSt3__121__unwrap_and_dispatchB8ue170006INS_10__overloadINS_20__move_backward_loopINS_17_ClassicAlgPolicyEEENS_23__move_backward_trivialEEEPPcS8_S8_Li0EEENS_4pairIT0_T2_EESA_T1_SB_, symObjAddr: 0xA2080, symBinAddr: 0x1000AD950, symSize: 0xB4 }
  - { offsetInCU: 0x9E14A, offset: 0xB4FC9, size: 0x8, addend: 0x0, symName: __ZNSt3__128__copy_backward_trivial_implB8ue170006IPcS1_EENS_4pairIPT_PT0_EES4_S4_S6_, symObjAddr: 0xA217C, symBinAddr: 0x1000ADA4C, symSize: 0x90 }
  - { offsetInCU: 0x9E1B1, offset: 0xB5030, size: 0x8, addend: 0x0, symName: __ZNSt3__19make_pairB8ue170006IRPPcS3_EENS_4pairINS_18__unwrap_ref_decayIT_E4typeENS5_IT0_E4typeEEEOS6_OS9_, symObjAddr: 0xA220C, symBinAddr: 0x1000ADADC, symSize: 0x38 }
  - { offsetInCU: 0x9E201, offset: 0xB5080, size: 0x8, addend: 0x0, symName: __ZNSt3__119__allocate_at_leastB8ue170006INS_9allocatorIPcEEEENS_19__allocation_resultINS_16allocator_traitsIT_E7pointerEEERS6_m, symObjAddr: 0xA23C4, symBinAddr: 0x1000ADC94, symSize: 0x40 }
  - { offsetInCU: 0x9E244, offset: 0xB50C3, size: 0x8, addend: 0x0, symName: __ZNSt3__112__to_addressB8ue170006ISt13exception_ptrEEPT_S3_, symObjAddr: 0xA48D8, symBinAddr: 0x1000B0190, symSize: 0x14 }
  - { offsetInCU: 0x9E279, offset: 0xB50F8, size: 0x8, addend: 0x0, symName: __ZNSt3__112__to_addressB8ue170006INS_10shared_ptrIN5Catch16IReporterFactoryEEEEEPT_S6_, symObjAddr: 0xA5148, symBinAddr: 0x1000B0A00, symSize: 0x14 }
  - { offsetInCU: 0x9E324, offset: 0xB51A3, size: 0x8, addend: 0x0, symName: __ZNSt3__119__allocate_at_leastB8ue170006INS_9allocatorINS_10shared_ptrIN5Catch16IReporterFactoryEEEEEEENS_19__allocation_resultINS_16allocator_traitsIT_E7pointerEEERS9_m, symObjAddr: 0xA684C, symBinAddr: 0x1000B2104, symSize: 0x40 }
  - { offsetInCU: 0x9E366, offset: 0xB51E5, size: 0x8, addend: 0x0, symName: __ZNSt3__142__uninitialized_allocator_move_if_noexceptB8ue170006INS_9allocatorINS_10shared_ptrIN5Catch16IReporterFactoryEEEEENS_16reverse_iteratorIPS5_EES9_S9_EET2_RT_T0_T1_SA_, symObjAddr: 0xA6A00, symBinAddr: 0x1000B22B8, symSize: 0x12C }
  - { offsetInCU: 0x9E407, offset: 0xB5286, size: 0x8, addend: 0x0, symName: __ZNSt3__14swapB8ue170006IPNS_10shared_ptrIN5Catch16IReporterFactoryEEEEENS_9enable_ifIXaasr21is_move_constructibleIT_EE5valuesr18is_move_assignableIS7_EE5valueEvE4typeERS7_SA_, symObjAddr: 0xA6B78, symBinAddr: 0x1000B2430, symSize: 0x3C }
  - { offsetInCU: 0x9E458, offset: 0xB52D7, size: 0x8, addend: 0x0, symName: __ZNSt3__122__make_exception_guardB8ue170006INS_29_AllocatorDestroyRangeReverseINS_9allocatorINS_10shared_ptrIN5Catch16IReporterFactoryEEEEENS_16reverse_iteratorIPS6_EEEEEENS_28__exception_guard_exceptionsIT_EESD_, symObjAddr: 0xA6C60, symBinAddr: 0x1000B2518, symSize: 0x4C }
  - { offsetInCU: 0x9E48E, offset: 0xB530D, size: 0x8, addend: 0x0, symName: __ZNSt3__1neB8ue170006IPNS_10shared_ptrIN5Catch16IReporterFactoryEEES5_EEbRKNS_16reverse_iteratorIT_EERKNS6_IT0_EE, symObjAddr: 0xA6CF0, symBinAddr: 0x1000B25A8, symSize: 0x48 }
  - { offsetInCU: 0x9E4DA, offset: 0xB5359, size: 0x8, addend: 0x0, symName: __ZNSt3__112__to_addressB8ue170006INS_16reverse_iteratorIPNS_10shared_ptrIN5Catch16IReporterFactoryEEEEEvEEu7__decayIDTclsr19__to_address_helperIT_EE6__callclsr3stdE7declvalIRKS8_EEEEESA_, symObjAddr: 0xA6D6C, symBinAddr: 0x1000B2624, symSize: 0x24 }
  - { offsetInCU: 0x9E53A, offset: 0xB53B9, size: 0x8, addend: 0x0, symName: __ZNSt3__119__allocator_destroyB8ue170006INS_9allocatorINS_10shared_ptrIN5Catch16IReporterFactoryEEEEENS_16reverse_iteratorINS7_IPS5_EEEESA_EEvRT_T0_T1_, symObjAddr: 0xA70C0, symBinAddr: 0x1000B2978, symSize: 0x70 }
  - { offsetInCU: 0x9E5A1, offset: 0xB5420, size: 0x8, addend: 0x0, symName: __ZNSt3__1neB8ue170006INS_16reverse_iteratorIPNS_10shared_ptrIN5Catch16IReporterFactoryEEEEES7_EEbRKNS1_IT_EERKNS1_IT0_EE, symObjAddr: 0xA716C, symBinAddr: 0x1000B2A24, symSize: 0x60 }
  - { offsetInCU: 0x9E5ED, offset: 0xB546C, size: 0x8, addend: 0x0, symName: __ZNSt3__112__to_addressB8ue170006INS_16reverse_iteratorINS1_IPNS_10shared_ptrIN5Catch16IReporterFactoryEEEEEEEvEEu7__decayIDTclsr19__to_address_helperIT_EE6__callclsr3stdE7declvalIRKS9_EEEEESB_, symObjAddr: 0xA71CC, symBinAddr: 0x1000B2A84, symSize: 0x24 }
  - { offsetInCU: 0x9E64E, offset: 0xB54CD, size: 0x8, addend: 0x0, symName: __ZNSt3__112__to_addressB8ue170006IN5Catch14SectionEndInfoEEEPT_S4_, symObjAddr: 0xA7D58, symBinAddr: 0x1000B3610, symSize: 0x14 }
  - { offsetInCU: 0x9E683, offset: 0xB5502, size: 0x8, addend: 0x0, symName: __ZNSt3__112__to_addressB8ue170006IPN5Catch16TestCaseTracking8ITrackerEEEPT_S6_, symObjAddr: 0xA823C, symBinAddr: 0x1000B3AF4, symSize: 0x14 }
  - { offsetInCU: 0x9E6B8, offset: 0xB5537, size: 0x8, addend: 0x0, symName: __ZNSt3__119__allocate_at_leastB8ue170006INS_9allocatorIPN5Catch16TestCaseTracking8ITrackerEEEEENS_19__allocation_resultINS_16allocator_traitsIT_E7pointerEEERS9_m, symObjAddr: 0xA8AF4, symBinAddr: 0x1000B43AC, symSize: 0x40 }
  - { offsetInCU: 0x9E6FA, offset: 0xB5579, size: 0x8, addend: 0x0, symName: __ZNSt3__142__uninitialized_allocator_move_if_noexceptB8ue170006INS_9allocatorIPN5Catch16TestCaseTracking8ITrackerEEENS_16reverse_iteratorIPS5_EES9_S5_vEET1_RT_T0_SD_SA_, symObjAddr: 0xA8CA8, symBinAddr: 0x1000B4560, symSize: 0x78 }
  - { offsetInCU: 0x9E77A, offset: 0xB55F9, size: 0x8, addend: 0x0, symName: __ZNSt3__14swapB8ue170006IPPN5Catch16TestCaseTracking8ITrackerEEENS_9enable_ifIXaasr21is_move_constructibleIT_EE5valuesr18is_move_assignableIS7_EE5valueEvE4typeERS7_SA_, symObjAddr: 0xA8D6C, symBinAddr: 0x1000B4624, symSize: 0x3C }
  - { offsetInCU: 0x9E7CB, offset: 0xB564A, size: 0x8, addend: 0x0, symName: __ZNSt3__14moveB8ue170006INS_16reverse_iteratorIPPN5Catch16TestCaseTracking8ITrackerEEES7_EET0_T_S9_S8_, symObjAddr: 0xA8E54, symBinAddr: 0x1000B470C, symSize: 0x78 }
  - { offsetInCU: 0x9E825, offset: 0xB56A4, size: 0x8, addend: 0x0, symName: __ZNSt3__16__moveB8ue170006INS_17_ClassicAlgPolicyENS_16reverse_iteratorIPPN5Catch16TestCaseTracking8ITrackerEEES8_S8_EENS_4pairIT0_T2_EESA_T1_SB_, symObjAddr: 0xA8ECC, symBinAddr: 0x1000B4784, symSize: 0x64 }
  - { offsetInCU: 0x9E891, offset: 0xB5710, size: 0x8, addend: 0x0, symName: __ZNSt3__123__dispatch_copy_or_moveB8ue170006INS_17_ClassicAlgPolicyENS_11__move_loopIS1_EENS_14__move_trivialENS_16reverse_iteratorIPPN5Catch16TestCaseTracking8ITrackerEEESB_SB_EENS_4pairIT2_T4_EESD_T3_SE_, symObjAddr: 0xA8F30, symBinAddr: 0x1000B47E8, symSize: 0x64 }
  - { offsetInCU: 0x9E90F, offset: 0xB578E, size: 0x8, addend: 0x0, symName: __ZNSt3__121__unwrap_and_dispatchB8ue170006INS_10__overloadINS_11__move_loopINS_17_ClassicAlgPolicyEEENS_14__move_trivialEEENS_16reverse_iteratorIPPN5Catch16TestCaseTracking8ITrackerEEESD_SD_Li0EEENS_4pairIT0_T2_EESF_T1_SG_, symObjAddr: 0xA8F94, symBinAddr: 0x1000B484C, symSize: 0x12C }
  - { offsetInCU: 0x9E9A0, offset: 0xB581F, size: 0x8, addend: 0x0, symName: __ZNSt3__114__unwrap_rangeB8ue170006INS_16reverse_iteratorIPPN5Catch16TestCaseTracking8ITrackerEEES7_EENS_4pairIT0_S9_EET_SB_, symObjAddr: 0xA90C0, symBinAddr: 0x1000B4978, symSize: 0x84 }
  - { offsetInCU: 0x9EAC1, offset: 0xB5940, size: 0x8, addend: 0x0, symName: __ZNSt3__113__unwrap_iterB8ue170006INS_16reverse_iteratorIPPN5Catch16TestCaseTracking8ITrackerEEENS_18__unwrap_iter_implIS7_Lb0EEELi0EEEDTclsrT0_8__unwrapclsr3stdE7declvalIT_EEEESB_, symObjAddr: 0xA91E4, symBinAddr: 0x1000B4A9C, symSize: 0x44 }
  - { offsetInCU: 0x9EB05, offset: 0xB5984, size: 0x8, addend: 0x0, symName: __ZNSt3__19make_pairB8ue170006INS_16reverse_iteratorIPPN5Catch16TestCaseTracking8ITrackerEEES7_EENS_4pairINS_18__unwrap_ref_decayIT_E4typeENS9_IT0_E4typeEEEOSA_OSD_, symObjAddr: 0xA9228, symBinAddr: 0x1000B4AE0, symSize: 0x38 }
  - { offsetInCU: 0x9EB55, offset: 0xB59D4, size: 0x8, addend: 0x0, symName: __ZNSt3__114__rewrap_rangeB8ue170006INS_16reverse_iteratorIPPN5Catch16TestCaseTracking8ITrackerEEES7_EET_S8_T0_, symObjAddr: 0xA9260, symBinAddr: 0x1000B4B18, symSize: 0x5C }
  - { offsetInCU: 0x9EBA1, offset: 0xB5A20, size: 0x8, addend: 0x0, symName: __ZNSt3__113__rewrap_iterB8ue170006INS_16reverse_iteratorIPPN5Catch16TestCaseTracking8ITrackerEEES7_NS_18__unwrap_iter_implIS7_Lb0EEEEET_SA_T0_, symObjAddr: 0xA92BC, symBinAddr: 0x1000B4B74, symSize: 0x74 }
  - { offsetInCU: 0x9EBF6, offset: 0xB5A75, size: 0x8, addend: 0x0, symName: __ZNSt3__1neB8ue170006IPPN5Catch16TestCaseTracking8ITrackerES5_EEbRKNS_16reverse_iteratorIT_EERKNS6_IT0_EE, symObjAddr: 0xA9330, symBinAddr: 0x1000B4BE8, symSize: 0x48 }
  - { offsetInCU: 0x9ECB0, offset: 0xB5B2F, size: 0x8, addend: 0x0, symName: __ZNSt3__119__allocate_at_leastB8ue170006INS_9allocatorIN5Catch14SectionEndInfoEEEEENS_19__allocation_resultINS_16allocator_traitsIT_E7pointerEEERS7_m, symObjAddr: 0xAA074, symBinAddr: 0x1000B592C, symSize: 0x40 }
  - { offsetInCU: 0x9ECF2, offset: 0xB5B71, size: 0x8, addend: 0x0, symName: __ZNSt3__142__uninitialized_allocator_move_if_noexceptB8ue170006INS_9allocatorIN5Catch14SectionEndInfoEEENS_16reverse_iteratorIPS3_EES7_S7_EET2_RT_T0_T1_S8_, symObjAddr: 0xAA22C, symBinAddr: 0x1000B5AE4, symSize: 0x12C }
  - { offsetInCU: 0x9ED93, offset: 0xB5C12, size: 0x8, addend: 0x0, symName: __ZNSt3__14swapB8ue170006IPN5Catch14SectionEndInfoEEENS_9enable_ifIXaasr21is_move_constructibleIT_EE5valuesr18is_move_assignableIS5_EE5valueEvE4typeERS5_S8_, symObjAddr: 0xAA3A4, symBinAddr: 0x1000B5C5C, symSize: 0x3C }
  - { offsetInCU: 0x9EDE4, offset: 0xB5C63, size: 0x8, addend: 0x0, symName: __ZNSt3__122__make_exception_guardB8ue170006INS_29_AllocatorDestroyRangeReverseINS_9allocatorIN5Catch14SectionEndInfoEEENS_16reverse_iteratorIPS4_EEEEEENS_28__exception_guard_exceptionsIT_EESB_, symObjAddr: 0xAA4A8, symBinAddr: 0x1000B5D60, symSize: 0x4C }
  - { offsetInCU: 0x9EE1A, offset: 0xB5C99, size: 0x8, addend: 0x0, symName: __ZNSt3__1neB8ue170006IPN5Catch14SectionEndInfoES3_EEbRKNS_16reverse_iteratorIT_EERKNS4_IT0_EE, symObjAddr: 0xAA538, symBinAddr: 0x1000B5DF0, symSize: 0x48 }
  - { offsetInCU: 0x9EE66, offset: 0xB5CE5, size: 0x8, addend: 0x0, symName: __ZNSt3__112__to_addressB8ue170006INS_16reverse_iteratorIPN5Catch14SectionEndInfoEEEvEEu7__decayIDTclsr19__to_address_helperIT_EE6__callclsr3stdE7declvalIRKS6_EEEEES8_, symObjAddr: 0xAA5B4, symBinAddr: 0x1000B5E6C, symSize: 0x24 }
  - { offsetInCU: 0x9EEC6, offset: 0xB5D45, size: 0x8, addend: 0x0, symName: __ZNSt3__119__allocator_destroyB8ue170006INS_9allocatorIN5Catch14SectionEndInfoEEENS_16reverse_iteratorINS5_IPS3_EEEES8_EEvRT_T0_T1_, symObjAddr: 0xAA998, symBinAddr: 0x1000B6250, symSize: 0x70 }
  - { offsetInCU: 0x9EF2D, offset: 0xB5DAC, size: 0x8, addend: 0x0, symName: __ZNSt3__1neB8ue170006INS_16reverse_iteratorIPN5Catch14SectionEndInfoEEES5_EEbRKNS1_IT_EERKNS1_IT0_EE, symObjAddr: 0xAAA44, symBinAddr: 0x1000B62FC, symSize: 0x60 }
  - { offsetInCU: 0x9EF79, offset: 0xB5DF8, size: 0x8, addend: 0x0, symName: __ZNSt3__112__to_addressB8ue170006INS_16reverse_iteratorINS1_IPN5Catch14SectionEndInfoEEEEEvEEu7__decayIDTclsr19__to_address_helperIT_EE6__callclsr3stdE7declvalIRKS7_EEEEES9_, symObjAddr: 0xAAAA4, symBinAddr: 0x1000B635C, symSize: 0x24 }
  - { offsetInCU: 0x9EFDA, offset: 0xB5E59, size: 0x8, addend: 0x0, symName: __ZNSt3__14findB8ue170006INS_11__wrap_iterIPN5Catch11MessageInfoEEES3_EET_S6_S6_RKT0_, symObjAddr: 0xAAE90, symBinAddr: 0x1000B6748, symSize: 0x78 }
  - { offsetInCU: 0x9F042, offset: 0xB5EC1, size: 0x8, addend: 0x0, symName: __ZNSt3__1neB8ue170006IPN5Catch11MessageInfoEEEbRKNS_11__wrap_iterIT_EES8_, symObjAddr: 0xAAF08, symBinAddr: 0x1000B67C0, symSize: 0x34 }
  - { offsetInCU: 0x9F085, offset: 0xB5F04, size: 0x8, addend: 0x0, symName: __ZNSt3__113__rewrap_iterB8ue170006INS_11__wrap_iterIPN5Catch11MessageInfoEEES4_NS_18__unwrap_iter_implIS5_Lb1EEEEET_S8_T0_, symObjAddr: 0xAAFD0, symBinAddr: 0x1000B6888, symSize: 0x4C }
  - { offsetInCU: 0x9F0DA, offset: 0xB5F59, size: 0x8, addend: 0x0, symName: __ZNSt3__111__find_implB8ue170006IPN5Catch11MessageInfoES3_S2_NS_10__identityEEET_S5_T0_RKT1_RT2_, symObjAddr: 0xAB01C, symBinAddr: 0x1000B68D4, symSize: 0x7C }
  - { offsetInCU: 0x9F154, offset: 0xB5FD3, size: 0x8, addend: 0x0, symName: __ZNSt3__113__unwrap_iterB8ue170006INS_11__wrap_iterIPN5Catch11MessageInfoEEENS_18__unwrap_iter_implIS5_Lb1EEELi0EEEDTclsrT0_8__unwrapclsr3stdE7declvalIT_EEEES9_, symObjAddr: 0xAB098, symBinAddr: 0x1000B6950, symSize: 0x2C }
  - { offsetInCU: 0x9F1ED, offset: 0xB606C, size: 0x8, addend: 0x0, symName: __ZNSt3__112__to_addressB8ue170006INS_11__wrap_iterIPN5Catch11MessageInfoEEEvEEu7__decayIDTclsr19__to_address_helperIT_EE6__callclsr3stdE7declvalIRKS6_EEEEES8_, symObjAddr: 0xAB15C, symBinAddr: 0x1000B6A14, symSize: 0x24 }
  - { offsetInCU: 0x9F2C9, offset: 0xB6148, size: 0x8, addend: 0x0, symName: __ZNSt3__18__invokeB8ue170006IRNS_10__identityEJRN5Catch11MessageInfoEEEEDTclclsr3stdE7declvalIT_EEspclsr3stdE7declvalIT0_EEEEOS6_DpOS7_, symObjAddr: 0xAB20C, symBinAddr: 0x1000B6AC4, symSize: 0x2C }
  - { offsetInCU: 0x9F31D, offset: 0xB619C, size: 0x8, addend: 0x0, symName: __ZNSt3__1eqB8ue170006IPN5Catch11MessageInfoEEEbRKNS_11__wrap_iterIT_EES8_, symObjAddr: 0xAB278, symBinAddr: 0x1000B6B30, symSize: 0x48 }
  - { offsetInCU: 0x9F360, offset: 0xB61DF, size: 0x8, addend: 0x0, symName: __ZNSt3__1miB8ue170006IPKN5Catch11MessageInfoEPS2_EEDTmicldtfp_4baseEcldtfp0_4baseEERKNS_11__wrap_iterIT_EERKNS7_IT0_EE, symObjAddr: 0xAB2C0, symBinAddr: 0x1000B6B78, symSize: 0x48 }
  - { offsetInCU: 0x9F3AC, offset: 0xB622B, size: 0x8, addend: 0x0, symName: __ZNSt3__14moveB8ue170006IPN5Catch11MessageInfoES3_EET0_T_S5_S4_, symObjAddr: 0xAB354, symBinAddr: 0x1000B6C0C, symSize: 0x40 }
  - { offsetInCU: 0x9F406, offset: 0xB6285, size: 0x8, addend: 0x0, symName: __ZNSt3__16__moveB8ue170006INS_17_ClassicAlgPolicyEPN5Catch11MessageInfoES4_S4_EENS_4pairIT0_T2_EES6_T1_S7_, symObjAddr: 0xAB394, symBinAddr: 0x1000B6C4C, symSize: 0x44 }
  - { offsetInCU: 0x9F472, offset: 0xB62F1, size: 0x8, addend: 0x0, symName: __ZNSt3__123__dispatch_copy_or_moveB8ue170006INS_17_ClassicAlgPolicyENS_11__move_loopIS1_EENS_14__move_trivialEPN5Catch11MessageInfoES7_S7_EENS_4pairIT2_T4_EES9_T3_SA_, symObjAddr: 0xAB3D8, symBinAddr: 0x1000B6C90, symSize: 0x44 }
  - { offsetInCU: 0x9F4F0, offset: 0xB636F, size: 0x8, addend: 0x0, symName: __ZNSt3__121__unwrap_and_dispatchB8ue170006INS_10__overloadINS_11__move_loopINS_17_ClassicAlgPolicyEEENS_14__move_trivialEEEPN5Catch11MessageInfoES9_S9_Li0EEENS_4pairIT0_T2_EESB_T1_SC_, symObjAddr: 0xAB41C, symBinAddr: 0x1000B6CD4, symSize: 0xB4 }
  - { offsetInCU: 0x9F57F, offset: 0xB63FE, size: 0x8, addend: 0x0, symName: __ZNSt3__114__rewrap_rangeB8ue170006IPN5Catch11MessageInfoES3_EET_S4_T0_, symObjAddr: 0xAB560, symBinAddr: 0x1000B6E18, symSize: 0x2C }
  - { offsetInCU: 0x9F5F0, offset: 0xB646F, size: 0x8, addend: 0x0, symName: __ZNSt3__1neB8ue170006IPN5Catch14SectionEndInfoEEEbRKNS_11__wrap_iterIT_EES8_, symObjAddr: 0xAB6F8, symBinAddr: 0x1000B6FB0, symSize: 0x34 }
  - { offsetInCU: 0x9F633, offset: 0xB64B2, size: 0x8, addend: 0x0, symName: __ZNSt3__1eqB8ue170006IPN5Catch14SectionEndInfoEEEbRKNS_11__wrap_iterIT_EES8_, symObjAddr: 0xAB74C, symBinAddr: 0x1000B7004, symSize: 0x48 }
  - { offsetInCU: 0x9F676, offset: 0xB64F5, size: 0x8, addend: 0x0, symName: __ZNSt3__14swapB8ue170006IPN5Catch6ConfigEEENS_9enable_ifIXaasr21is_move_constructibleIT_EE5valuesr18is_move_assignableIS5_EE5valueEvE4typeERS5_S8_, symObjAddr: 0xABA54, symBinAddr: 0x1000B730C, symSize: 0x3C }
  - { offsetInCU: 0x9F6C6, offset: 0xB6545, size: 0x8, addend: 0x0, symName: __ZNSt3__115allocate_sharedB8ue170006IN5Catch6ConfigENS_9allocatorIS2_EEJRNS1_10ConfigDataEEvEENS_10shared_ptrIT_EERKT0_DpOT1_, symObjAddr: 0xABAA8, symBinAddr: 0x1000B7360, symSize: 0x98 }
  - { offsetInCU: 0x9FA76, offset: 0xB68F5, size: 0x8, addend: 0x0, symName: __ZNSt3__112__to_addressB8ue170006IPN5Catch10ISingletonEEEPT_S5_, symObjAddr: 0xAC654, symBinAddr: 0x1000B7F0C, symSize: 0x14 }
  - { offsetInCU: 0x9FAAB, offset: 0xB692A, size: 0x8, addend: 0x0, symName: __ZNSt3__119__allocate_at_leastB8ue170006INS_9allocatorIPN5Catch10ISingletonEEEEENS_19__allocation_resultINS_16allocator_traitsIT_E7pointerEEERS8_m, symObjAddr: 0xACC78, symBinAddr: 0x1000B8530, symSize: 0x40 }
  - { offsetInCU: 0x9FAED, offset: 0xB696C, size: 0x8, addend: 0x0, symName: __ZNSt3__142__uninitialized_allocator_move_if_noexceptB8ue170006INS_9allocatorIPN5Catch10ISingletonEEENS_16reverse_iteratorIPS4_EES8_S4_vEET1_RT_T0_SC_S9_, symObjAddr: 0xACEE4, symBinAddr: 0x1000B879C, symSize: 0x78 }
  - { offsetInCU: 0x9FB6D, offset: 0xB69EC, size: 0x8, addend: 0x0, symName: __ZNSt3__14swapB8ue170006IPPN5Catch10ISingletonEEENS_9enable_ifIXaasr21is_move_constructibleIT_EE5valuesr18is_move_assignableIS6_EE5valueEvE4typeERS6_S9_, symObjAddr: 0xACFA8, symBinAddr: 0x1000B8860, symSize: 0x3C }
  - { offsetInCU: 0x9FBBE, offset: 0xB6A3D, size: 0x8, addend: 0x0, symName: __ZNSt3__14moveB8ue170006INS_16reverse_iteratorIPPN5Catch10ISingletonEEES6_EET0_T_S8_S7_, symObjAddr: 0xAD0D8, symBinAddr: 0x1000B8990, symSize: 0x78 }
  - { offsetInCU: 0x9FC18, offset: 0xB6A97, size: 0x8, addend: 0x0, symName: __ZNSt3__16__moveB8ue170006INS_17_ClassicAlgPolicyENS_16reverse_iteratorIPPN5Catch10ISingletonEEES7_S7_EENS_4pairIT0_T2_EES9_T1_SA_, symObjAddr: 0xAD150, symBinAddr: 0x1000B8A08, symSize: 0x64 }
  - { offsetInCU: 0x9FC84, offset: 0xB6B03, size: 0x8, addend: 0x0, symName: __ZNSt3__123__dispatch_copy_or_moveB8ue170006INS_17_ClassicAlgPolicyENS_11__move_loopIS1_EENS_14__move_trivialENS_16reverse_iteratorIPPN5Catch10ISingletonEEESA_SA_EENS_4pairIT2_T4_EESC_T3_SD_, symObjAddr: 0xAD1B4, symBinAddr: 0x1000B8A6C, symSize: 0x64 }
  - { offsetInCU: 0x9FD02, offset: 0xB6B81, size: 0x8, addend: 0x0, symName: __ZNSt3__121__unwrap_and_dispatchB8ue170006INS_10__overloadINS_11__move_loopINS_17_ClassicAlgPolicyEEENS_14__move_trivialEEENS_16reverse_iteratorIPPN5Catch10ISingletonEEESC_SC_Li0EEENS_4pairIT0_T2_EESE_T1_SF_, symObjAddr: 0xAD218, symBinAddr: 0x1000B8AD0, symSize: 0x12C }
  - { offsetInCU: 0x9FD93, offset: 0xB6C12, size: 0x8, addend: 0x0, symName: __ZNSt3__114__unwrap_rangeB8ue170006INS_16reverse_iteratorIPPN5Catch10ISingletonEEES6_EENS_4pairIT0_S8_EET_SA_, symObjAddr: 0xAD344, symBinAddr: 0x1000B8BFC, symSize: 0x84 }
  - { offsetInCU: 0x9FEB4, offset: 0xB6D33, size: 0x8, addend: 0x0, symName: __ZNSt3__113__unwrap_iterB8ue170006INS_16reverse_iteratorIPPN5Catch10ISingletonEEENS_18__unwrap_iter_implIS6_Lb0EEELi0EEEDTclsrT0_8__unwrapclsr3stdE7declvalIT_EEEESA_, symObjAddr: 0xAD468, symBinAddr: 0x1000B8D20, symSize: 0x44 }
  - { offsetInCU: 0x9FEF8, offset: 0xB6D77, size: 0x8, addend: 0x0, symName: __ZNSt3__19make_pairB8ue170006INS_16reverse_iteratorIPPN5Catch10ISingletonEEES6_EENS_4pairINS_18__unwrap_ref_decayIT_E4typeENS8_IT0_E4typeEEEOS9_OSC_, symObjAddr: 0xAD4AC, symBinAddr: 0x1000B8D64, symSize: 0x38 }
  - { offsetInCU: 0x9FF48, offset: 0xB6DC7, size: 0x8, addend: 0x0, symName: __ZNSt3__114__rewrap_rangeB8ue170006INS_16reverse_iteratorIPPN5Catch10ISingletonEEES6_EET_S7_T0_, symObjAddr: 0xAD4E4, symBinAddr: 0x1000B8D9C, symSize: 0x5C }
  - { offsetInCU: 0x9FF94, offset: 0xB6E13, size: 0x8, addend: 0x0, symName: __ZNSt3__113__rewrap_iterB8ue170006INS_16reverse_iteratorIPPN5Catch10ISingletonEEES6_NS_18__unwrap_iter_implIS6_Lb0EEEEET_S9_T0_, symObjAddr: 0xAD540, symBinAddr: 0x1000B8DF8, symSize: 0x74 }
  - { offsetInCU: 0x9FFE9, offset: 0xB6E68, size: 0x8, addend: 0x0, symName: __ZNSt3__1neB8ue170006IPPN5Catch10ISingletonES4_EEbRKNS_16reverse_iteratorIT_EERKNS5_IT0_EE, symObjAddr: 0xAD5B4, symBinAddr: 0x1000B8E6C, symSize: 0x48 }
  - { offsetInCU: 0xA00A3, offset: 0xB6F22, size: 0x8, addend: 0x0, symName: __ZNSt3__119__allocate_at_leastB8ue170006INS_9allocatorISt13exception_ptrEEEENS_19__allocation_resultINS_16allocator_traitsIT_E7pointerEEERS6_m, symObjAddr: 0xAE3A8, symBinAddr: 0x1000B9C60, symSize: 0x40 }
  - { offsetInCU: 0xA00E5, offset: 0xB6F64, size: 0x8, addend: 0x0, symName: __ZNSt3__142__uninitialized_allocator_move_if_noexceptB8ue170006INS_9allocatorISt13exception_ptrEENS_16reverse_iteratorIPS2_EES6_S6_EET2_RT_T0_T1_S7_, symObjAddr: 0xAE55C, symBinAddr: 0x1000B9E14, symSize: 0x12C }
  - { offsetInCU: 0xA0186, offset: 0xB7005, size: 0x8, addend: 0x0, symName: __ZNSt3__14swapB8ue170006IPSt13exception_ptrEENS_9enable_ifIXaasr21is_move_constructibleIT_EE5valuesr18is_move_assignableIS4_EE5valueEvE4typeERS4_S7_, symObjAddr: 0xAE6D4, symBinAddr: 0x1000B9F8C, symSize: 0x3C }
  - { offsetInCU: 0xA01D7, offset: 0xB7056, size: 0x8, addend: 0x0, symName: __ZNSt3__122__make_exception_guardB8ue170006INS_29_AllocatorDestroyRangeReverseINS_9allocatorISt13exception_ptrEENS_16reverse_iteratorIPS3_EEEEEENS_28__exception_guard_exceptionsIT_EESA_, symObjAddr: 0xAE7BC, symBinAddr: 0x1000BA074, symSize: 0x4C }
  - { offsetInCU: 0xA020D, offset: 0xB708C, size: 0x8, addend: 0x0, symName: __ZNSt3__1neB8ue170006IPSt13exception_ptrS2_EEbRKNS_16reverse_iteratorIT_EERKNS3_IT0_EE, symObjAddr: 0xAE84C, symBinAddr: 0x1000BA104, symSize: 0x48 }
  - { offsetInCU: 0xA0259, offset: 0xB70D8, size: 0x8, addend: 0x0, symName: __ZNSt3__112__to_addressB8ue170006INS_16reverse_iteratorIPSt13exception_ptrEEvEEu7__decayIDTclsr19__to_address_helperIT_EE6__callclsr3stdE7declvalIRKS5_EEEEES7_, symObjAddr: 0xAE8C8, symBinAddr: 0x1000BA180, symSize: 0x24 }
  - { offsetInCU: 0xA02B9, offset: 0xB7138, size: 0x8, addend: 0x0, symName: __ZNSt3__119__allocator_destroyB8ue170006INS_9allocatorISt13exception_ptrEENS_16reverse_iteratorINS4_IPS2_EEEES7_EEvRT_T0_T1_, symObjAddr: 0xAEBA8, symBinAddr: 0x1000BA460, symSize: 0x70 }
  - { offsetInCU: 0xA0320, offset: 0xB719F, size: 0x8, addend: 0x0, symName: __ZNSt3__1neB8ue170006INS_16reverse_iteratorIPSt13exception_ptrEES4_EEbRKNS1_IT_EERKNS1_IT0_EE, symObjAddr: 0xAEC54, symBinAddr: 0x1000BA50C, symSize: 0x60 }
  - { offsetInCU: 0xA036C, offset: 0xB71EB, size: 0x8, addend: 0x0, symName: __ZNSt3__112__to_addressB8ue170006INS_16reverse_iteratorINS1_IPSt13exception_ptrEEEEvEEu7__decayIDTclsr19__to_address_helperIT_EE6__callclsr3stdE7declvalIRKS6_EEEEES8_, symObjAddr: 0xAECB4, symBinAddr: 0x1000BA56C, symSize: 0x24 }
  - { offsetInCU: 0xA03CD, offset: 0xB724C, size: 0x8, addend: 0x0, symName: __ZNSt3__15equalB8ue170006INS_11__wrap_iterIPKcEES4_NS_10__equal_toEEEbT_S6_T0_T1_, symObjAddr: 0xAF610, symBinAddr: 0x1000BAEC8, symSize: 0x74 }
  - { offsetInCU: 0xA043E, offset: 0xB72BD, size: 0x8, addend: 0x0, symName: __ZNSt3__15equalB8ue170006INS_16reverse_iteratorINS_11__wrap_iterIPKcEEEES6_NS_10__equal_toEEEbT_S8_T0_T1_, symObjAddr: 0xAF6E0, symBinAddr: 0x1000BAF98, symSize: 0xA8 }
  - { offsetInCU: 0xA04AF, offset: 0xB732E, size: 0x8, addend: 0x0, symName: __ZNSt3__117__equal_iter_implB8ue170006INS_16reverse_iteratorINS_11__wrap_iterIPKcEEEES6_NS_10__equal_toEEEbT_S8_T0_RT1_, symObjAddr: 0xAF788, symBinAddr: 0x1000BB040, symSize: 0xC8 }
  - { offsetInCU: 0xA0520, offset: 0xB739F, size: 0x8, addend: 0x0, symName: __ZNSt3__113__unwrap_iterB8ue170006INS_16reverse_iteratorINS_11__wrap_iterIPKcEEEENS_18__unwrap_iter_implIS6_Lb0EEELi0EEEDTclsrT0_8__unwrapclsr3stdE7declvalIT_EEEESA_, symObjAddr: 0xAF850, symBinAddr: 0x1000BB108, symSize: 0x44 }
  - { offsetInCU: 0xA0565, offset: 0xB73E4, size: 0x8, addend: 0x0, symName: __ZNSt3__1neB8ue170006INS_11__wrap_iterIPKcEES4_EEbRKNS_16reverse_iteratorIT_EERKNS5_IT0_EE, symObjAddr: 0xAF894, symBinAddr: 0x1000BB14C, symSize: 0x54 }
  - { offsetInCU: 0xA05F9, offset: 0xB7478, size: 0x8, addend: 0x0, symName: __ZNSt3__110__str_findB8ue170006IcmNS_11char_traitsIcEELm18446744073709551615EEET0_PKT_S3_S6_S3_S3_, symObjAddr: 0xAF9B0, symBinAddr: 0x1000BB268, symSize: 0xE4 }
  - { offsetInCU: 0xA06A0, offset: 0xB751F, size: 0x8, addend: 0x0, symName: __ZNSt3__118__search_substringB8ue170006IcNS_11char_traitsIcEEEEPKT_S5_S5_S5_S5_, symObjAddr: 0xAFA94, symBinAddr: 0x1000BB34C, symSize: 0x154 }
  - { offsetInCU: 0xA073A, offset: 0xB75B9, size: 0x8, addend: 0x0, symName: __ZNSt3__123__str_find_first_not_ofB8ue170006IcmNS_11char_traitsIcEELm18446744073709551615EEET0_PKT_S3_S6_S3_S3_, symObjAddr: 0xAFBE8, symBinAddr: 0x1000BB4A0, symSize: 0xDC }
  - { offsetInCU: 0xA080C, offset: 0xB768B, size: 0x8, addend: 0x0, symName: __ZNSt3__122__str_find_last_not_ofB8ue170006IcmNS_11char_traitsIcEELm18446744073709551615EEET0_PKT_S3_S6_S3_S3_, symObjAddr: 0xAFCC4, symBinAddr: 0x1000BB57C, symSize: 0xDC }
  - { offsetInCU: 0xA08C1, offset: 0xB7740, size: 0x8, addend: 0x0, symName: __ZNSt3__1neB8ue170006ERKNS_21__tree_const_iteratorINS_12__value_typeINS_12basic_stringIcNS_11char_traitsIcEENS_9allocatorIcEEEEN5Catch8TagAliasEEEPNS_11__tree_nodeISA_PvEElEESH_, symObjAddr: 0xB02C0, symBinAddr: 0x1000BBB78, symSize: 0x34 }
  - { offsetInCU: 0xA08FE, offset: 0xB777D, size: 0x8, addend: 0x0, symName: __ZNSt3__1eqB8ue170006ERKNS_21__tree_const_iteratorINS_12__value_typeINS_12basic_stringIcNS_11char_traitsIcEENS_9allocatorIcEEEEN5Catch8TagAliasEEEPNS_11__tree_nodeISA_PvEElEESH_, symObjAddr: 0xB0478, symBinAddr: 0x1000BBD30, symSize: 0x30 }
  - { offsetInCU: 0xA09C0, offset: 0xB783F, size: 0x8, addend: 0x0, symName: __ZNSt3__14sortB8ue170006INS_11__wrap_iterIPNS_12basic_stringIcNS_11char_traitsIcEENS_9allocatorIcEEEEEENS_6__lessIvvEEEEvT_SC_T0_, symObjAddr: 0xB13A4, symBinAddr: 0x1000BCC5C, symSize: 0x40 }
  - { offsetInCU: 0xA0A1B, offset: 0xB789A, size: 0x8, addend: 0x0, symName: __ZNSt3__111__sort_implB8ue170006INS_17_ClassicAlgPolicyENS_11__wrap_iterIPNS_12basic_stringIcNS_11char_traitsIcEENS_9allocatorIcEEEEEENS_6__lessIvvEEEEvT0_SD_RT1_, symObjAddr: 0xB13E4, symBinAddr: 0x1000BCC9C, symSize: 0xA8 }
  - { offsetInCU: 0xA0A80, offset: 0xB78FF, size: 0x8, addend: 0x0, symName: __ZNSt3__123__debug_randomize_rangeB8ue170006INS_17_ClassicAlgPolicyENS_11__wrap_iterIPNS_12basic_stringIcNS_11char_traitsIcEENS_9allocatorIcEEEEEESA_EEvT0_T1_, symObjAddr: 0xB148C, symBinAddr: 0x1000BCD44, symSize: 0x14 }
  - { offsetInCU: 0xA0AD1, offset: 0xB7950, size: 0x8, addend: 0x0, symName: __ZNSt3__115__sort_dispatchB8ue170006INS_17_ClassicAlgPolicyEPNS_12basic_stringIcNS_11char_traitsIcEENS_9allocatorIcEEEENS_6__lessIvvEEEEvT0_SB_RT1_, symObjAddr: 0xB14A0, symBinAddr: 0x1000BCD58, symSize: 0x64 }
  - { offsetInCU: 0xA0B51, offset: 0xB79D0, size: 0x8, addend: 0x0, symName: __ZNSt3__113__unwrap_iterB8ue170006INS_11__wrap_iterIPNS_12basic_stringIcNS_11char_traitsIcEENS_9allocatorIcEEEEEENS_18__unwrap_iter_implIS9_Lb1EEELi0EEEDTclsrT0_8__unwrapclsr3stdE7declvalIT_EEEESD_, symObjAddr: 0xB1504, symBinAddr: 0x1000BCDBC, symSize: 0x2C }
  - { offsetInCU: 0xA0B96, offset: 0xB7A15, size: 0x8, addend: 0x0, symName: __ZNSt3__135__check_strict_weak_ordering_sortedB8ue170006IPNS_12basic_stringIcNS_11char_traitsIcEENS_9allocatorIcEEEENS_6__lessIvvEEEEvT_SA_RT0_, symObjAddr: 0xB1530, symBinAddr: 0x1000BCDE8, symSize: 0x18 }
  - { offsetInCU: 0xA0BEC, offset: 0xB7A6B, size: 0x8, addend: 0x0, symName: __ZNSt3__17__log2iB8ue170006IlEET_S1_, symObjAddr: 0xB1548, symBinAddr: 0x1000BCE00, symSize: 0x54 }
  - { offsetInCU: 0xA0C24, offset: 0xB7AA3, size: 0x8, addend: 0x0, symName: __ZNSt3__124__sort3_maybe_branchlessB8ue170006INS_17_ClassicAlgPolicyERNS_6__lessIvvEEPNS_12basic_stringIcNS_11char_traitsIcEENS_9allocatorIcEEEEEENS_9enable_ifIXntsr21__use_branchless_sortIT0_T1_EE5valueEvE4typeESE_SE_SE_SD_, symObjAddr: 0xB1A8C, symBinAddr: 0x1000BD344, symSize: 0x3C }
  - { offsetInCU: 0xA0C95, offset: 0xB7B14, size: 0x8, addend: 0x0, symName: __ZNSt3__124__sort4_maybe_branchlessB8ue170006INS_17_ClassicAlgPolicyERNS_6__lessIvvEEPNS_12basic_stringIcNS_11char_traitsIcEENS_9allocatorIcEEEEEENS_9enable_ifIXntsr21__use_branchless_sortIT0_T1_EE5valueEvE4typeESE_SE_SE_SE_SD_, symObjAddr: 0xB1AC8, symBinAddr: 0x1000BD380, symSize: 0x44 }
  - { offsetInCU: 0xA0D14, offset: 0xB7B93, size: 0x8, addend: 0x0, symName: __ZNSt3__124__sort5_maybe_branchlessB8ue170006INS_17_ClassicAlgPolicyERNS_6__lessIvvEEPNS_12basic_stringIcNS_11char_traitsIcEENS_9allocatorIcEEEEEENS_9enable_ifIXntsr21__use_branchless_sortIT0_T1_EE5valueEvE4typeESE_SE_SE_SE_SE_SD_, symObjAddr: 0xB1B0C, symBinAddr: 0x1000BD3C4, symSize: 0x4C }
  - { offsetInCU: 0xA0DA1, offset: 0xB7C20, size: 0x8, addend: 0x0, symName: __ZNSt3__116__insertion_sortB8ue170006INS_17_ClassicAlgPolicyERNS_6__lessIvvEEPNS_12basic_stringIcNS_11char_traitsIcEENS_9allocatorIcEEEEEEvT1_SC_T0_, symObjAddr: 0xB1B58, symBinAddr: 0x1000BD410, symSize: 0x188 }
  - { offsetInCU: 0xA0E55, offset: 0xB7CD4, size: 0x8, addend: 0x0, symName: __ZNSt3__114__partial_sortB8ue170006INS_17_ClassicAlgPolicyERNS_6__lessIvvEEPNS_12basic_stringIcNS_11char_traitsIcEENS_9allocatorIcEEEESB_EET1_SC_SC_T2_RT0_, symObjAddr: 0xB1E38, symBinAddr: 0x1000BD6F0, symSize: 0x94 }
  - { offsetInCU: 0xA0EDD, offset: 0xB7D5C, size: 0x8, addend: 0x0, symName: __ZNSt3__17__sort3B8ue170006INS_17_ClassicAlgPolicyERNS_6__lessIvvEEPNS_12basic_stringIcNS_11char_traitsIcEENS_9allocatorIcEEEEEEjT1_SC_SC_T0_, symObjAddr: 0xB1ECC, symBinAddr: 0x1000BD784, symSize: 0x144 }
  - { offsetInCU: 0xA0F5C, offset: 0xB7DDB, size: 0x8, addend: 0x0, symName: __ZNSt3__19iter_swapB8ue170006IPNS_12basic_stringIcNS_11char_traitsIcEENS_9allocatorIcEEEES7_EEvT_T0_, symObjAddr: 0xB2BF0, symBinAddr: 0x1000BE4A8, symSize: 0x2C }
  - { offsetInCU: 0xA0FA4, offset: 0xB7E23, size: 0x8, addend: 0x0, symName: __ZNSt3__14swapB8ue170006IcNS_11char_traitsIcEENS_9allocatorIcEEEEvRNS_12basic_stringIT_T0_T1_EESA_, symObjAddr: 0xB2C1C, symBinAddr: 0x1000BE4D4, symSize: 0x2C }
  - { offsetInCU: 0xA0FFA, offset: 0xB7E79, size: 0x8, addend: 0x0, symName: __ZNSt3__14swapB8ue170006INS_12basic_stringIcNS_11char_traitsIcEENS_9allocatorIcEEE5__repEEENS_9enable_ifIXaasr21is_move_constructibleIT_EE5valuesr18is_move_assignableIS9_EE5valueEvE4typeERS9_SC_, symObjAddr: 0xB2CAC, symBinAddr: 0x1000BE564, symSize: 0x54 }
  - { offsetInCU: 0xA104B, offset: 0xB7ECA, size: 0x8, addend: 0x0, symName: __ZNSt3__116__swap_allocatorB8ue170006INS_9allocatorIcEEEEvRT_S4_, symObjAddr: 0xB2D00, symBinAddr: 0x1000BE5B8, symSize: 0x2C }
  - { offsetInCU: 0xA108B, offset: 0xB7F0A, size: 0x8, addend: 0x0, symName: __ZNSt3__116__swap_allocatorB8ue170006INS_9allocatorIcEEEEvRT_S4_NS_17integral_constantIbLb0EEE, symObjAddr: 0xB2D2C, symBinAddr: 0x1000BE5E4, symSize: 0x14 }
  - { offsetInCU: 0xA10CD, offset: 0xB7F4C, size: 0x8, addend: 0x0, symName: __ZNSt3__17__sort4B8ue170006INS_17_ClassicAlgPolicyERNS_6__lessIvvEEPNS_12basic_stringIcNS_11char_traitsIcEENS_9allocatorIcEEEEEEvT1_SC_SC_SC_T0_, symObjAddr: 0xB2D40, symBinAddr: 0x1000BE5F8, symSize: 0xB8 }
  - { offsetInCU: 0xA1149, offset: 0xB7FC8, size: 0x8, addend: 0x0, symName: __ZNSt3__17__sort5B8ue170006INS_17_ClassicAlgPolicyERNS_6__lessIvvEEPNS_12basic_stringIcNS_11char_traitsIcEENS_9allocatorIcEEEEEEvT1_SC_SC_SC_SC_T0_, symObjAddr: 0xB2DF8, symBinAddr: 0x1000BE6B0, symSize: 0xE8 }
  - { offsetInCU: 0xA11F8, offset: 0xB8077, size: 0x8, addend: 0x0, symName: __ZNSt3__123__debug_randomize_rangeB8ue170006INS_17_ClassicAlgPolicyEPNS_12basic_stringIcNS_11char_traitsIcEENS_9allocatorIcEEEES8_EEvT0_T1_, symObjAddr: 0xB2F24, symBinAddr: 0x1000BE7DC, symSize: 0x14 }
  - { offsetInCU: 0xA124A, offset: 0xB80C9, size: 0x8, addend: 0x0, symName: __ZNSt3__119__partial_sort_implB8ue170006INS_17_ClassicAlgPolicyERNS_6__lessIvvEEPNS_12basic_stringIcNS_11char_traitsIcEENS_9allocatorIcEEEESB_EET1_SC_SC_T2_OT0_, symObjAddr: 0xB2F38, symBinAddr: 0x1000BE7F0, symSize: 0x110 }
  - { offsetInCU: 0xA12E0, offset: 0xB815F, size: 0x8, addend: 0x0, symName: __ZNSt3__111__make_heapB8ue170006INS_17_ClassicAlgPolicyERNS_6__lessIvvEEPNS_12basic_stringIcNS_11char_traitsIcEENS_9allocatorIcEEEEEEvT1_SC_OT0_, symObjAddr: 0xB3048, symBinAddr: 0x1000BE900, symSize: 0xC0 }
  - { offsetInCU: 0xA1383, offset: 0xB8202, size: 0x8, addend: 0x0, symName: __ZNSt3__111__sort_heapB8ue170006INS_17_ClassicAlgPolicyERNS_6__lessIvvEEPNS_12basic_stringIcNS_11char_traitsIcEENS_9allocatorIcEEEEEEvT1_SC_OT0_, symObjAddr: 0xB335C, symBinAddr: 0x1000BEC14, symSize: 0xA8 }
  - { offsetInCU: 0xA1426, offset: 0xB82A5, size: 0x8, addend: 0x0, symName: __ZNSt3__110__pop_heapB8ue170006INS_17_ClassicAlgPolicyENS_6__lessIvvEEPNS_12basic_stringIcNS_11char_traitsIcEENS_9allocatorIcEEEEEEvT1_SB_RT0_NS_15iterator_traitsISB_E15difference_typeE, symObjAddr: 0xB3404, symBinAddr: 0x1000BECBC, symSize: 0x138 }
  - { offsetInCU: 0xA14CF, offset: 0xB834E, size: 0x8, addend: 0x0, symName: __ZNSt3__19__sift_upB8ue170006INS_17_ClassicAlgPolicyERNS_6__lessIvvEEPNS_12basic_stringIcNS_11char_traitsIcEENS_9allocatorIcEEEEEEvT1_SC_OT0_NS_15iterator_traitsISC_E15difference_typeE, symObjAddr: 0xB3644, symBinAddr: 0x1000BEEFC, symSize: 0x164 }
  - { offsetInCU: 0xA156F, offset: 0xB83EE, size: 0x8, addend: 0x0, symName: __ZNSt3__122__populate_left_bitsetB8ue170006IRNS_6__lessIvvEEPNS_12basic_stringIcNS_11char_traitsIcEENS_9allocatorIcEEEES9_EEvT0_T_RT1_Ry, symObjAddr: 0xB37A8, symBinAddr: 0x1000BF060, symSize: 0xA8 }
  - { offsetInCU: 0xA162B, offset: 0xB84AA, size: 0x8, addend: 0x0, symName: __ZNSt3__123__populate_right_bitsetB8ue170006IRNS_6__lessIvvEEPNS_12basic_stringIcNS_11char_traitsIcEENS_9allocatorIcEEEES9_EEvT0_T_RT1_Ry, symObjAddr: 0xB3850, symBinAddr: 0x1000BF108, symSize: 0xA0 }
  - { offsetInCU: 0xA16E7, offset: 0xB8566, size: 0x8, addend: 0x0, symName: __ZNSt3__117__swap_bitmap_posB8ue170006INS_17_ClassicAlgPolicyEPNS_12basic_stringIcNS_11char_traitsIcEENS_9allocatorIcEEEEEEvT0_S9_RySA_, symObjAddr: 0xB38F0, symBinAddr: 0x1000BF1A8, symSize: 0x104 }
  - { offsetInCU: 0xA1789, offset: 0xB8608, size: 0x8, addend: 0x0, symName: __ZNSt3__133__bitset_partition_partial_blocksB8ue170006INS_17_ClassicAlgPolicyERNS_6__lessIvvEEPNS_12basic_stringIcNS_11char_traitsIcEENS_9allocatorIcEEEESA_EEvRT1_SD_T0_RT2_RySH_, symObjAddr: 0xB39F4, symBinAddr: 0x1000BF2AC, symSize: 0x2F0 }
  - { offsetInCU: 0xA190B, offset: 0xB878A, size: 0x8, addend: 0x0, symName: __ZNSt3__19make_pairB8ue170006IRPNS_12basic_stringIcNS_11char_traitsIcEENS_9allocatorIcEEEERbEENS_4pairINS_18__unwrap_ref_decayIT_E4typeENSB_IT0_E4typeEEEOSC_OSF_, symObjAddr: 0xB3ECC, symBinAddr: 0x1000BF784, symSize: 0x38 }
  - { offsetInCU: 0xA195B, offset: 0xB87DA, size: 0x8, addend: 0x0, symName: __ZNSt3__112__libcpp_ctzB8ue170006Ey, symObjAddr: 0xB3F04, symBinAddr: 0x1000BF7BC, symSize: 0x20 }
  - { offsetInCU: 0xA1987, offset: 0xB8806, size: 0x8, addend: 0x0, symName: __ZNSt3__113__libcpp_blsrB8ue170006Ey, symObjAddr: 0xB3F24, symBinAddr: 0x1000BF7DC, symSize: 0x2C }
  - { offsetInCU: 0xA19B3, offset: 0xB8832, size: 0x8, addend: 0x0, symName: __ZNSt3__112__libcpp_clzB8ue170006Ey, symObjAddr: 0xB3F84, symBinAddr: 0x1000BF83C, symSize: 0x1C }
  - { offsetInCU: 0xA1B08, offset: 0xB8987, size: 0x8, addend: 0x0, symName: __ZNSt3__112__to_addressB8ue170006INS_11__wrap_iterIPNS_12basic_stringIcNS_11char_traitsIcEENS_9allocatorIcEEEEEEvEEu7__decayIDTclsr19__to_address_helperIT_EE6__callclsr3stdE7declvalIRKSA_EEEEESC_, symObjAddr: 0xB403C, symBinAddr: 0x1000BF8F4, symSize: 0x24 }
  - { offsetInCU: 0xA1BE5, offset: 0xB8A64, size: 0x8, addend: 0x0, symName: __ZNSt3__16uniqueB8ue170006INS_11__wrap_iterIPNS_12basic_stringIcNS_11char_traitsIcEENS_9allocatorIcEEEEEENS_10__equal_toEEET_SB_SB_T0_, symObjAddr: 0xB40BC, symBinAddr: 0x1000BF974, symSize: 0x54 }
  - { offsetInCU: 0xA1C3F, offset: 0xB8ABE, size: 0x8, addend: 0x0, symName: __ZNSt3__18__uniqueB8ue170006INS_17_ClassicAlgPolicyENS_11__wrap_iterIPNS_12basic_stringIcNS_11char_traitsIcEENS_9allocatorIcEEEEEESA_RNS_10__equal_toEEENS_4pairIT0_SE_EESE_T1_OT2_, symObjAddr: 0xB4110, symBinAddr: 0x1000BF9C8, symSize: 0x13C }
  - { offsetInCU: 0xA1CC7, offset: 0xB8B46, size: 0x8, addend: 0x0, symName: __ZNSt3__115__adjacent_findB8ue170006INS_11__wrap_iterIPNS_12basic_stringIcNS_11char_traitsIcEENS_9allocatorIcEEEEEES9_RNS_10__equal_toEEET_SC_T0_OT1_, symObjAddr: 0xB424C, symBinAddr: 0x1000BFB04, symSize: 0xCC }
  - { offsetInCU: 0xA1E3D, offset: 0xB8CBC, size: 0x8, addend: 0x0, symName: __ZNSt3__1miB8ue170006IPKNS_12basic_stringIcNS_11char_traitsIcEENS_9allocatorIcEEEEPS6_EEDTmicldtfp_4baseEcldtfp0_4baseEERKNS_11__wrap_iterIT_EERKNSB_IT0_EE, symObjAddr: 0xB4458, symBinAddr: 0x1000BFD10, symSize: 0x48 }
  - { offsetInCU: 0xA1E89, offset: 0xB8D08, size: 0x8, addend: 0x0, symName: __ZNSt3__14moveB8ue170006IPNS_12basic_stringIcNS_11char_traitsIcEENS_9allocatorIcEEEES7_EET0_T_S9_S8_, symObjAddr: 0xB44A0, symBinAddr: 0x1000BFD58, symSize: 0x40 }
  - { offsetInCU: 0xA1EE3, offset: 0xB8D62, size: 0x8, addend: 0x0, symName: __ZNSt3__1miB8ue170006IPKNS_12basic_stringIcNS_11char_traitsIcEENS_9allocatorIcEEEES8_EEDTmicldtfp_4baseEcldtfp0_4baseEERKNS_11__wrap_iterIT_EERKNSA_IT0_EE, symObjAddr: 0xB44E0, symBinAddr: 0x1000BFD98, symSize: 0x48 }
  - { offsetInCU: 0xA1F2F, offset: 0xB8DAE, size: 0x8, addend: 0x0, symName: __ZNSt3__16__moveB8ue170006INS_17_ClassicAlgPolicyEPNS_12basic_stringIcNS_11char_traitsIcEENS_9allocatorIcEEEES8_S8_EENS_4pairIT0_T2_EESA_T1_SB_, symObjAddr: 0xB4558, symBinAddr: 0x1000BFE10, symSize: 0x44 }
  - { offsetInCU: 0xA1F9B, offset: 0xB8E1A, size: 0x8, addend: 0x0, symName: __ZNSt3__123__dispatch_copy_or_moveB8ue170006INS_17_ClassicAlgPolicyENS_11__move_loopIS1_EENS_14__move_trivialEPNS_12basic_stringIcNS_11char_traitsIcEENS_9allocatorIcEEEESB_SB_EENS_4pairIT2_T4_EESD_T3_SE_, symObjAddr: 0xB459C, symBinAddr: 0x1000BFE54, symSize: 0x44 }
  - { offsetInCU: 0xA2019, offset: 0xB8E98, size: 0x8, addend: 0x0, symName: __ZNSt3__121__unwrap_and_dispatchB8ue170006INS_10__overloadINS_11__move_loopINS_17_ClassicAlgPolicyEEENS_14__move_trivialEEEPNS_12basic_stringIcNS_11char_traitsIcEENS_9allocatorIcEEEESD_SD_Li0EEENS_4pairIT0_T2_EESF_T1_SG_, symObjAddr: 0xB45E0, symBinAddr: 0x1000BFE98, symSize: 0xB4 }
  - { offsetInCU: 0xA2C55, offset: 0xB9AD4, size: 0x8, addend: 0x0, symName: __ZNSt3__122__make_exception_guardB8ue170006INS_6vectorIN5Catch8TestCaseENS_9allocatorIS3_EEE16__destroy_vectorEEENS_28__exception_guard_exceptionsIT_EES9_, symObjAddr: 0xB5794, symBinAddr: 0x1000C104C, symSize: 0x40 }
  - { offsetInCU: 0xA2C8A, offset: 0xB9B09, size: 0x8, addend: 0x0, symName: __ZNSt3__119__allocate_at_leastB8ue170006INS_9allocatorIN5Catch8TestCaseEEEEENS_19__allocation_resultINS_16allocator_traitsIT_E7pointerEEERS7_m, symObjAddr: 0xB5A30, symBinAddr: 0x1000C12E8, symSize: 0x40 }
  - { offsetInCU: 0xA2CCC, offset: 0xB9B4B, size: 0x8, addend: 0x0, symName: __ZNSt3__130__uninitialized_allocator_copyB8ue170006INS_9allocatorIN5Catch8TestCaseEEEPS3_S5_S5_EET2_RT_T0_T1_S6_, symObjAddr: 0xB5C6C, symBinAddr: 0x1000C1524, symSize: 0x80 }
  - { offsetInCU: 0xA2D6A, offset: 0xB9BE9, size: 0x8, addend: 0x0, symName: __ZNSt3__114__unwrap_rangeB8ue170006IPN5Catch8TestCaseES3_EENS_4pairIT0_S5_EET_S7_, symObjAddr: 0xB5D64, symBinAddr: 0x1000C161C, symSize: 0x60 }
  - { offsetInCU: 0xA2DB5, offset: 0xB9C34, size: 0x8, addend: 0x0, symName: __ZNSt3__135__uninitialized_allocator_copy_implB8ue170006INS_9allocatorIN5Catch8TestCaseEEEPS3_S5_S5_EET2_RT_T0_T1_S6_, symObjAddr: 0xB5DC4, symBinAddr: 0x1000C167C, symSize: 0xF4 }
  - { offsetInCU: 0xA2E54, offset: 0xB9CD3, size: 0x8, addend: 0x0, symName: __ZNSt3__113__unwrap_iterB8ue170006IPN5Catch8TestCaseENS_18__unwrap_iter_implIS3_Lb1EEELi0EEEDTclsrT0_8__unwrapclsr3stdE7declvalIT_EEEES7_, symObjAddr: 0xB5EB8, symBinAddr: 0x1000C1770, symSize: 0x24 }
  - { offsetInCU: 0xA2E99, offset: 0xB9D18, size: 0x8, addend: 0x0, symName: __ZNSt3__113__rewrap_iterB8ue170006IPN5Catch8TestCaseES3_NS_18__unwrap_iter_implIS3_Lb1EEEEET_S6_T0_, symObjAddr: 0xB5EDC, symBinAddr: 0x1000C1794, symSize: 0x3C }
  - { offsetInCU: 0xA2EED, offset: 0xB9D6C, size: 0x8, addend: 0x0, symName: __ZNSt3__19make_pairB8ue170006IPN5Catch8TestCaseES3_EENS_4pairINS_18__unwrap_ref_decayIT_E4typeENS5_IT0_E4typeEEEOS6_OS9_, symObjAddr: 0xB5F18, symBinAddr: 0x1000C17D0, symSize: 0x38 }
  - { offsetInCU: 0xA3012, offset: 0xB9E91, size: 0x8, addend: 0x0, symName: __ZNSt3__122__make_exception_guardB8ue170006INS_29_AllocatorDestroyRangeReverseINS_9allocatorIN5Catch8TestCaseEEEPS4_EEEENS_28__exception_guard_exceptionsIT_EES9_, symObjAddr: 0xB5FC0, symBinAddr: 0x1000C1878, symSize: 0x4C }
  - { offsetInCU: 0xA3047, offset: 0xB9EC6, size: 0x8, addend: 0x0, symName: __ZNSt3__119__allocator_destroyB8ue170006INS_9allocatorIN5Catch8TestCaseEEENS_16reverse_iteratorIPS3_EES7_EEvRT_T0_T1_, symObjAddr: 0xB6250, symBinAddr: 0x1000C1B08, symSize: 0x70 }
  - { offsetInCU: 0xA30AC, offset: 0xB9F2B, size: 0x8, addend: 0x0, symName: __ZNSt3__1neB8ue170006IPN5Catch8TestCaseES3_EEbRKNS_16reverse_iteratorIT_EERKNS4_IT0_EE, symObjAddr: 0xB62F4, symBinAddr: 0x1000C1BAC, symSize: 0x48 }
  - { offsetInCU: 0xA30F8, offset: 0xB9F77, size: 0x8, addend: 0x0, symName: __ZNSt3__112__to_addressB8ue170006INS_16reverse_iteratorIPN5Catch8TestCaseEEEvEEu7__decayIDTclsr19__to_address_helperIT_EE6__callclsr3stdE7declvalIRKS6_EEEEES8_, symObjAddr: 0xB633C, symBinAddr: 0x1000C1BF4, symSize: 0x24 }
  - { offsetInCU: 0xA31AC, offset: 0xBA02B, size: 0x8, addend: 0x0, symName: __ZNSt3__14sortB8ue170006INS_11__wrap_iterIPN5Catch8TestCaseEEENS_6__lessIvvEEEEvT_S8_T0_, symObjAddr: 0xB6528, symBinAddr: 0x1000C1DE0, symSize: 0x40 }
  - { offsetInCU: 0xA3207, offset: 0xBA086, size: 0x8, addend: 0x0, symName: __ZNSt3__111__sort_implB8ue170006INS_17_ClassicAlgPolicyENS_11__wrap_iterIPN5Catch8TestCaseEEENS_6__lessIvvEEEEvT0_S9_RT1_, symObjAddr: 0xB6568, symBinAddr: 0x1000C1E20, symSize: 0xA8 }
  - { offsetInCU: 0xA326C, offset: 0xBA0EB, size: 0x8, addend: 0x0, symName: __ZNSt3__123__debug_randomize_rangeB8ue170006INS_17_ClassicAlgPolicyENS_11__wrap_iterIPN5Catch8TestCaseEEES6_EEvT0_T1_, symObjAddr: 0xB6610, symBinAddr: 0x1000C1EC8, symSize: 0x14 }
  - { offsetInCU: 0xA32BD, offset: 0xBA13C, size: 0x8, addend: 0x0, symName: __ZNSt3__115__sort_dispatchB8ue170006INS_17_ClassicAlgPolicyEPN5Catch8TestCaseENS_6__lessIvvEEEEvT0_S7_RT1_, symObjAddr: 0xB6624, symBinAddr: 0x1000C1EDC, symSize: 0x64 }
  - { offsetInCU: 0xA333D, offset: 0xBA1BC, size: 0x8, addend: 0x0, symName: __ZNSt3__113__unwrap_iterB8ue170006INS_11__wrap_iterIPN5Catch8TestCaseEEENS_18__unwrap_iter_implIS5_Lb1EEELi0EEEDTclsrT0_8__unwrapclsr3stdE7declvalIT_EEEES9_, symObjAddr: 0xB6688, symBinAddr: 0x1000C1F40, symSize: 0x2C }
  - { offsetInCU: 0xA3382, offset: 0xBA201, size: 0x8, addend: 0x0, symName: __ZNSt3__135__check_strict_weak_ordering_sortedB8ue170006IPN5Catch8TestCaseENS_6__lessIvvEEEEvT_S6_RT0_, symObjAddr: 0xB66B4, symBinAddr: 0x1000C1F6C, symSize: 0x18 }
  - { offsetInCU: 0xA33D9, offset: 0xBA258, size: 0x8, addend: 0x0, symName: __ZNSt3__124__sort3_maybe_branchlessB8ue170006INS_17_ClassicAlgPolicyERNS_6__lessIvvEEPN5Catch8TestCaseEEENS_9enable_ifIXntsr21__use_branchless_sortIT0_T1_EE5valueEvE4typeESA_SA_SA_S9_, symObjAddr: 0xB6BBC, symBinAddr: 0x1000C2474, symSize: 0x3C }
  - { offsetInCU: 0xA344A, offset: 0xBA2C9, size: 0x8, addend: 0x0, symName: __ZNSt3__124__sort4_maybe_branchlessB8ue170006INS_17_ClassicAlgPolicyERNS_6__lessIvvEEPN5Catch8TestCaseEEENS_9enable_ifIXntsr21__use_branchless_sortIT0_T1_EE5valueEvE4typeESA_SA_SA_SA_S9_, symObjAddr: 0xB6BF8, symBinAddr: 0x1000C24B0, symSize: 0x44 }
  - { offsetInCU: 0xA34C9, offset: 0xBA348, size: 0x8, addend: 0x0, symName: __ZNSt3__124__sort5_maybe_branchlessB8ue170006INS_17_ClassicAlgPolicyERNS_6__lessIvvEEPN5Catch8TestCaseEEENS_9enable_ifIXntsr21__use_branchless_sortIT0_T1_EE5valueEvE4typeESA_SA_SA_SA_SA_S9_, symObjAddr: 0xB6C3C, symBinAddr: 0x1000C24F4, symSize: 0x4C }
  - { offsetInCU: 0xA3556, offset: 0xBA3D5, size: 0x8, addend: 0x0, symName: __ZNSt3__116__insertion_sortB8ue170006INS_17_ClassicAlgPolicyERNS_6__lessIvvEEPN5Catch8TestCaseEEEvT1_S8_T0_, symObjAddr: 0xB6C88, symBinAddr: 0x1000C2540, symSize: 0x1C0 }
  - { offsetInCU: 0xA360A, offset: 0xBA489, size: 0x8, addend: 0x0, symName: __ZNSt3__114__partial_sortB8ue170006INS_17_ClassicAlgPolicyERNS_6__lessIvvEEPN5Catch8TestCaseES7_EET1_S8_S8_T2_RT0_, symObjAddr: 0xB6FD4, symBinAddr: 0x1000C288C, symSize: 0x94 }
  - { offsetInCU: 0xA3692, offset: 0xBA511, size: 0x8, addend: 0x0, symName: __ZNSt3__17__sort3B8ue170006INS_17_ClassicAlgPolicyERNS_6__lessIvvEEPN5Catch8TestCaseEEEjT1_S8_S8_T0_, symObjAddr: 0xB7068, symBinAddr: 0x1000C2920, symSize: 0x144 }
  - { offsetInCU: 0xA3711, offset: 0xBA590, size: 0x8, addend: 0x0, symName: __ZNSt3__19iter_swapB8ue170006IPN5Catch8TestCaseES3_EEvT_T0_, symObjAddr: 0xB7E40, symBinAddr: 0x1000C36F8, symSize: 0x2C }
  - { offsetInCU: 0xA375A, offset: 0xBA5D9, size: 0x8, addend: 0x0, symName: __ZNSt3__14swapB8ue170006IN5Catch8TestCaseEEENS_9enable_ifIXaasr21is_move_constructibleIT_EE5valuesr18is_move_assignableIS4_EE5valueEvE4typeERS4_S7_, symObjAddr: 0xB7E6C, symBinAddr: 0x1000C3724, symSize: 0x50 }
  - { offsetInCU: 0xA37AB, offset: 0xBA62A, size: 0x8, addend: 0x0, symName: __ZNSt3__14swapB8ue170006IPN5Catch12ITestInvokerEEENS_9enable_ifIXaasr21is_move_constructibleIT_EE5valuesr18is_move_assignableIS5_EE5valueEvE4typeERS5_S8_, symObjAddr: 0xB8120, symBinAddr: 0x1000C39D8, symSize: 0x3C }
  - { offsetInCU: 0xA37FC, offset: 0xBA67B, size: 0x8, addend: 0x0, symName: __ZNSt3__17__sort4B8ue170006INS_17_ClassicAlgPolicyERNS_6__lessIvvEEPN5Catch8TestCaseEEEvT1_S8_S8_S8_T0_, symObjAddr: 0xB815C, symBinAddr: 0x1000C3A14, symSize: 0xB8 }
  - { offsetInCU: 0xA3878, offset: 0xBA6F7, size: 0x8, addend: 0x0, symName: __ZNSt3__17__sort5B8ue170006INS_17_ClassicAlgPolicyERNS_6__lessIvvEEPN5Catch8TestCaseEEEvT1_S8_S8_S8_S8_T0_, symObjAddr: 0xB8214, symBinAddr: 0x1000C3ACC, symSize: 0xE8 }
  - { offsetInCU: 0xA3927, offset: 0xBA7A6, size: 0x8, addend: 0x0, symName: __ZNSt3__123__debug_randomize_rangeB8ue170006INS_17_ClassicAlgPolicyEPN5Catch8TestCaseES4_EEvT0_T1_, symObjAddr: 0xB8340, symBinAddr: 0x1000C3BF8, symSize: 0x14 }
  - { offsetInCU: 0xA3979, offset: 0xBA7F8, size: 0x8, addend: 0x0, symName: __ZNSt3__119__partial_sort_implB8ue170006INS_17_ClassicAlgPolicyERNS_6__lessIvvEEPN5Catch8TestCaseES7_EET1_S8_S8_T2_OT0_, symObjAddr: 0xB8354, symBinAddr: 0x1000C3C0C, symSize: 0x110 }
  - { offsetInCU: 0xA3A0F, offset: 0xBA88E, size: 0x8, addend: 0x0, symName: __ZNSt3__111__make_heapB8ue170006INS_17_ClassicAlgPolicyERNS_6__lessIvvEEPN5Catch8TestCaseEEEvT1_S8_OT0_, symObjAddr: 0xB8464, symBinAddr: 0x1000C3D1C, symSize: 0xC0 }
  - { offsetInCU: 0xA3AB2, offset: 0xBA931, size: 0x8, addend: 0x0, symName: __ZNSt3__111__sort_heapB8ue170006INS_17_ClassicAlgPolicyERNS_6__lessIvvEEPN5Catch8TestCaseEEEvT1_S8_OT0_, symObjAddr: 0xB87B8, symBinAddr: 0x1000C4070, symSize: 0xA8 }
  - { offsetInCU: 0xA3B55, offset: 0xBA9D4, size: 0x8, addend: 0x0, symName: __ZNSt3__110__pop_heapB8ue170006INS_17_ClassicAlgPolicyENS_6__lessIvvEEPN5Catch8TestCaseEEEvT1_S7_RT0_NS_15iterator_traitsIS7_E15difference_typeE, symObjAddr: 0xB8860, symBinAddr: 0x1000C4118, symSize: 0x158 }
  - { offsetInCU: 0xA3BFE, offset: 0xBAA7D, size: 0x8, addend: 0x0, symName: __ZNSt3__19__sift_upB8ue170006INS_17_ClassicAlgPolicyERNS_6__lessIvvEEPN5Catch8TestCaseEEEvT1_S8_OT0_NS_15iterator_traitsIS8_E15difference_typeE, symObjAddr: 0xB8AC0, symBinAddr: 0x1000C4378, symSize: 0x18C }
  - { offsetInCU: 0xA3C9E, offset: 0xBAB1D, size: 0x8, addend: 0x0, symName: __ZNSt3__122__populate_left_bitsetB8ue170006IRNS_6__lessIvvEEPN5Catch8TestCaseES5_EEvT0_T_RT1_Ry, symObjAddr: 0xB8C4C, symBinAddr: 0x1000C4504, symSize: 0xA8 }
  - { offsetInCU: 0xA3D5A, offset: 0xBABD9, size: 0x8, addend: 0x0, symName: __ZNSt3__123__populate_right_bitsetB8ue170006IRNS_6__lessIvvEEPN5Catch8TestCaseES5_EEvT0_T_RT1_Ry, symObjAddr: 0xB8CF4, symBinAddr: 0x1000C45AC, symSize: 0xA0 }
  - { offsetInCU: 0xA3E16, offset: 0xBAC95, size: 0x8, addend: 0x0, symName: __ZNSt3__117__swap_bitmap_posB8ue170006INS_17_ClassicAlgPolicyEPN5Catch8TestCaseEEEvT0_S5_RyS6_, symObjAddr: 0xB8D94, symBinAddr: 0x1000C464C, symSize: 0x104 }
  - { offsetInCU: 0xA3EB8, offset: 0xBAD37, size: 0x8, addend: 0x0, symName: __ZNSt3__133__bitset_partition_partial_blocksB8ue170006INS_17_ClassicAlgPolicyERNS_6__lessIvvEEPN5Catch8TestCaseES6_EEvRT1_S9_T0_RT2_RySD_, symObjAddr: 0xB8E98, symBinAddr: 0x1000C4750, symSize: 0x2F0 }
  - { offsetInCU: 0xA403A, offset: 0xBAEB9, size: 0x8, addend: 0x0, symName: __ZNSt3__19make_pairB8ue170006IRPN5Catch8TestCaseERbEENS_4pairINS_18__unwrap_ref_decayIT_E4typeENS7_IT0_E4typeEEEOS8_OSB_, symObjAddr: 0xB9370, symBinAddr: 0x1000C4C28, symSize: 0x38 }
  - { offsetInCU: 0xA41B3, offset: 0xBB032, size: 0x8, addend: 0x0, symName: __ZNSt3__112__to_addressB8ue170006INS_11__wrap_iterIPN5Catch8TestCaseEEEvEEu7__decayIDTclsr19__to_address_helperIT_EE6__callclsr3stdE7declvalIRKS6_EEEEES8_, symObjAddr: 0xB9478, symBinAddr: 0x1000C4D30, symSize: 0x24 }
  - { offsetInCU: 0xA4290, offset: 0xBB10F, size: 0x8, addend: 0x0, symName: __ZNSt3__1miB8ue170006IPN5Catch8TestCaseES3_EEDTmicldtfp_4baseEcldtfp0_4baseEERKNS_11__wrap_iterIT_EERKNS5_IT0_EE, symObjAddr: 0xB9654, symBinAddr: 0x1000C4F0C, symSize: 0x48 }
  - { offsetInCU: 0xA42DC, offset: 0xBB15B, size: 0x8, addend: 0x0, symName: __ZNSt3__1ltB8ue170006IPN5Catch8TestCaseEEEbRKNS_11__wrap_iterIT_EES8_, symObjAddr: 0xB96F8, symBinAddr: 0x1000C4FB0, symSize: 0x48 }
  - { offsetInCU: 0xA431F, offset: 0xBB19E, size: 0x8, addend: 0x0, symName: __ZNSt3__19iter_swapB8ue170006INS_11__wrap_iterIPN5Catch8TestCaseEEES5_EEvT_T0_, symObjAddr: 0xB9A44, symBinAddr: 0x1000C52FC, symSize: 0x50 }
  - { offsetInCU: 0xA43B8, offset: 0xBB237, size: 0x8, addend: 0x0, symName: __ZNSt3__142__uninitialized_allocator_move_if_noexceptB8ue170006INS_9allocatorIN5Catch8TestCaseEEENS_16reverse_iteratorIPS3_EES7_S7_EET2_RT_T0_T1_S8_, symObjAddr: 0xBB254, symBinAddr: 0x1000C6B0C, symSize: 0x11C }
  - { offsetInCU: 0xA4459, offset: 0xBB2D8, size: 0x8, addend: 0x0, symName: __ZNSt3__14swapB8ue170006IPN5Catch8TestCaseEEENS_9enable_ifIXaasr21is_move_constructibleIT_EE5valuesr18is_move_assignableIS5_EE5valueEvE4typeERS5_S8_, symObjAddr: 0xBB370, symBinAddr: 0x1000C6C28, symSize: 0x3C }
  - { offsetInCU: 0xA44AA, offset: 0xBB329, size: 0x8, addend: 0x0, symName: __ZNSt3__122__make_exception_guardB8ue170006INS_29_AllocatorDestroyRangeReverseINS_9allocatorIN5Catch8TestCaseEEENS_16reverse_iteratorIPS4_EEEEEENS_28__exception_guard_exceptionsIT_EESB_, symObjAddr: 0xBB3AC, symBinAddr: 0x1000C6C64, symSize: 0x4C }
  - { offsetInCU: 0xA44DF, offset: 0xBB35E, size: 0x8, addend: 0x0, symName: __ZNSt3__119__allocator_destroyB8ue170006INS_9allocatorIN5Catch8TestCaseEEENS_16reverse_iteratorINS5_IPS3_EEEES8_EEvRT_T0_T1_, symObjAddr: 0xBB688, symBinAddr: 0x1000C6F40, symSize: 0x70 }
  - { offsetInCU: 0xA4546, offset: 0xBB3C5, size: 0x8, addend: 0x0, symName: __ZNSt3__1neB8ue170006INS_16reverse_iteratorIPN5Catch8TestCaseEEES5_EEbRKNS1_IT_EERKNS1_IT0_EE, symObjAddr: 0xBB734, symBinAddr: 0x1000C6FEC, symSize: 0x60 }
  - { offsetInCU: 0xA4592, offset: 0xBB411, size: 0x8, addend: 0x0, symName: __ZNSt3__112__to_addressB8ue170006INS_16reverse_iteratorINS1_IPN5Catch8TestCaseEEEEEvEEu7__decayIDTclsr19__to_address_helperIT_EE6__callclsr3stdE7declvalIRKS7_EEEEES9_, symObjAddr: 0xBB794, symBinAddr: 0x1000C704C, symSize: 0x24 }
  - { offsetInCU: 0xA45F2, offset: 0xBB471, size: 0x8, addend: 0x0, symName: __ZNSt3__111__str_rfindB8ue170006IcmNS_11char_traitsIcEELm18446744073709551615EEET0_PKT_S3_S6_S3_S3_, symObjAddr: 0xBBFF4, symBinAddr: 0x1000C78AC, symSize: 0x128 }
  - { offsetInCU: 0xA469A, offset: 0xBB519, size: 0x8, addend: 0x0, symName: __ZNSt3__118__find_end_classicB8ue170006IPKcS2_FbccEEET_S4_S4_T0_S5_RT1_, symObjAddr: 0xBC11C, symBinAddr: 0x1000C79D4, symSize: 0x64 }
  - { offsetInCU: 0xA4727, offset: 0xBB5A6, size: 0x8, addend: 0x0, symName: __ZNSt3__115__find_end_implB8ue170006INS_17_ClassicAlgPolicyEPKcS3_S3_S3_FbccENS_10__identityES5_EENS_4pairIT0_S7_EES7_T1_T2_T3_RT4_RT5_RT6_NS_20forward_iterator_tagESI_, symObjAddr: 0xBC180, symBinAddr: 0x1000C7A38, symSize: 0x1F4 }
  - { offsetInCU: 0xA484A, offset: 0xBB6C9, size: 0x8, addend: 0x0, symName: __ZNSt3__18__invokeB8ue170006IRFbccEJRKcS4_EEEDTclclsr3stdE7declvalIT_EEspclsr3stdE7declvalIT0_EEEEOS5_DpOS6_, symObjAddr: 0xBC3C8, symBinAddr: 0x1000C7C80, symSize: 0x40 }
  - { offsetInCU: 0xA48B2, offset: 0xBB731, size: 0x8, addend: 0x0, symName: __ZNSt3__115allocate_sharedB8ue170006IN5Catch16TestCaseTracking14SectionTrackerENS_9allocatorIS3_EEJNS2_15NameAndLocationERNS2_14TrackerContextEDnEvEENS_10shared_ptrIT_EERKT0_DpOT1_, symObjAddr: 0xBC43C, symBinAddr: 0x1000C7CF4, symSize: 0xA8 }
  - { offsetInCU: 0xA4C8D, offset: 0xBBB0C, size: 0x8, addend: 0x0, symName: __ZNSt3__14swapB8ue170006IPN5Catch16TestCaseTracking8ITrackerEEENS_9enable_ifIXaasr21is_move_constructibleIT_EE5valuesr18is_move_assignableIS6_EE5valueEvE4typeERS6_S9_, symObjAddr: 0xBCE2C, symBinAddr: 0x1000C86E4, symSize: 0x3C }
  - { offsetInCU: 0xA4CDE, offset: 0xBBB5D, size: 0x8, addend: 0x0, symName: __ZNSt3__119__allocate_at_leastB8ue170006INS_9allocatorINS_10shared_ptrIN5Catch16TestCaseTracking8ITrackerEEEEEEENS_19__allocation_resultINS_16allocator_traitsIT_E7pointerEEERSA_m, symObjAddr: 0xBD708, symBinAddr: 0x1000C8FC0, symSize: 0x40 }
  - { offsetInCU: 0xA4D20, offset: 0xBBB9F, size: 0x8, addend: 0x0, symName: __ZNSt3__142__uninitialized_allocator_move_if_noexceptB8ue170006INS_9allocatorINS_10shared_ptrIN5Catch16TestCaseTracking8ITrackerEEEEENS_16reverse_iteratorIPS6_EESA_SA_EET2_RT_T0_T1_SB_, symObjAddr: 0xBD8BC, symBinAddr: 0x1000C9174, symSize: 0x12C }
  - { offsetInCU: 0xA4DC1, offset: 0xBBC40, size: 0x8, addend: 0x0, symName: __ZNSt3__14swapB8ue170006IPNS_10shared_ptrIN5Catch16TestCaseTracking8ITrackerEEEEENS_9enable_ifIXaasr21is_move_constructibleIT_EE5valuesr18is_move_assignableIS8_EE5valueEvE4typeERS8_SB_, symObjAddr: 0xBDA34, symBinAddr: 0x1000C92EC, symSize: 0x3C }
  - { offsetInCU: 0xA4E12, offset: 0xBBC91, size: 0x8, addend: 0x0, symName: __ZNSt3__122__make_exception_guardB8ue170006INS_29_AllocatorDestroyRangeReverseINS_9allocatorINS_10shared_ptrIN5Catch16TestCaseTracking8ITrackerEEEEENS_16reverse_iteratorIPS7_EEEEEENS_28__exception_guard_exceptionsIT_EESE_, symObjAddr: 0xBDB1C, symBinAddr: 0x1000C93D4, symSize: 0x4C }
  - { offsetInCU: 0xA4E48, offset: 0xBBCC7, size: 0x8, addend: 0x0, symName: __ZNSt3__1neB8ue170006IPNS_10shared_ptrIN5Catch16TestCaseTracking8ITrackerEEES6_EEbRKNS_16reverse_iteratorIT_EERKNS7_IT0_EE, symObjAddr: 0xBDBAC, symBinAddr: 0x1000C9464, symSize: 0x48 }
  - { offsetInCU: 0xA4E94, offset: 0xBBD13, size: 0x8, addend: 0x0, symName: __ZNSt3__112__to_addressB8ue170006INS_16reverse_iteratorIPNS_10shared_ptrIN5Catch16TestCaseTracking8ITrackerEEEEEvEEu7__decayIDTclsr19__to_address_helperIT_EE6__callclsr3stdE7declvalIRKS9_EEEEESB_, symObjAddr: 0xBDC28, symBinAddr: 0x1000C94E0, symSize: 0x24 }
  - { offsetInCU: 0xA4EF4, offset: 0xBBD73, size: 0x8, addend: 0x0, symName: __ZNSt3__119__allocator_destroyB8ue170006INS_9allocatorINS_10shared_ptrIN5Catch16TestCaseTracking8ITrackerEEEEENS_16reverse_iteratorINS8_IPS6_EEEESB_EEvRT_T0_T1_, symObjAddr: 0xBDF7C, symBinAddr: 0x1000C9834, symSize: 0x70 }
  - { offsetInCU: 0xA4F5B, offset: 0xBBDDA, size: 0x8, addend: 0x0, symName: __ZNSt3__1neB8ue170006INS_16reverse_iteratorIPNS_10shared_ptrIN5Catch16TestCaseTracking8ITrackerEEEEES8_EEbRKNS1_IT_EERKNS1_IT0_EE, symObjAddr: 0xBE028, symBinAddr: 0x1000C98E0, symSize: 0x60 }
  - { offsetInCU: 0xA4FA7, offset: 0xBBE26, size: 0x8, addend: 0x0, symName: __ZNSt3__112__to_addressB8ue170006INS_16reverse_iteratorINS1_IPNS_10shared_ptrIN5Catch16TestCaseTracking8ITrackerEEEEEEEvEEu7__decayIDTclsr19__to_address_helperIT_EE6__callclsr3stdE7declvalIRKSA_EEEEESC_, symObjAddr: 0xBE088, symBinAddr: 0x1000C9940, symSize: 0x24 }
  - { offsetInCU: 0xA5008, offset: 0xBBE87, size: 0x8, addend: 0x0, symName: __ZNSt3__14swapB8ue170006IPN5Catch16TestCaseTracking14SectionTrackerEEENS_9enable_ifIXaasr21is_move_constructibleIT_EE5valuesr18is_move_assignableIS6_EE5valueEvE4typeERS6_S9_, symObjAddr: 0xBE6F8, symBinAddr: 0x1000C9FB0, symSize: 0x3C }
  - { offsetInCU: 0xA5058, offset: 0xBBED7, size: 0x8, addend: 0x0, symName: __ZNSt3__115allocate_sharedB8ue170006IN5Catch16TestCaseTracking14SectionTrackerENS_9allocatorIS3_EEJRKNS2_15NameAndLocationERNS2_14TrackerContextEPNS2_8ITrackerEEvEENS_10shared_ptrIT_EERKT0_DpOT1_, symObjAddr: 0xBE734, symBinAddr: 0x1000C9FEC, symSize: 0xA8 }
  - { offsetInCU: 0xA5100, offset: 0xBBF7F, size: 0x8, addend: 0x0, symName: __ZNSt3__18distanceB8ue170006INS_11__wrap_iterIPKNS_12basic_stringIcNS_11char_traitsIcEENS_9allocatorIcEEEEEEEENS_15iterator_traitsIT_E15difference_typeESC_SC_, symObjAddr: 0xBEC7C, symBinAddr: 0x1000CA534, symSize: 0x3C }
  - { offsetInCU: 0xA5143, offset: 0xBBFC2, size: 0x8, addend: 0x0, symName: __ZNSt3__14nextB8ue170006INS_11__wrap_iterIPKNS_12basic_stringIcNS_11char_traitsIcEENS_9allocatorIcEEEEEEEENS_9enable_ifIXsr29__has_input_iterator_categoryIT_EE5valueESC_E4typeESC_NS_15iterator_traitsISC_E15difference_typeE, symObjAddr: 0xBECB8, symBinAddr: 0x1000CA570, symSize: 0x3C }
  - { offsetInCU: 0xA5186, offset: 0xBC005, size: 0x8, addend: 0x0, symName: __ZNSt3__14copyB8ue170006INS_11__wrap_iterIPKNS_12basic_stringIcNS_11char_traitsIcEENS_9allocatorIcEEEEEEPS7_EET0_T_SD_SC_, symObjAddr: 0xBEF04, symBinAddr: 0x1000CA7BC, symSize: 0x50 }
  - { offsetInCU: 0xA51E0, offset: 0xBC05F, size: 0x8, addend: 0x0, symName: __ZNSt3__19__advanceB8ue170006INS_11__wrap_iterIPKNS_12basic_stringIcNS_11char_traitsIcEENS_9allocatorIcEEEEEEEEvRT_NS_15iterator_traitsISB_E15difference_typeENS_26random_access_iterator_tagE, symObjAddr: 0xBF170, symBinAddr: 0x1000CAA28, symSize: 0x2C }
  - { offsetInCU: 0xA5229, offset: 0xBC0A8, size: 0x8, addend: 0x0, symName: __ZNSt3__130__uninitialized_allocator_copyB8ue170006INS_9allocatorINS_12basic_stringIcNS_11char_traitsIcEENS1_IcEEEEEENS_11__wrap_iterIPKS6_EESB_PS6_EET2_RT_T0_T1_SD_, symObjAddr: 0xBF1CC, symBinAddr: 0x1000CAA84, symSize: 0x90 }
  - { offsetInCU: 0xA52C7, offset: 0xBC146, size: 0x8, addend: 0x0, symName: __ZNSt3__114__unwrap_rangeB8ue170006INS_11__wrap_iterIPKNS_12basic_stringIcNS_11char_traitsIcEENS_9allocatorIcEEEEEES9_EENS_4pairIT0_SC_EET_SE_, symObjAddr: 0xBF25C, symBinAddr: 0x1000CAB14, symSize: 0x70 }
  - { offsetInCU: 0xA5312, offset: 0xBC191, size: 0x8, addend: 0x0, symName: __ZNSt3__135__uninitialized_allocator_copy_implB8ue170006INS_9allocatorINS_12basic_stringIcNS_11char_traitsIcEENS1_IcEEEEEEPKS6_S9_PS6_EET2_RT_T0_T1_SB_, symObjAddr: 0xBF2CC, symBinAddr: 0x1000CAB84, symSize: 0xF4 }
  - { offsetInCU: 0xA53B0, offset: 0xBC22F, size: 0x8, addend: 0x0, symName: __ZNSt3__19make_pairB8ue170006IPKNS_12basic_stringIcNS_11char_traitsIcEENS_9allocatorIcEEEES8_EENS_4pairINS_18__unwrap_ref_decayIT_E4typeENSA_IT0_E4typeEEEOSB_OSE_, symObjAddr: 0xBF3C0, symBinAddr: 0x1000CAC78, symSize: 0x38 }
  - { offsetInCU: 0xA5400, offset: 0xBC27F, size: 0x8, addend: 0x0, symName: __ZNSt3__113__unwrap_iterB8ue170006INS_11__wrap_iterIPKNS_12basic_stringIcNS_11char_traitsIcEENS_9allocatorIcEEEEEENS_18__unwrap_iter_implISA_Lb1EEELi0EEEDTclsrT0_8__unwrapclsr3stdE7declvalIT_EEEESE_, symObjAddr: 0xBF3F8, symBinAddr: 0x1000CACB0, symSize: 0x2C }
  - { offsetInCU: 0xA556E, offset: 0xBC3ED, size: 0x8, addend: 0x0, symName: __ZNSt3__112__to_addressB8ue170006INS_11__wrap_iterIPKNS_12basic_stringIcNS_11char_traitsIcEENS_9allocatorIcEEEEEEvEEu7__decayIDTclsr19__to_address_helperIT_EE6__callclsr3stdE7declvalIRKSB_EEEEESD_, symObjAddr: 0xBF4BC, symBinAddr: 0x1000CAD74, symSize: 0x24 }
  - { offsetInCU: 0xA564B, offset: 0xBC4CA, size: 0x8, addend: 0x0, symName: __ZNSt3__113move_backwardB8ue170006IPNS_12basic_stringIcNS_11char_traitsIcEENS_9allocatorIcEEEES7_EET0_T_S9_S8_, symObjAddr: 0xBF53C, symBinAddr: 0x1000CADF4, symSize: 0x40 }
  - { offsetInCU: 0xA56A5, offset: 0xBC524, size: 0x8, addend: 0x0, symName: __ZNSt3__115__move_backwardB8ue170006INS_17_ClassicAlgPolicyEPNS_12basic_stringIcNS_11char_traitsIcEENS_9allocatorIcEEEES8_S8_EENS_4pairIT0_T2_EESA_T1_SB_, symObjAddr: 0xBF57C, symBinAddr: 0x1000CAE34, symSize: 0x44 }
  - { offsetInCU: 0xA5711, offset: 0xBC590, size: 0x8, addend: 0x0, symName: __ZNSt3__123__dispatch_copy_or_moveB8ue170006INS_17_ClassicAlgPolicyENS_20__move_backward_loopIS1_EENS_23__move_backward_trivialEPNS_12basic_stringIcNS_11char_traitsIcEENS_9allocatorIcEEEESB_SB_EENS_4pairIT2_T4_EESD_T3_SE_, symObjAddr: 0xBF5C0, symBinAddr: 0x1000CAE78, symSize: 0x44 }
  - { offsetInCU: 0xA578F, offset: 0xBC60E, size: 0x8, addend: 0x0, symName: __ZNSt3__121__unwrap_and_dispatchB8ue170006INS_10__overloadINS_20__move_backward_loopINS_17_ClassicAlgPolicyEEENS_23__move_backward_trivialEEEPNS_12basic_stringIcNS_11char_traitsIcEENS_9allocatorIcEEEESD_SD_Li0EEENS_4pairIT0_T2_EESF_T1_SG_, symObjAddr: 0xBF604, symBinAddr: 0x1000CAEBC, symSize: 0xB4 }
  - { offsetInCU: 0xA581E, offset: 0xBC69D, size: 0x8, addend: 0x0, symName: __ZNSt3__16__copyB8ue170006INS_17_ClassicAlgPolicyENS_11__wrap_iterIPKNS_12basic_stringIcNS_11char_traitsIcEENS_9allocatorIcEEEEEESB_PS8_EENS_4pairIT0_T2_EESE_T1_SF_, symObjAddr: 0xBF75C, symBinAddr: 0x1000CB014, symSize: 0x54 }
  - { offsetInCU: 0xA588A, offset: 0xBC709, size: 0x8, addend: 0x0, symName: __ZNSt3__123__dispatch_copy_or_moveB8ue170006INS_17_ClassicAlgPolicyENS_11__copy_loopIS1_EENS_14__copy_trivialENS_11__wrap_iterIPKNS_12basic_stringIcNS_11char_traitsIcEENS_9allocatorIcEEEEEESE_PSB_EENS_4pairIT2_T4_EESH_T3_SI_, symObjAddr: 0xBF7B0, symBinAddr: 0x1000CB068, symSize: 0x54 }
  - { offsetInCU: 0xA5908, offset: 0xBC787, size: 0x8, addend: 0x0, symName: __ZNSt3__121__unwrap_and_dispatchB8ue170006INS_10__overloadINS_11__copy_loopINS_17_ClassicAlgPolicyEEENS_14__copy_trivialEEENS_11__wrap_iterIPKNS_12basic_stringIcNS_11char_traitsIcEENS_9allocatorIcEEEEEESG_PSD_Li0EEENS_4pairIT0_T2_EESJ_T1_SK_, symObjAddr: 0xBF804, symBinAddr: 0x1000CB0BC, symSize: 0xCC }
  - { offsetInCU: 0xA5A6B, offset: 0xBC8EA, size: 0x8, addend: 0x0, symName: __ZNSt3__19make_pairB8ue170006INS_11__wrap_iterIPKNS_12basic_stringIcNS_11char_traitsIcEENS_9allocatorIcEEEEEEPS7_EENS_4pairINS_18__unwrap_ref_decayIT_E4typeENSD_IT0_E4typeEEEOSE_OSH_, symObjAddr: 0xBF958, symBinAddr: 0x1000CB210, symSize: 0x38 }
  - { offsetInCU: 0xA5ABB, offset: 0xBC93A, size: 0x8, addend: 0x0, symName: __ZNSt3__114__rewrap_rangeB8ue170006INS_11__wrap_iterIPKNS_12basic_stringIcNS_11char_traitsIcEENS_9allocatorIcEEEEEES9_EET_SB_T0_, symObjAddr: 0xBF990, symBinAddr: 0x1000CB248, symSize: 0x3C }
  - { offsetInCU: 0xA5B06, offset: 0xBC985, size: 0x8, addend: 0x0, symName: __ZNSt3__19make_pairB8ue170006IPKNS_12basic_stringIcNS_11char_traitsIcEENS_9allocatorIcEEEEPS6_EENS_4pairINS_18__unwrap_ref_decayIT_E4typeENSB_IT0_E4typeEEEOSC_OSF_, symObjAddr: 0xBF9CC, symBinAddr: 0x1000CB284, symSize: 0x38 }
  - { offsetInCU: 0xA5C2B, offset: 0xBCAAA, size: 0x8, addend: 0x0, symName: __ZNSt3__113__rewrap_iterB8ue170006INS_11__wrap_iterIPKNS_12basic_stringIcNS_11char_traitsIcEENS_9allocatorIcEEEEEES9_NS_18__unwrap_iter_implISA_Lb1EEEEET_SD_T0_, symObjAddr: 0xBFAE4, symBinAddr: 0x1000CB39C, symSize: 0x4C }
  - { offsetInCU: 0xA5C7F, offset: 0xBCAFE, size: 0x8, addend: 0x0, symName: __ZNSt3__142__uninitialized_allocator_move_if_noexceptB8ue170006INS_9allocatorINS_12basic_stringIcNS_11char_traitsIcEENS1_IcEEEEEEPS6_S8_S8_EET2_RT_T0_T1_S9_, symObjAddr: 0xBFC9C, symBinAddr: 0x1000CB554, symSize: 0xF4 }
  - { offsetInCU: 0xA5D1E, offset: 0xBCB9D, size: 0x8, addend: 0x0, symName: __ZNSt3__110__distanceB8ue170006INS_11__wrap_iterIPKNS_12basic_stringIcNS_11char_traitsIcEENS_9allocatorIcEEEEEEEENS_15iterator_traitsIT_E15difference_typeESC_SC_NS_26random_access_iterator_tagE, symObjAddr: 0xBFD90, symBinAddr: 0x1000CB648, symSize: 0x30 }
  - { offsetInCU: 0xA5D6B, offset: 0xBCBEA, size: 0x8, addend: 0x0, symName: __ZNSt3__14swapB8ue170006IPN5Catch16TestCaseTracking12IndexTrackerEEENS_9enable_ifIXaasr21is_move_constructibleIT_EE5valuesr18is_move_assignableIS6_EE5valueEvE4typeERS6_S9_, symObjAddr: 0xBFF78, symBinAddr: 0x1000CB830, symSize: 0x3C }
  - { offsetInCU: 0xA5DBB, offset: 0xBCC3A, size: 0x8, addend: 0x0, symName: __ZNSt3__115allocate_sharedB8ue170006IN5Catch16TestCaseTracking12IndexTrackerENS_9allocatorIS3_EEJRKNS2_15NameAndLocationERNS2_14TrackerContextEPNS2_8ITrackerERiEvEENS_10shared_ptrIT_EERKT0_DpOT1_, symObjAddr: 0xBFFB4, symBinAddr: 0x1000CB86C, symSize: 0xB0 }
  - { offsetInCU: 0xA61AA, offset: 0xBD029, size: 0x8, addend: 0x0, symName: __ZNSt3__111__find_implB8ue170006IPKNS_12basic_stringIcNS_11char_traitsIcEENS_9allocatorIcEEEES8_S6_NS_10__identityEEET_SA_T0_RKT1_RT2_, symObjAddr: 0xC0968, symBinAddr: 0x1000CC220, symSize: 0x7C }
  - { offsetInCU: 0xA6223, offset: 0xBD0A2, size: 0x8, addend: 0x0, symName: __ZNSt3__18__invokeB8ue170006IRNS_10__identityEJRKNS_12basic_stringIcNS_11char_traitsIcEENS_9allocatorIcEEEEEEEDTclclsr3stdE7declvalIT_EEspclsr3stdE7declvalIT0_EEEEOSB_DpOSC_, symObjAddr: 0xC09E4, symBinAddr: 0x1000CC29C, symSize: 0x2C }
  - { offsetInCU: 0xA6276, offset: 0xBD0F5, size: 0x8, addend: 0x0, symName: __ZNSt3__111make_sharedB8ue170006IN5Catch8TestSpec11NamePatternEJRNS_12basic_stringIcNS_11char_traitsIcEENS_9allocatorIcEEEEEvEENS_10shared_ptrIT_EEDpOT0_, symObjAddr: 0xC0BC4, symBinAddr: 0x1000CC47C, symSize: 0x40 }
  - { offsetInCU: 0xA64A6, offset: 0xBD325, size: 0x8, addend: 0x0, symName: __ZNSt3__111make_sharedB8ue170006IN5Catch8TestSpec15ExcludedPatternEJRNS_10shared_ptrINS2_7PatternEEEEvEENS4_IT_EEDpOT0_, symObjAddr: 0xC0C64, symBinAddr: 0x1000CC51C, symSize: 0x40 }
  - { offsetInCU: 0xA66D6, offset: 0xBD555, size: 0x8, addend: 0x0, symName: __ZNSt3__115allocate_sharedB8ue170006IN5Catch8TestSpec11NamePatternENS_9allocatorIS3_EEJRNS_12basic_stringIcNS_11char_traitsIcEENS4_IcEEEEEvEENS_10shared_ptrIT_EERKT0_DpOT1_, symObjAddr: 0xC0D8C, symBinAddr: 0x1000CC644, symSize: 0x98 }
  - { offsetInCU: 0xA6A85, offset: 0xBD904, size: 0x8, addend: 0x0, symName: __ZNSt3__115allocate_sharedB8ue170006IN5Catch8TestSpec15ExcludedPatternENS_9allocatorIS3_EEJRNS_10shared_ptrINS2_7PatternEEEEvEENS6_IT_EERKT0_DpOT1_, symObjAddr: 0xC171C, symBinAddr: 0x1000CCFD4, symSize: 0x98 }
  - { offsetInCU: 0xA6E35, offset: 0xBDCB4, size: 0x8, addend: 0x0, symName: __ZNSt3__14swapB8ue170006IPN5Catch8TestSpec7PatternEEENS_9enable_ifIXaasr21is_move_constructibleIT_EE5valuesr18is_move_assignableIS6_EE5valueEvE4typeERS6_S9_, symObjAddr: 0xC20A4, symBinAddr: 0x1000CD95C, symSize: 0x3C }
  - { offsetInCU: 0xA6E85, offset: 0xBDD04, size: 0x8, addend: 0x0, symName: __ZNSt3__142__uninitialized_allocator_move_if_noexceptB8ue170006INS_9allocatorINS_10shared_ptrIN5Catch8TestSpec7PatternEEEEENS_16reverse_iteratorIPS6_EESA_SA_EET2_RT_T0_T1_SB_, symObjAddr: 0xC2760, symBinAddr: 0x1000CE018, symSize: 0x11C }
  - { offsetInCU: 0xA6F26, offset: 0xBDDA5, size: 0x8, addend: 0x0, symName: __ZNSt3__14swapB8ue170006IPNS_10shared_ptrIN5Catch8TestSpec7PatternEEEEENS_9enable_ifIXaasr21is_move_constructibleIT_EE5valuesr18is_move_assignableIS8_EE5valueEvE4typeERS8_SB_, symObjAddr: 0xC287C, symBinAddr: 0x1000CE134, symSize: 0x3C }
  - { offsetInCU: 0xA6F77, offset: 0xBDDF6, size: 0x8, addend: 0x0, symName: __ZNSt3__122__make_exception_guardB8ue170006INS_29_AllocatorDestroyRangeReverseINS_9allocatorINS_10shared_ptrIN5Catch8TestSpec7PatternEEEEENS_16reverse_iteratorIPS7_EEEEEENS_28__exception_guard_exceptionsIT_EESE_, symObjAddr: 0xC28B8, symBinAddr: 0x1000CE170, symSize: 0x4C }
  - { offsetInCU: 0xA6FAC, offset: 0xBDE2B, size: 0x8, addend: 0x0, symName: __ZNSt3__119__allocator_destroyB8ue170006INS_9allocatorINS_10shared_ptrIN5Catch8TestSpec7PatternEEEEENS_16reverse_iteratorINS8_IPS6_EEEESB_EEvRT_T0_T1_, symObjAddr: 0xC2C08, symBinAddr: 0x1000CE4C0, symSize: 0x70 }
  - { offsetInCU: 0xA7013, offset: 0xBDE92, size: 0x8, addend: 0x0, symName: __ZNSt3__1neB8ue170006INS_16reverse_iteratorIPNS_10shared_ptrIN5Catch8TestSpec7PatternEEEEES8_EEbRKNS1_IT_EERKNS1_IT0_EE, symObjAddr: 0xC2CB4, symBinAddr: 0x1000CE56C, symSize: 0x60 }
  - { offsetInCU: 0xA705F, offset: 0xBDEDE, size: 0x8, addend: 0x0, symName: __ZNSt3__112__to_addressB8ue170006INS_16reverse_iteratorINS1_IPNS_10shared_ptrIN5Catch8TestSpec7PatternEEEEEEEvEEu7__decayIDTclsr19__to_address_helperIT_EE6__callclsr3stdE7declvalIRKSA_EEEEESC_, symObjAddr: 0xC2D14, symBinAddr: 0x1000CE5CC, symSize: 0x24 }
  - { offsetInCU: 0xA70BF, offset: 0xBDF3E, size: 0x8, addend: 0x0, symName: __ZNSt3__111make_sharedB8ue170006IN5Catch8TestSpec10TagPatternEJRNS_12basic_stringIcNS_11char_traitsIcEENS_9allocatorIcEEEEEvEENS_10shared_ptrIT_EEDpOT0_, symObjAddr: 0xC3054, symBinAddr: 0x1000CE90C, symSize: 0x40 }
  - { offsetInCU: 0xA72EF, offset: 0xBE16E, size: 0x8, addend: 0x0, symName: __ZNSt3__115allocate_sharedB8ue170006IN5Catch8TestSpec10TagPatternENS_9allocatorIS3_EEJRNS_12basic_stringIcNS_11char_traitsIcEENS4_IcEEEEEvEENS_10shared_ptrIT_EERKT0_DpOT1_, symObjAddr: 0xC30F4, symBinAddr: 0x1000CE9AC, symSize: 0x98 }
  - { offsetInCU: 0xA769E, offset: 0xBE51D, size: 0x8, addend: 0x0, symName: __ZNSt3__142__uninitialized_allocator_move_if_noexceptB8ue170006INS_9allocatorIN5Catch8TestSpec6FilterEEENS_16reverse_iteratorIPS4_EES8_S8_EET2_RT_T0_T1_S9_, symObjAddr: 0xC40BC, symBinAddr: 0x1000CF974, symSize: 0x11C }
  - { offsetInCU: 0xA773F, offset: 0xBE5BE, size: 0x8, addend: 0x0, symName: __ZNSt3__14swapB8ue170006IPN5Catch8TestSpec6FilterEEENS_9enable_ifIXaasr21is_move_constructibleIT_EE5valuesr18is_move_assignableIS6_EE5valueEvE4typeERS6_S9_, symObjAddr: 0xC41D8, symBinAddr: 0x1000CFA90, symSize: 0x3C }
  - { offsetInCU: 0xA7790, offset: 0xBE60F, size: 0x8, addend: 0x0, symName: __ZNSt3__122__make_exception_guardB8ue170006INS_29_AllocatorDestroyRangeReverseINS_9allocatorIN5Catch8TestSpec6FilterEEENS_16reverse_iteratorIPS5_EEEEEENS_28__exception_guard_exceptionsIT_EESC_, symObjAddr: 0xC4214, symBinAddr: 0x1000CFACC, symSize: 0x4C }
  - { offsetInCU: 0xA77C5, offset: 0xBE644, size: 0x8, addend: 0x0, symName: __ZNSt3__119__allocator_destroyB8ue170006INS_9allocatorIN5Catch8TestSpec6FilterEEENS_16reverse_iteratorINS6_IPS4_EEEES9_EEvRT_T0_T1_, symObjAddr: 0xC4650, symBinAddr: 0x1000CFF08, symSize: 0x70 }
  - { offsetInCU: 0xA782C, offset: 0xBE6AB, size: 0x8, addend: 0x0, symName: __ZNSt3__1neB8ue170006INS_16reverse_iteratorIPN5Catch8TestSpec6FilterEEES6_EEbRKNS1_IT_EERKNS1_IT0_EE, symObjAddr: 0xC46FC, symBinAddr: 0x1000CFFB4, symSize: 0x60 }
  - { offsetInCU: 0xA7878, offset: 0xBE6F7, size: 0x8, addend: 0x0, symName: __ZNSt3__112__to_addressB8ue170006INS_16reverse_iteratorINS1_IPN5Catch8TestSpec6FilterEEEEEvEEu7__decayIDTclsr19__to_address_helperIT_EE6__callclsr3stdE7declvalIRKS8_EEEEESA_, symObjAddr: 0xC475C, symBinAddr: 0x1000D0014, symSize: 0x24 }
  - { offsetInCU: 0xA790C, offset: 0xBE78B, size: 0x8, addend: 0x0, symName: __ZNSt3__118__constexpr_wcslenB8ue170006EPKw, symObjAddr: 0xC4E7C, symBinAddr: 0x1000D0734, symSize: 0x24 }
  - { offsetInCU: 0xA7938, offset: 0xBE7B7, size: 0x8, addend: 0x0, symName: __ZNSt3__112setprecisionB8ue170006Ei, symObjAddr: 0xC4ED8, symBinAddr: 0x1000D0790, symSize: 0x2C }
  - { offsetInCU: 0xA7963, offset: 0xBE7E2, size: 0x8, addend: 0x0, symName: __ZNSt3__15fixedB8ue170006ERNS_8ios_baseE, symObjAddr: 0xC4F04, symBinAddr: 0x1000D07BC, symSize: 0x30 }
  - { offsetInCU: 0xA7992, offset: 0xBE811, size: 0x8, addend: 0x0, symName: __ZNSt3__1lsB8ue170006IcNS_11char_traitsIcEEEERNS_13basic_ostreamIT_T0_EES7_RKNS_8__iom_t5E, symObjAddr: 0xC4FC4, symBinAddr: 0x1000D087C, symSize: 0x40 }
  - { offsetInCU: 0xA79DD, offset: 0xBE85C, size: 0x8, addend: 0x0, symName: __ZNSt3__122__str_find_last_not_ofB8ue170006IcmNS_11char_traitsIcEELm18446744073709551615EEET0_PKT_S3_S4_S3_, symObjAddr: 0xC5084, symBinAddr: 0x1000D093C, symSize: 0xD0 }
  - { offsetInCU: 0xA7A83, offset: 0xBE902, size: 0x8, addend: 0x0, symName: __ZNSt3__1eqB8ue170006ERKNS_21__tree_const_iteratorIN5Catch9VerbosityEPNS_11__tree_nodeIS2_PvEElEES9_, symObjAddr: 0xC6490, symBinAddr: 0x1000D1D48, symSize: 0x30 }
  - { offsetInCU: 0xA7AC2, offset: 0xBE941, size: 0x8, addend: 0x0, symName: __ZNSt3__14nextB8ue170006INS_21__tree_const_iteratorIN5Catch9VerbosityEPNS_11__tree_nodeIS3_PvEElEEEENS_9enable_ifIXsr29__has_input_iterator_categoryIT_EE5valueESA_E4typeESA_NS_15iterator_traitsISA_E15difference_typeE, symObjAddr: 0xC6768, symBinAddr: 0x1000D2020, symSize: 0x3C }
  - { offsetInCU: 0xA7B05, offset: 0xBE984, size: 0x8, addend: 0x0, symName: __ZNSt3__116__tree_prev_iterB8ue170006IPNS_16__tree_node_baseIPvEEPNS_15__tree_end_nodeIS4_EEEET_T0_, symObjAddr: 0xC6868, symBinAddr: 0x1000D2120, symSize: 0x88 }
  - { offsetInCU: 0xA7B51, offset: 0xBE9D0, size: 0x8, addend: 0x0, symName: __ZNSt3__110__tree_maxB8ue170006IPNS_16__tree_node_baseIPvEEEET_S5_, symObjAddr: 0xC68F0, symBinAddr: 0x1000D21A8, symSize: 0x40 }
  - { offsetInCU: 0xA7B86, offset: 0xBEA05, size: 0x8, addend: 0x0, symName: __ZNSt3__19__advanceB8ue170006INS_21__tree_const_iteratorIN5Catch9VerbosityEPNS_11__tree_nodeIS3_PvEElEEEEvRT_NS_15iterator_traitsIS9_E15difference_typeENS_26bidirectional_iterator_tagE, symObjAddr: 0xC698C, symBinAddr: 0x1000D2244, symSize: 0xA4 }
  - { offsetInCU: 0xA7BED, offset: 0xBEA6C, size: 0x8, addend: 0x0, symName: __ZNSt3__111make_sharedB8ue170006IN5Catch17ReporterRegistrarINS1_15CompactReporterEE15ReporterFactoryEJEvEENS_10shared_ptrIT_EEDpOT0_, symObjAddr: 0xC71DC, symBinAddr: 0x1000D2A94, symSize: 0x38 }
  - { offsetInCU: 0xA7E07, offset: 0xBEC86, size: 0x8, addend: 0x0, symName: __ZNSt3__115allocate_sharedB8ue170006IN5Catch17ReporterRegistrarINS1_15CompactReporterEE15ReporterFactoryENS_9allocatorIS5_EEJEvEENS_10shared_ptrIT_EERKT0_DpOT1_, symObjAddr: 0xC7274, symBinAddr: 0x1000D2B2C, symSize: 0x90 }
  - { offsetInCU: 0xA81A1, offset: 0xBF020, size: 0x8, addend: 0x0, symName: __ZNSt3__112__to_addressB8ue170006IN5Catch12_GLOBAL__N_110ColumnInfoEEEPT_S5_, symObjAddr: 0xC88AC, symBinAddr: 0x1000D4164, symSize: 0x14 }
  - { offsetInCU: 0xA81D7, offset: 0xBF056, size: 0x8, addend: 0x0, symName: __ZNSt3__122__make_exception_guardB8ue170006INS_6vectorIN5Catch12_GLOBAL__N_110ColumnInfoENS_9allocatorIS4_EEE16__destroy_vectorEEENS_28__exception_guard_exceptionsIT_EESA_, symObjAddr: 0xC8B78, symBinAddr: 0x1000D4430, symSize: 0x40 }
  - { offsetInCU: 0xA820D, offset: 0xBF08C, size: 0x8, addend: 0x0, symName: __ZNSt3__119__allocate_at_leastB8ue170006INS_9allocatorIN5Catch12_GLOBAL__N_110ColumnInfoEEEEENS_19__allocation_resultINS_16allocator_traitsIT_E7pointerEEERS8_m, symObjAddr: 0xC8F08, symBinAddr: 0x1000D47C0, symSize: 0x40 }
  - { offsetInCU: 0xA8250, offset: 0xBF0CF, size: 0x8, addend: 0x0, symName: __ZNSt3__130__uninitialized_allocator_copyB8ue170006INS_9allocatorIN5Catch12_GLOBAL__N_110ColumnInfoEEEPKS4_S7_PS4_EET2_RT_T0_T1_S9_, symObjAddr: 0xC9120, symBinAddr: 0x1000D49D8, symSize: 0x80 }
  - { offsetInCU: 0xA82EF, offset: 0xBF16E, size: 0x8, addend: 0x0, symName: __ZNSt3__114__unwrap_rangeB8ue170006IPKN5Catch12_GLOBAL__N_110ColumnInfoES5_EENS_4pairIT0_S7_EET_S9_, symObjAddr: 0xC9210, symBinAddr: 0x1000D4AC8, symSize: 0x60 }
  - { offsetInCU: 0xA833B, offset: 0xBF1BA, size: 0x8, addend: 0x0, symName: __ZNSt3__135__uninitialized_allocator_copy_implB8ue170006INS_9allocatorIN5Catch12_GLOBAL__N_110ColumnInfoEEEPKS4_S7_PS4_EET2_RT_T0_T1_S9_, symObjAddr: 0xC9270, symBinAddr: 0x1000D4B28, symSize: 0xF4 }
  - { offsetInCU: 0xA83DB, offset: 0xBF25A, size: 0x8, addend: 0x0, symName: __ZNSt3__113__unwrap_iterB8ue170006IPN5Catch12_GLOBAL__N_110ColumnInfoENS_18__unwrap_iter_implIS4_Lb1EEELi0EEEDTclsrT0_8__unwrapclsr3stdE7declvalIT_EEEES8_, symObjAddr: 0xC9364, symBinAddr: 0x1000D4C1C, symSize: 0x24 }
  - { offsetInCU: 0xA8421, offset: 0xBF2A0, size: 0x8, addend: 0x0, symName: __ZNSt3__113__rewrap_iterB8ue170006IPN5Catch12_GLOBAL__N_110ColumnInfoES4_NS_18__unwrap_iter_implIS4_Lb1EEEEET_S7_T0_, symObjAddr: 0xC9388, symBinAddr: 0x1000D4C40, symSize: 0x3C }
  - { offsetInCU: 0xA8476, offset: 0xBF2F5, size: 0x8, addend: 0x0, symName: __ZNSt3__19make_pairB8ue170006IPKN5Catch12_GLOBAL__N_110ColumnInfoES5_EENS_4pairINS_18__unwrap_ref_decayIT_E4typeENS7_IT0_E4typeEEEOS8_OSB_, symObjAddr: 0xC93C4, symBinAddr: 0x1000D4C7C, symSize: 0x38 }
  - { offsetInCU: 0xA84C7, offset: 0xBF346, size: 0x8, addend: 0x0, symName: __ZNSt3__113__unwrap_iterB8ue170006IPKN5Catch12_GLOBAL__N_110ColumnInfoENS_18__unwrap_iter_implIS5_Lb1EEELi0EEEDTclsrT0_8__unwrapclsr3stdE7declvalIT_EEEES9_, symObjAddr: 0xC93FC, symBinAddr: 0x1000D4CB4, symSize: 0x24 }
  - { offsetInCU: 0xA863E, offset: 0xBF4BD, size: 0x8, addend: 0x0, symName: __ZNSt3__112__to_addressB8ue170006IKN5Catch12_GLOBAL__N_110ColumnInfoEEEPT_S6_, symObjAddr: 0xC94B4, symBinAddr: 0x1000D4D6C, symSize: 0x14 }
  - { offsetInCU: 0xA8674, offset: 0xBF4F3, size: 0x8, addend: 0x0, symName: __ZNSt3__122__make_exception_guardB8ue170006INS_29_AllocatorDestroyRangeReverseINS_9allocatorIN5Catch12_GLOBAL__N_110ColumnInfoEEEPS5_EEEENS_28__exception_guard_exceptionsIT_EESA_, symObjAddr: 0xC94C8, symBinAddr: 0x1000D4D80, symSize: 0x4C }
  - { offsetInCU: 0xA86AA, offset: 0xBF529, size: 0x8, addend: 0x0, symName: __ZNSt3__119__allocator_destroyB8ue170006INS_9allocatorIN5Catch12_GLOBAL__N_110ColumnInfoEEENS_16reverse_iteratorIPS4_EES8_EEvRT_T0_T1_, symObjAddr: 0xC9758, symBinAddr: 0x1000D5010, symSize: 0x70 }
  - { offsetInCU: 0xA870F, offset: 0xBF58E, size: 0x8, addend: 0x0, symName: __ZNSt3__1neB8ue170006IPN5Catch12_GLOBAL__N_110ColumnInfoES4_EEbRKNS_16reverse_iteratorIT_EERKNS5_IT0_EE, symObjAddr: 0xC97FC, symBinAddr: 0x1000D50B4, symSize: 0x48 }
  - { offsetInCU: 0xA875C, offset: 0xBF5DB, size: 0x8, addend: 0x0, symName: __ZNSt3__112__to_addressB8ue170006INS_16reverse_iteratorIPN5Catch12_GLOBAL__N_110ColumnInfoEEEvEEu7__decayIDTclsr19__to_address_helperIT_EE6__callclsr3stdE7declvalIRKS7_EEEEES9_, symObjAddr: 0xC9844, symBinAddr: 0x1000D50FC, symSize: 0x24 }
  - { offsetInCU: 0xA8815, offset: 0xBF694, size: 0x8, addend: 0x0, symName: __ZNSt3__119__allocate_at_leastB8ue170006INS_9allocatorIN5Catch11SectionInfoEEEEENS_19__allocation_resultINS_16allocator_traitsIT_E7pointerEEERS7_m, symObjAddr: 0xCA4A8, symBinAddr: 0x1000D5D60, symSize: 0x40 }
  - { offsetInCU: 0xA8857, offset: 0xBF6D6, size: 0x8, addend: 0x0, symName: __ZNSt3__142__uninitialized_allocator_move_if_noexceptB8ue170006INS_9allocatorIN5Catch11SectionInfoEEENS_16reverse_iteratorIPS3_EES7_S7_EET2_RT_T0_T1_S8_, symObjAddr: 0xCA65C, symBinAddr: 0x1000D5F14, symSize: 0x12C }
  - { offsetInCU: 0xA88F8, offset: 0xBF777, size: 0x8, addend: 0x0, symName: __ZNSt3__14swapB8ue170006IPN5Catch11SectionInfoEEENS_9enable_ifIXaasr21is_move_constructibleIT_EE5valuesr18is_move_assignableIS5_EE5valueEvE4typeERS5_S8_, symObjAddr: 0xCA7D4, symBinAddr: 0x1000D608C, symSize: 0x3C }
  - { offsetInCU: 0xA8949, offset: 0xBF7C8, size: 0x8, addend: 0x0, symName: __ZNSt3__122__make_exception_guardB8ue170006INS_29_AllocatorDestroyRangeReverseINS_9allocatorIN5Catch11SectionInfoEEENS_16reverse_iteratorIPS4_EEEEEENS_28__exception_guard_exceptionsIT_EESB_, symObjAddr: 0xCA8BC, symBinAddr: 0x1000D6174, symSize: 0x4C }
  - { offsetInCU: 0xA897F, offset: 0xBF7FE, size: 0x8, addend: 0x0, symName: __ZNSt3__1neB8ue170006IPN5Catch11SectionInfoES3_EEbRKNS_16reverse_iteratorIT_EERKNS4_IT0_EE, symObjAddr: 0xCA94C, symBinAddr: 0x1000D6204, symSize: 0x48 }
  - { offsetInCU: 0xA89CB, offset: 0xBF84A, size: 0x8, addend: 0x0, symName: __ZNSt3__112__to_addressB8ue170006INS_16reverse_iteratorIPN5Catch11SectionInfoEEEvEEu7__decayIDTclsr19__to_address_helperIT_EE6__callclsr3stdE7declvalIRKS6_EEEEES8_, symObjAddr: 0xCA9C8, symBinAddr: 0x1000D6280, symSize: 0x24 }
  - { offsetInCU: 0xA8A2B, offset: 0xBF8AA, size: 0x8, addend: 0x0, symName: __ZNSt3__119__allocator_destroyB8ue170006INS_9allocatorIN5Catch11SectionInfoEEENS_16reverse_iteratorINS5_IPS3_EEEES8_EEvRT_T0_T1_, symObjAddr: 0xCACA8, symBinAddr: 0x1000D6560, symSize: 0x70 }
  - { offsetInCU: 0xA8A92, offset: 0xBF911, size: 0x8, addend: 0x0, symName: __ZNSt3__1neB8ue170006INS_16reverse_iteratorIPN5Catch11SectionInfoEEES5_EEbRKNS1_IT_EERKNS1_IT0_EE, symObjAddr: 0xCAD54, symBinAddr: 0x1000D660C, symSize: 0x60 }
  - { offsetInCU: 0xA8ADE, offset: 0xBF95D, size: 0x8, addend: 0x0, symName: __ZNSt3__112__to_addressB8ue170006INS_16reverse_iteratorINS1_IPN5Catch11SectionInfoEEEEEvEEu7__decayIDTclsr19__to_address_helperIT_EE6__callclsr3stdE7declvalIRKS7_EEEEES9_, symObjAddr: 0xCADB4, symBinAddr: 0x1000D666C, symSize: 0x24 }
  - { offsetInCU: 0xA8B3F, offset: 0xBF9BE, size: 0x8, addend: 0x0, symName: __ZNSt3__112__to_addressB8ue170006IN5Catch13SummaryColumnEEEPT_S4_, symObjAddr: 0xCB914, symBinAddr: 0x1000D71CC, symSize: 0x14 }
  - { offsetInCU: 0xA8B74, offset: 0xBF9F3, size: 0x8, addend: 0x0, symName: __ZNSt3__119__allocate_at_leastB8ue170006INS_9allocatorIN5Catch13SummaryColumnEEEEENS_19__allocation_resultINS_16allocator_traitsIT_E7pointerEEERS7_m, symObjAddr: 0xCC294, symBinAddr: 0x1000D7B4C, symSize: 0x40 }
  - { offsetInCU: 0xA8BB6, offset: 0xBFA35, size: 0x8, addend: 0x0, symName: __ZNSt3__142__uninitialized_allocator_move_if_noexceptB8ue170006INS_9allocatorIN5Catch13SummaryColumnEEENS_16reverse_iteratorIPS3_EES7_S7_EET2_RT_T0_T1_S8_, symObjAddr: 0xCC44C, symBinAddr: 0x1000D7D04, symSize: 0x12C }
  - { offsetInCU: 0xA8C57, offset: 0xBFAD6, size: 0x8, addend: 0x0, symName: __ZNSt3__14swapB8ue170006IPN5Catch13SummaryColumnEEENS_9enable_ifIXaasr21is_move_constructibleIT_EE5valuesr18is_move_assignableIS5_EE5valueEvE4typeERS5_S8_, symObjAddr: 0xCC5C4, symBinAddr: 0x1000D7E7C, symSize: 0x3C }
  - { offsetInCU: 0xA8CA8, offset: 0xBFB27, size: 0x8, addend: 0x0, symName: __ZNSt3__122__make_exception_guardB8ue170006INS_29_AllocatorDestroyRangeReverseINS_9allocatorIN5Catch13SummaryColumnEEENS_16reverse_iteratorIPS4_EEEEEENS_28__exception_guard_exceptionsIT_EESB_, symObjAddr: 0xCC6C8, symBinAddr: 0x1000D7F80, symSize: 0x4C }
  - { offsetInCU: 0xA8CDE, offset: 0xBFB5D, size: 0x8, addend: 0x0, symName: __ZNSt3__1neB8ue170006IPN5Catch13SummaryColumnES3_EEbRKNS_16reverse_iteratorIT_EERKNS4_IT0_EE, symObjAddr: 0xCC758, symBinAddr: 0x1000D8010, symSize: 0x48 }
  - { offsetInCU: 0xA8D2A, offset: 0xBFBA9, size: 0x8, addend: 0x0, symName: __ZNSt3__112__to_addressB8ue170006INS_16reverse_iteratorIPN5Catch13SummaryColumnEEEvEEu7__decayIDTclsr19__to_address_helperIT_EE6__callclsr3stdE7declvalIRKS6_EEEEES8_, symObjAddr: 0xCC7A0, symBinAddr: 0x1000D8058, symSize: 0x24 }
  - { offsetInCU: 0xA8D8A, offset: 0xBFC09, size: 0x8, addend: 0x0, symName: __ZNSt3__119__allocator_destroyB8ue170006INS_9allocatorIN5Catch13SummaryColumnEEENS_16reverse_iteratorINS5_IPS3_EEEES8_EEvRT_T0_T1_, symObjAddr: 0xCCA50, symBinAddr: 0x1000D8308, symSize: 0x70 }
  - { offsetInCU: 0xA8DF1, offset: 0xBFC70, size: 0x8, addend: 0x0, symName: __ZNSt3__1neB8ue170006INS_16reverse_iteratorIPN5Catch13SummaryColumnEEES5_EEbRKNS1_IT_EERKNS1_IT0_EE, symObjAddr: 0xCCAFC, symBinAddr: 0x1000D83B4, symSize: 0x60 }
  - { offsetInCU: 0xA8E3D, offset: 0xBFCBC, size: 0x8, addend: 0x0, symName: __ZNSt3__112__to_addressB8ue170006INS_16reverse_iteratorINS1_IPN5Catch13SummaryColumnEEEEEvEEu7__decayIDTclsr19__to_address_helperIT_EE6__callclsr3stdE7declvalIRKS7_EEEEES9_, symObjAddr: 0xCCB5C, symBinAddr: 0x1000D8414, symSize: 0x24 }
  - { offsetInCU: 0xA8E9D, offset: 0xBFD1C, size: 0x8, addend: 0x0, symName: __ZNSt3__111make_sharedB8ue170006IN5Catch17ReporterRegistrarINS1_15ConsoleReporterEE15ReporterFactoryEJEvEENS_10shared_ptrIT_EEDpOT0_, symObjAddr: 0xCCFF4, symBinAddr: 0x1000D88AC, symSize: 0x38 }
  - { offsetInCU: 0xA90B7, offset: 0xBFF36, size: 0x8, addend: 0x0, symName: __ZNSt3__115allocate_sharedB8ue170006IN5Catch17ReporterRegistrarINS1_15ConsoleReporterEE15ReporterFactoryENS_9allocatorIS5_EEJEvEENS_10shared_ptrIT_EERKT0_DpOT1_, symObjAddr: 0xCD08C, symBinAddr: 0x1000D8944, symSize: 0x90 }
  - { offsetInCU: 0xA9451, offset: 0xC02D0, size: 0x8, addend: 0x0, symName: __ZNSt3__119__allocate_at_leastB8ue170006INS_9allocatorIN5Catch14AssertionStatsEEEEENS_19__allocation_resultINS_16allocator_traitsIT_E7pointerEEERS7_m, symObjAddr: 0xCF29C, symBinAddr: 0x1000DAB54, symSize: 0x40 }
  - { offsetInCU: 0xA9493, offset: 0xC0312, size: 0x8, addend: 0x0, symName: __ZNSt3__142__uninitialized_allocator_move_if_noexceptB8ue170006INS_9allocatorIN5Catch14AssertionStatsEEENS_16reverse_iteratorIPS3_EES7_S7_EET2_RT_T0_T1_S8_, symObjAddr: 0xCF454, symBinAddr: 0x1000DAD0C, symSize: 0x12C }
  - { offsetInCU: 0xA9534, offset: 0xC03B3, size: 0x8, addend: 0x0, symName: __ZNSt3__14swapB8ue170006IPN5Catch14AssertionStatsEEENS_9enable_ifIXaasr21is_move_constructibleIT_EE5valuesr18is_move_assignableIS5_EE5valueEvE4typeERS5_S8_, symObjAddr: 0xCF5CC, symBinAddr: 0x1000DAE84, symSize: 0x3C }
  - { offsetInCU: 0xA9585, offset: 0xC0404, size: 0x8, addend: 0x0, symName: __ZNSt3__122__make_exception_guardB8ue170006INS_29_AllocatorDestroyRangeReverseINS_9allocatorIN5Catch14AssertionStatsEEENS_16reverse_iteratorIPS4_EEEEEENS_28__exception_guard_exceptionsIT_EESB_, symObjAddr: 0xCF6D0, symBinAddr: 0x1000DAF88, symSize: 0x4C }
  - { offsetInCU: 0xA95BB, offset: 0xC043A, size: 0x8, addend: 0x0, symName: __ZNSt3__1neB8ue170006IPN5Catch14AssertionStatsES3_EEbRKNS_16reverse_iteratorIT_EERKNS4_IT0_EE, symObjAddr: 0xCF760, symBinAddr: 0x1000DB018, symSize: 0x48 }
  - { offsetInCU: 0xA9607, offset: 0xC0486, size: 0x8, addend: 0x0, symName: __ZNSt3__112__to_addressB8ue170006INS_16reverse_iteratorIPN5Catch14AssertionStatsEEEvEEu7__decayIDTclsr19__to_address_helperIT_EE6__callclsr3stdE7declvalIRKS6_EEEEES8_, symObjAddr: 0xCF7A8, symBinAddr: 0x1000DB060, symSize: 0x24 }
  - { offsetInCU: 0xA9667, offset: 0xC04E6, size: 0x8, addend: 0x0, symName: __ZNSt3__119__allocator_destroyB8ue170006INS_9allocatorIN5Catch14AssertionStatsEEENS_16reverse_iteratorINS5_IPS3_EEEES8_EEvRT_T0_T1_, symObjAddr: 0xCFA58, symBinAddr: 0x1000DB310, symSize: 0x70 }
  - { offsetInCU: 0xA96CE, offset: 0xC054D, size: 0x8, addend: 0x0, symName: __ZNSt3__1neB8ue170006INS_16reverse_iteratorIPN5Catch14AssertionStatsEEES5_EEbRKNS1_IT_EERKNS1_IT0_EE, symObjAddr: 0xCFB04, symBinAddr: 0x1000DB3BC, symSize: 0x60 }
  - { offsetInCU: 0xA971A, offset: 0xC0599, size: 0x8, addend: 0x0, symName: __ZNSt3__112__to_addressB8ue170006INS_16reverse_iteratorINS1_IPN5Catch14AssertionStatsEEEEEvEEu7__decayIDTclsr19__to_address_helperIT_EE6__callclsr3stdE7declvalIRKS7_EEEEES9_, symObjAddr: 0xCFB64, symBinAddr: 0x1000DB41C, symSize: 0x24 }
  - { offsetInCU: 0xA977A, offset: 0xC05F9, size: 0x8, addend: 0x0, symName: __ZNSt3__111make_sharedB8ue170006IN5Catch22CumulativeReporterBaseINS1_13JunitReporterEE4NodeINS1_13TestCaseStatsENS4_11SectionNodeEEEJRKS6_EvEENS_10shared_ptrIT_EEDpOT0_, symObjAddr: 0xCFECC, symBinAddr: 0x1000DB784, symSize: 0x40 }
  - { offsetInCU: 0xA97C0, offset: 0xC063F, size: 0x8, addend: 0x0, symName: __ZNSt3__115allocate_sharedB8ue170006IN5Catch22CumulativeReporterBaseINS1_13JunitReporterEE4NodeINS1_13TestCaseStatsENS4_11SectionNodeEEENS_9allocatorIS8_EEJRKS6_EvEENS_10shared_ptrIT_EERKT0_DpOT1_, symObjAddr: 0xD0088, symBinAddr: 0x1000DB940, symSize: 0x98 }
  - { offsetInCU: 0xA9B70, offset: 0xC09EF, size: 0x8, addend: 0x0, symName: __ZNSt3__119__allocate_at_leastB8ue170006INS_9allocatorINS_10shared_ptrIN5Catch22CumulativeReporterBaseINS3_13JunitReporterEE11SectionNodeEEEEEEENS_19__allocation_resultINS_16allocator_traitsIT_E7pointerEEERSC_m, symObjAddr: 0xD13C0, symBinAddr: 0x1000DCC78, symSize: 0x40 }
  - { offsetInCU: 0xA9BB2, offset: 0xC0A31, size: 0x8, addend: 0x0, symName: __ZNSt3__142__uninitialized_allocator_move_if_noexceptB8ue170006INS_9allocatorINS_10shared_ptrIN5Catch22CumulativeReporterBaseINS3_13JunitReporterEE11SectionNodeEEEEENS_16reverse_iteratorIPS8_EESC_SC_EET2_RT_T0_T1_SD_, symObjAddr: 0xD1574, symBinAddr: 0x1000DCE2C, symSize: 0x12C }
  - { offsetInCU: 0xA9C53, offset: 0xC0AD2, size: 0x8, addend: 0x0, symName: __ZNSt3__14swapB8ue170006IPNS_10shared_ptrIN5Catch22CumulativeReporterBaseINS2_13JunitReporterEE11SectionNodeEEEEENS_9enable_ifIXaasr21is_move_constructibleIT_EE5valuesr18is_move_assignableISA_EE5valueEvE4typeERSA_SD_, symObjAddr: 0xD16EC, symBinAddr: 0x1000DCFA4, symSize: 0x3C }
  - { offsetInCU: 0xA9CA4, offset: 0xC0B23, size: 0x8, addend: 0x0, symName: __ZNSt3__122__make_exception_guardB8ue170006INS_29_AllocatorDestroyRangeReverseINS_9allocatorINS_10shared_ptrIN5Catch22CumulativeReporterBaseINS4_13JunitReporterEE11SectionNodeEEEEENS_16reverse_iteratorIPS9_EEEEEENS_28__exception_guard_exceptionsIT_EESG_, symObjAddr: 0xD17D4, symBinAddr: 0x1000DD08C, symSize: 0x4C }
  - { offsetInCU: 0xA9CDA, offset: 0xC0B59, size: 0x8, addend: 0x0, symName: __ZNSt3__1neB8ue170006IPNS_10shared_ptrIN5Catch22CumulativeReporterBaseINS2_13JunitReporterEE11SectionNodeEEES8_EEbRKNS_16reverse_iteratorIT_EERKNS9_IT0_EE, symObjAddr: 0xD1864, symBinAddr: 0x1000DD11C, symSize: 0x48 }
  - { offsetInCU: 0xA9D26, offset: 0xC0BA5, size: 0x8, addend: 0x0, symName: __ZNSt3__112__to_addressB8ue170006INS_16reverse_iteratorIPNS_10shared_ptrIN5Catch22CumulativeReporterBaseINS3_13JunitReporterEE11SectionNodeEEEEEvEEu7__decayIDTclsr19__to_address_helperIT_EE6__callclsr3stdE7declvalIRKSB_EEEEESD_, symObjAddr: 0xD18E0, symBinAddr: 0x1000DD198, symSize: 0x24 }
  - { offsetInCU: 0xA9D86, offset: 0xC0C05, size: 0x8, addend: 0x0, symName: __ZNSt3__119__allocator_destroyB8ue170006INS_9allocatorINS_10shared_ptrIN5Catch22CumulativeReporterBaseINS3_13JunitReporterEE11SectionNodeEEEEENS_16reverse_iteratorINSA_IPS8_EEEESD_EEvRT_T0_T1_, symObjAddr: 0xD1C34, symBinAddr: 0x1000DD4EC, symSize: 0x70 }
  - { offsetInCU: 0xA9DED, offset: 0xC0C6C, size: 0x8, addend: 0x0, symName: __ZNSt3__1neB8ue170006INS_16reverse_iteratorIPNS_10shared_ptrIN5Catch22CumulativeReporterBaseINS3_13JunitReporterEE11SectionNodeEEEEESA_EEbRKNS1_IT_EERKNS1_IT0_EE, symObjAddr: 0xD1CE0, symBinAddr: 0x1000DD598, symSize: 0x60 }
  - { offsetInCU: 0xA9E39, offset: 0xC0CB8, size: 0x8, addend: 0x0, symName: __ZNSt3__112__to_addressB8ue170006INS_16reverse_iteratorINS1_IPNS_10shared_ptrIN5Catch22CumulativeReporterBaseINS3_13JunitReporterEE11SectionNodeEEEEEEEvEEu7__decayIDTclsr19__to_address_helperIT_EE6__callclsr3stdE7declvalIRKSC_EEEEESE_, symObjAddr: 0xD1D40, symBinAddr: 0x1000DD5F8, symSize: 0x24 }
  - { offsetInCU: 0xA9E9A, offset: 0xC0D19, size: 0x8, addend: 0x0, symName: __ZNSt3__119__allocate_at_leastB8ue170006INS_9allocatorINS_10shared_ptrIN5Catch22CumulativeReporterBaseINS3_13JunitReporterEE4NodeINS3_13TestCaseStatsENS6_11SectionNodeEEEEEEEEENS_19__allocation_resultINS_16allocator_traitsIT_E7pointerEEERSF_m, symObjAddr: 0xD289C, symBinAddr: 0x1000DE154, symSize: 0x40 }
  - { offsetInCU: 0xA9EDC, offset: 0xC0D5B, size: 0x8, addend: 0x0, symName: __ZNSt3__142__uninitialized_allocator_move_if_noexceptB8ue170006INS_9allocatorINS_10shared_ptrIN5Catch22CumulativeReporterBaseINS3_13JunitReporterEE4NodeINS3_13TestCaseStatsENS6_11SectionNodeEEEEEEENS_16reverse_iteratorIPSB_EESF_SF_EET2_RT_T0_T1_SG_, symObjAddr: 0xD2A50, symBinAddr: 0x1000DE308, symSize: 0x12C }
  - { offsetInCU: 0xA9F7D, offset: 0xC0DFC, size: 0x8, addend: 0x0, symName: __ZNSt3__14swapB8ue170006IPNS_10shared_ptrIN5Catch22CumulativeReporterBaseINS2_13JunitReporterEE4NodeINS2_13TestCaseStatsENS5_11SectionNodeEEEEEEENS_9enable_ifIXaasr21is_move_constructibleIT_EE5valuesr18is_move_assignableISD_EE5valueEvE4typeERSD_SG_, symObjAddr: 0xD2BC8, symBinAddr: 0x1000DE480, symSize: 0x3C }
  - { offsetInCU: 0xA9FCE, offset: 0xC0E4D, size: 0x8, addend: 0x0, symName: __ZNSt3__122__make_exception_guardB8ue170006INS_29_AllocatorDestroyRangeReverseINS_9allocatorINS_10shared_ptrIN5Catch22CumulativeReporterBaseINS4_13JunitReporterEE4NodeINS4_13TestCaseStatsENS7_11SectionNodeEEEEEEENS_16reverse_iteratorIPSC_EEEEEENS_28__exception_guard_exceptionsIT_EESJ_, symObjAddr: 0xD2CB0, symBinAddr: 0x1000DE568, symSize: 0x4C }
  - { offsetInCU: 0xAA004, offset: 0xC0E83, size: 0x8, addend: 0x0, symName: __ZNSt3__1neB8ue170006IPNS_10shared_ptrIN5Catch22CumulativeReporterBaseINS2_13JunitReporterEE4NodeINS2_13TestCaseStatsENS5_11SectionNodeEEEEESB_EEbRKNS_16reverse_iteratorIT_EERKNSC_IT0_EE, symObjAddr: 0xD2D40, symBinAddr: 0x1000DE5F8, symSize: 0x48 }
  - { offsetInCU: 0xAA050, offset: 0xC0ECF, size: 0x8, addend: 0x0, symName: __ZNSt3__112__to_addressB8ue170006INS_16reverse_iteratorIPNS_10shared_ptrIN5Catch22CumulativeReporterBaseINS3_13JunitReporterEE4NodeINS3_13TestCaseStatsENS6_11SectionNodeEEEEEEEvEEu7__decayIDTclsr19__to_address_helperIT_EE6__callclsr3stdE7declvalIRKSE_EEEEESG_, symObjAddr: 0xD2DBC, symBinAddr: 0x1000DE674, symSize: 0x24 }
  - { offsetInCU: 0xAA0B0, offset: 0xC0F2F, size: 0x8, addend: 0x0, symName: __ZNSt3__119__allocator_destroyB8ue170006INS_9allocatorINS_10shared_ptrIN5Catch22CumulativeReporterBaseINS3_13JunitReporterEE4NodeINS3_13TestCaseStatsENS6_11SectionNodeEEEEEEENS_16reverse_iteratorINSD_IPSB_EEEESG_EEvRT_T0_T1_, symObjAddr: 0xD3110, symBinAddr: 0x1000DE9C8, symSize: 0x70 }
  - { offsetInCU: 0xAA117, offset: 0xC0F96, size: 0x8, addend: 0x0, symName: __ZNSt3__1neB8ue170006INS_16reverse_iteratorIPNS_10shared_ptrIN5Catch22CumulativeReporterBaseINS3_13JunitReporterEE4NodeINS3_13TestCaseStatsENS6_11SectionNodeEEEEEEESD_EEbRKNS1_IT_EERKNS1_IT0_EE, symObjAddr: 0xD31BC, symBinAddr: 0x1000DEA74, symSize: 0x60 }
  - { offsetInCU: 0xAA163, offset: 0xC0FE2, size: 0x8, addend: 0x0, symName: __ZNSt3__112__to_addressB8ue170006INS_16reverse_iteratorINS1_IPNS_10shared_ptrIN5Catch22CumulativeReporterBaseINS3_13JunitReporterEE4NodeINS3_13TestCaseStatsENS6_11SectionNodeEEEEEEEEEvEEu7__decayIDTclsr19__to_address_helperIT_EE6__callclsr3stdE7declvalIRKSF_EEEEESH_, symObjAddr: 0xD321C, symBinAddr: 0x1000DEAD4, symSize: 0x24 }
  - { offsetInCU: 0xAA1C4, offset: 0xC1043, size: 0x8, addend: 0x0, symName: __ZNSt3__14swapB8ue170006IPN5Catch22CumulativeReporterBaseINS1_13JunitReporterEE11SectionNodeEEENS_9enable_ifIXaasr21is_move_constructibleIT_EE5valuesr18is_move_assignableIS8_EE5valueEvE4typeERS8_SB_, symObjAddr: 0xD35C8, symBinAddr: 0x1000DEE80, symSize: 0x3C }
  - { offsetInCU: 0xAA214, offset: 0xC1093, size: 0x8, addend: 0x0, symName: __ZNSt3__111make_sharedB8ue170006IN5Catch22CumulativeReporterBaseINS1_13JunitReporterEE4NodeINS1_14TestGroupStatsENS5_INS1_13TestCaseStatsENS4_11SectionNodeEEEEEJRKS6_EvEENS_10shared_ptrIT_EEDpOT0_, symObjAddr: 0xD361C, symBinAddr: 0x1000DEED4, symSize: 0x40 }
  - { offsetInCU: 0xAA25A, offset: 0xC10D9, size: 0x8, addend: 0x0, symName: __ZNSt3__115allocate_sharedB8ue170006IN5Catch22CumulativeReporterBaseINS1_13JunitReporterEE4NodeINS1_14TestGroupStatsENS5_INS1_13TestCaseStatsENS4_11SectionNodeEEEEENS_9allocatorISA_EEJRKS6_EvEENS_10shared_ptrIT_EERKT0_DpOT1_, symObjAddr: 0xD3764, symBinAddr: 0x1000DF01C, symSize: 0x98 }
  - { offsetInCU: 0xAA60A, offset: 0xC1489, size: 0x8, addend: 0x0, symName: __ZNSt3__116__swap_allocatorB8ue170006INS_9allocatorINS_10shared_ptrIN5Catch22CumulativeReporterBaseINS3_13JunitReporterEE4NodeINS3_13TestCaseStatsENS6_11SectionNodeEEEEEEEEEvRT_SE_NS_17integral_constantIbLb0EEE, symObjAddr: 0xD4228, symBinAddr: 0x1000DFAE0, symSize: 0x14 }
  - { offsetInCU: 0xAA64C, offset: 0xC14CB, size: 0x8, addend: 0x0, symName: __ZNSt3__119__allocate_at_leastB8ue170006INS_9allocatorINS_10shared_ptrIN5Catch22CumulativeReporterBaseINS3_13JunitReporterEE4NodeINS3_14TestGroupStatsENS7_INS3_13TestCaseStatsENS6_11SectionNodeEEEEEEEEEEENS_19__allocation_resultINS_16allocator_traitsIT_E7pointerEEERSH_m, symObjAddr: 0xD4A30, symBinAddr: 0x1000E02E8, symSize: 0x40 }
  - { offsetInCU: 0xAA68E, offset: 0xC150D, size: 0x8, addend: 0x0, symName: __ZNSt3__142__uninitialized_allocator_move_if_noexceptB8ue170006INS_9allocatorINS_10shared_ptrIN5Catch22CumulativeReporterBaseINS3_13JunitReporterEE4NodeINS3_14TestGroupStatsENS7_INS3_13TestCaseStatsENS6_11SectionNodeEEEEEEEEENS_16reverse_iteratorIPSD_EESH_SH_EET2_RT_T0_T1_SI_, symObjAddr: 0xD4BE4, symBinAddr: 0x1000E049C, symSize: 0x12C }
  - { offsetInCU: 0xAA72F, offset: 0xC15AE, size: 0x8, addend: 0x0, symName: __ZNSt3__14swapB8ue170006IPNS_10shared_ptrIN5Catch22CumulativeReporterBaseINS2_13JunitReporterEE4NodeINS2_14TestGroupStatsENS6_INS2_13TestCaseStatsENS5_11SectionNodeEEEEEEEEENS_9enable_ifIXaasr21is_move_constructibleIT_EE5valuesr18is_move_assignableISF_EE5valueEvE4typeERSF_SI_, symObjAddr: 0xD4D5C, symBinAddr: 0x1000E0614, symSize: 0x3C }
  - { offsetInCU: 0xAA780, offset: 0xC15FF, size: 0x8, addend: 0x0, symName: __ZNSt3__122__make_exception_guardB8ue170006INS_29_AllocatorDestroyRangeReverseINS_9allocatorINS_10shared_ptrIN5Catch22CumulativeReporterBaseINS4_13JunitReporterEE4NodeINS4_14TestGroupStatsENS8_INS4_13TestCaseStatsENS7_11SectionNodeEEEEEEEEENS_16reverse_iteratorIPSE_EEEEEENS_28__exception_guard_exceptionsIT_EESL_, symObjAddr: 0xD4E44, symBinAddr: 0x1000E06FC, symSize: 0x4C }
  - { offsetInCU: 0xAA7B6, offset: 0xC1635, size: 0x8, addend: 0x0, symName: __ZNSt3__1neB8ue170006IPNS_10shared_ptrIN5Catch22CumulativeReporterBaseINS2_13JunitReporterEE4NodeINS2_14TestGroupStatsENS6_INS2_13TestCaseStatsENS5_11SectionNodeEEEEEEESD_EEbRKNS_16reverse_iteratorIT_EERKNSE_IT0_EE, symObjAddr: 0xD4ED4, symBinAddr: 0x1000E078C, symSize: 0x48 }
  - { offsetInCU: 0xAA802, offset: 0xC1681, size: 0x8, addend: 0x0, symName: __ZNSt3__112__to_addressB8ue170006INS_16reverse_iteratorIPNS_10shared_ptrIN5Catch22CumulativeReporterBaseINS3_13JunitReporterEE4NodeINS3_14TestGroupStatsENS7_INS3_13TestCaseStatsENS6_11SectionNodeEEEEEEEEEvEEu7__decayIDTclsr19__to_address_helperIT_EE6__callclsr3stdE7declvalIRKSG_EEEEESI_, symObjAddr: 0xD4F50, symBinAddr: 0x1000E0808, symSize: 0x24 }
  - { offsetInCU: 0xAA862, offset: 0xC16E1, size: 0x8, addend: 0x0, symName: __ZNSt3__119__allocator_destroyB8ue170006INS_9allocatorINS_10shared_ptrIN5Catch22CumulativeReporterBaseINS3_13JunitReporterEE4NodeINS3_14TestGroupStatsENS7_INS3_13TestCaseStatsENS6_11SectionNodeEEEEEEEEENS_16reverse_iteratorINSF_IPSD_EEEESI_EEvRT_T0_T1_, symObjAddr: 0xD52A4, symBinAddr: 0x1000E0B5C, symSize: 0x70 }
  - { offsetInCU: 0xAA8C9, offset: 0xC1748, size: 0x8, addend: 0x0, symName: __ZNSt3__1neB8ue170006INS_16reverse_iteratorIPNS_10shared_ptrIN5Catch22CumulativeReporterBaseINS3_13JunitReporterEE4NodeINS3_14TestGroupStatsENS7_INS3_13TestCaseStatsENS6_11SectionNodeEEEEEEEEESF_EEbRKNS1_IT_EERKNS1_IT0_EE, symObjAddr: 0xD5350, symBinAddr: 0x1000E0C08, symSize: 0x60 }
  - { offsetInCU: 0xAA915, offset: 0xC1794, size: 0x8, addend: 0x0, symName: __ZNSt3__112__to_addressB8ue170006INS_16reverse_iteratorINS1_IPNS_10shared_ptrIN5Catch22CumulativeReporterBaseINS3_13JunitReporterEE4NodeINS3_14TestGroupStatsENS7_INS3_13TestCaseStatsENS6_11SectionNodeEEEEEEEEEEEvEEu7__decayIDTclsr19__to_address_helperIT_EE6__callclsr3stdE7declvalIRKSH_EEEEESJ_, symObjAddr: 0xD53B0, symBinAddr: 0x1000E0C68, symSize: 0x24 }
  - { offsetInCU: 0xAA975, offset: 0xC17F4, size: 0x8, addend: 0x0, symName: __ZNSt3__111make_sharedB8ue170006IN5Catch17ReporterRegistrarINS1_13JunitReporterEE15ReporterFactoryEJEvEENS_10shared_ptrIT_EEDpOT0_, symObjAddr: 0xD5988, symBinAddr: 0x1000E1240, symSize: 0x38 }
  - { offsetInCU: 0xAAB8F, offset: 0xC1A0E, size: 0x8, addend: 0x0, symName: __ZNSt3__115allocate_sharedB8ue170006IN5Catch17ReporterRegistrarINS1_13JunitReporterEE15ReporterFactoryENS_9allocatorIS5_EEJEvEENS_10shared_ptrIT_EERKT0_DpOT1_, symObjAddr: 0xD5A20, symBinAddr: 0x1000E12D8, symSize: 0x90 }
  - { offsetInCU: 0xAAF29, offset: 0xC1DA8, size: 0x8, addend: 0x0, symName: __ZNSt3__119__allocate_at_leastB8ue170006INS_9allocatorINS_10unique_ptrIN5Catch18IStreamingReporterENS_14default_deleteIS4_EEEEEEEENS_19__allocation_resultINS_16allocator_traitsIT_E7pointerEEERSB_m, symObjAddr: 0xD725C, symBinAddr: 0x1000E2B14, symSize: 0x40 }
  - { offsetInCU: 0xAAF6B, offset: 0xC1DEA, size: 0x8, addend: 0x0, symName: __ZNSt3__142__uninitialized_allocator_move_if_noexceptB8ue170006INS_9allocatorINS_10unique_ptrIN5Catch18IStreamingReporterENS_14default_deleteIS4_EEEEEENS_16reverse_iteratorIPS7_EESB_SB_EET2_RT_T0_T1_SC_, symObjAddr: 0xD7410, symBinAddr: 0x1000E2CC8, symSize: 0x12C }
  - { offsetInCU: 0xAB00C, offset: 0xC1E8B, size: 0x8, addend: 0x0, symName: __ZNSt3__14swapB8ue170006IPNS_10unique_ptrIN5Catch18IStreamingReporterENS_14default_deleteIS3_EEEEEENS_9enable_ifIXaasr21is_move_constructibleIT_EE5valuesr18is_move_assignableIS9_EE5valueEvE4typeERS9_SC_, symObjAddr: 0xD7588, symBinAddr: 0x1000E2E40, symSize: 0x3C }
  - { offsetInCU: 0xAB05D, offset: 0xC1EDC, size: 0x8, addend: 0x0, symName: __ZNSt3__122__make_exception_guardB8ue170006INS_29_AllocatorDestroyRangeReverseINS_9allocatorINS_10unique_ptrIN5Catch18IStreamingReporterENS_14default_deleteIS5_EEEEEENS_16reverse_iteratorIPS8_EEEEEENS_28__exception_guard_exceptionsIT_EESF_, symObjAddr: 0xD7670, symBinAddr: 0x1000E2F28, symSize: 0x4C }
  - { offsetInCU: 0xAB093, offset: 0xC1F12, size: 0x8, addend: 0x0, symName: __ZNSt3__1neB8ue170006IPNS_10unique_ptrIN5Catch18IStreamingReporterENS_14default_deleteIS3_EEEES7_EEbRKNS_16reverse_iteratorIT_EERKNS8_IT0_EE, symObjAddr: 0xD7700, symBinAddr: 0x1000E2FB8, symSize: 0x48 }
  - { offsetInCU: 0xAB0DF, offset: 0xC1F5E, size: 0x8, addend: 0x0, symName: __ZNSt3__112__to_addressB8ue170006INS_16reverse_iteratorIPNS_10unique_ptrIN5Catch18IStreamingReporterENS_14default_deleteIS4_EEEEEEvEEu7__decayIDTclsr19__to_address_helperIT_EE6__callclsr3stdE7declvalIRKSA_EEEEESC_, symObjAddr: 0xD7748, symBinAddr: 0x1000E3000, symSize: 0x24 }
  - { offsetInCU: 0xAB13F, offset: 0xC1FBE, size: 0x8, addend: 0x0, symName: __ZNSt3__119__allocator_destroyB8ue170006INS_9allocatorINS_10unique_ptrIN5Catch18IStreamingReporterENS_14default_deleteIS4_EEEEEENS_16reverse_iteratorINS9_IPS7_EEEESC_EEvRT_T0_T1_, symObjAddr: 0xD79F8, symBinAddr: 0x1000E32B0, symSize: 0x70 }
  - { offsetInCU: 0xAB1A6, offset: 0xC2025, size: 0x8, addend: 0x0, symName: __ZNSt3__1neB8ue170006INS_16reverse_iteratorIPNS_10unique_ptrIN5Catch18IStreamingReporterENS_14default_deleteIS4_EEEEEES9_EEbRKNS1_IT_EERKNS1_IT0_EE, symObjAddr: 0xD7AA4, symBinAddr: 0x1000E335C, symSize: 0x60 }
  - { offsetInCU: 0xAB1F2, offset: 0xC2071, size: 0x8, addend: 0x0, symName: __ZNSt3__112__to_addressB8ue170006INS_16reverse_iteratorINS1_IPNS_10unique_ptrIN5Catch18IStreamingReporterENS_14default_deleteIS4_EEEEEEEEvEEu7__decayIDTclsr19__to_address_helperIT_EE6__callclsr3stdE7declvalIRKSB_EEEEESD_, symObjAddr: 0xD7B04, symBinAddr: 0x1000E33BC, symSize: 0x24 }
  - { offsetInCU: 0xAB252, offset: 0xC20D1, size: 0x8, addend: 0x0, symName: __ZNSt3__111make_sharedB8ue170006IN5Catch17ReporterRegistrarINS1_11XmlReporterEE15ReporterFactoryEJEvEENS_10shared_ptrIT_EEDpOT0_, symObjAddr: 0xD81E0, symBinAddr: 0x1000E3A98, symSize: 0x38 }
  - { offsetInCU: 0xAB46C, offset: 0xC22EB, size: 0x8, addend: 0x0, symName: __ZNSt3__115allocate_sharedB8ue170006IN5Catch17ReporterRegistrarINS1_11XmlReporterEE15ReporterFactoryENS_9allocatorIS5_EEJEvEENS_10shared_ptrIT_EERKT0_DpOT1_, symObjAddr: 0xD8278, symBinAddr: 0x1000E3B30, symSize: 0x90 }
  - { offsetInCU: 0xAB805, offset: 0xC2684, size: 0x8, addend: 0x0, symName: __ZNSt3__111make_sharedB8ue170006IN5Catch22CumulativeReporterBaseINS1_13JunitReporterEE11SectionNodeEJRNS1_12SectionStatsEEvEENS_10shared_ptrIT_EEDpOT0_, symObjAddr: 0xD9284, symBinAddr: 0x1000E4B3C, symSize: 0x40 }
  - { offsetInCU: 0xAB84C, offset: 0xC26CB, size: 0x8, addend: 0x0, symName: __ZNSt3__17find_ifB8ue170006INS_11__wrap_iterIPNS_10shared_ptrIN5Catch22CumulativeReporterBaseINS3_13JunitReporterEE11SectionNodeEEEEENS6_13BySectionInfoEEET_SC_SC_T0_, symObjAddr: 0xD9364, symBinAddr: 0x1000E4C1C, symSize: 0x7C }
  - { offsetInCU: 0xAB8A7, offset: 0xC2726, size: 0x8, addend: 0x0, symName: __ZNSt3__1eqB8ue170006IPNS_10shared_ptrIN5Catch22CumulativeReporterBaseINS2_13JunitReporterEE11SectionNodeEEEEEbRKNS_11__wrap_iterIT_EESD_, symObjAddr: 0xD9474, symBinAddr: 0x1000E4D2C, symSize: 0x48 }
  - { offsetInCU: 0xAB8E9, offset: 0xC2768, size: 0x8, addend: 0x0, symName: __ZNSt3__115allocate_sharedB8ue170006IN5Catch22CumulativeReporterBaseINS1_13JunitReporterEE11SectionNodeENS_9allocatorIS5_EEJRNS1_12SectionStatsEEvEENS_10shared_ptrIT_EERKT0_DpOT1_, symObjAddr: 0xD94D4, symBinAddr: 0x1000E4D8C, symSize: 0x98 }
  - { offsetInCU: 0xABC99, offset: 0xC2B18, size: 0x8, addend: 0x0, symName: __ZNSt3__1neB8ue170006IPNS_10shared_ptrIN5Catch22CumulativeReporterBaseINS2_13JunitReporterEE11SectionNodeEEEEEbRKNS_11__wrap_iterIT_EESD_, symObjAddr: 0xD9F90, symBinAddr: 0x1000E5848, symSize: 0x34 }
  - { offsetInCU: 0xABCDB, offset: 0xC2B5A, size: 0x8, addend: 0x0, symName: __ZNSt3__111make_sharedB8ue170006IN5Catch22CumulativeReporterBaseINS1_13JunitReporterEE4NodeINS1_12TestRunStatsENS5_INS1_14TestGroupStatsENS5_INS1_13TestCaseStatsENS4_11SectionNodeEEEEEEEJRKS6_EvEENS_10shared_ptrIT_EEDpOT0_, symObjAddr: 0xDA2F0, symBinAddr: 0x1000E5BA8, symSize: 0x40 }
  - { offsetInCU: 0xABD21, offset: 0xC2BA0, size: 0x8, addend: 0x0, symName: __ZNSt3__115allocate_sharedB8ue170006IN5Catch22CumulativeReporterBaseINS1_13JunitReporterEE4NodeINS1_12TestRunStatsENS5_INS1_14TestGroupStatsENS5_INS1_13TestCaseStatsENS4_11SectionNodeEEEEEEENS_9allocatorISC_EEJRKS6_EvEENS_10shared_ptrIT_EERKT0_DpOT1_, symObjAddr: 0xDA438, symBinAddr: 0x1000E5CF0, symSize: 0x98 }
  - { offsetInCU: 0xAC0D1, offset: 0xC2F50, size: 0x8, addend: 0x0, symName: __ZNSt3__116__swap_allocatorB8ue170006INS_9allocatorINS_10shared_ptrIN5Catch22CumulativeReporterBaseINS3_13JunitReporterEE4NodeINS3_14TestGroupStatsENS7_INS3_13TestCaseStatsENS6_11SectionNodeEEEEEEEEEEEvRT_SG_NS_17integral_constantIbLb0EEE, symObjAddr: 0xDAEFC, symBinAddr: 0x1000E67B4, symSize: 0x14 }
  - { offsetInCU: 0xAC113, offset: 0xC2F92, size: 0x8, addend: 0x0, symName: __ZNSt3__119__allocate_at_leastB8ue170006INS_9allocatorINS_10shared_ptrIN5Catch22CumulativeReporterBaseINS3_13JunitReporterEE4NodeINS3_12TestRunStatsENS7_INS3_14TestGroupStatsENS7_INS3_13TestCaseStatsENS6_11SectionNodeEEEEEEEEEEEEENS_19__allocation_resultINS_16allocator_traitsIT_E7pointerEEERSJ_m, symObjAddr: 0xDB704, symBinAddr: 0x1000E6FBC, symSize: 0x40 }
  - { offsetInCU: 0xAC155, offset: 0xC2FD4, size: 0x8, addend: 0x0, symName: __ZNSt3__142__uninitialized_allocator_move_if_noexceptB8ue170006INS_9allocatorINS_10shared_ptrIN5Catch22CumulativeReporterBaseINS3_13JunitReporterEE4NodeINS3_12TestRunStatsENS7_INS3_14TestGroupStatsENS7_INS3_13TestCaseStatsENS6_11SectionNodeEEEEEEEEEEENS_16reverse_iteratorIPSF_EESJ_SJ_EET2_RT_T0_T1_SK_, symObjAddr: 0xDB8B8, symBinAddr: 0x1000E7170, symSize: 0x12C }
  - { offsetInCU: 0xAC1F6, offset: 0xC3075, size: 0x8, addend: 0x0, symName: __ZNSt3__14swapB8ue170006IPNS_10shared_ptrIN5Catch22CumulativeReporterBaseINS2_13JunitReporterEE4NodeINS2_12TestRunStatsENS6_INS2_14TestGroupStatsENS6_INS2_13TestCaseStatsENS5_11SectionNodeEEEEEEEEEEENS_9enable_ifIXaasr21is_move_constructibleIT_EE5valuesr18is_move_assignableISH_EE5valueEvE4typeERSH_SK_, symObjAddr: 0xDBA30, symBinAddr: 0x1000E72E8, symSize: 0x3C }
  - { offsetInCU: 0xAC247, offset: 0xC30C6, size: 0x8, addend: 0x0, symName: __ZNSt3__122__make_exception_guardB8ue170006INS_29_AllocatorDestroyRangeReverseINS_9allocatorINS_10shared_ptrIN5Catch22CumulativeReporterBaseINS4_13JunitReporterEE4NodeINS4_12TestRunStatsENS8_INS4_14TestGroupStatsENS8_INS4_13TestCaseStatsENS7_11SectionNodeEEEEEEEEEEENS_16reverse_iteratorIPSG_EEEEEENS_28__exception_guard_exceptionsIT_EESN_, symObjAddr: 0xDBB18, symBinAddr: 0x1000E73D0, symSize: 0x4C }
  - { offsetInCU: 0xAC27D, offset: 0xC30FC, size: 0x8, addend: 0x0, symName: __ZNSt3__1neB8ue170006IPNS_10shared_ptrIN5Catch22CumulativeReporterBaseINS2_13JunitReporterEE4NodeINS2_12TestRunStatsENS6_INS2_14TestGroupStatsENS6_INS2_13TestCaseStatsENS5_11SectionNodeEEEEEEEEESF_EEbRKNS_16reverse_iteratorIT_EERKNSG_IT0_EE, symObjAddr: 0xDBBA8, symBinAddr: 0x1000E7460, symSize: 0x48 }
  - { offsetInCU: 0xAC2C9, offset: 0xC3148, size: 0x8, addend: 0x0, symName: __ZNSt3__112__to_addressB8ue170006INS_16reverse_iteratorIPNS_10shared_ptrIN5Catch22CumulativeReporterBaseINS3_13JunitReporterEE4NodeINS3_12TestRunStatsENS7_INS3_14TestGroupStatsENS7_INS3_13TestCaseStatsENS6_11SectionNodeEEEEEEEEEEEvEEu7__decayIDTclsr19__to_address_helperIT_EE6__callclsr3stdE7declvalIRKSI_EEEEESK_, symObjAddr: 0xDBC24, symBinAddr: 0x1000E74DC, symSize: 0x24 }
  - { offsetInCU: 0xAC329, offset: 0xC31A8, size: 0x8, addend: 0x0, symName: __ZNSt3__119__allocator_destroyB8ue170006INS_9allocatorINS_10shared_ptrIN5Catch22CumulativeReporterBaseINS3_13JunitReporterEE4NodeINS3_12TestRunStatsENS7_INS3_14TestGroupStatsENS7_INS3_13TestCaseStatsENS6_11SectionNodeEEEEEEEEEEENS_16reverse_iteratorINSH_IPSF_EEEESK_EEvRT_T0_T1_, symObjAddr: 0xDBF78, symBinAddr: 0x1000E7830, symSize: 0x70 }
  - { offsetInCU: 0xAC390, offset: 0xC320F, size: 0x8, addend: 0x0, symName: __ZNSt3__1neB8ue170006INS_16reverse_iteratorIPNS_10shared_ptrIN5Catch22CumulativeReporterBaseINS3_13JunitReporterEE4NodeINS3_12TestRunStatsENS7_INS3_14TestGroupStatsENS7_INS3_13TestCaseStatsENS6_11SectionNodeEEEEEEEEEEESH_EEbRKNS1_IT_EERKNS1_IT0_EE, symObjAddr: 0xDC024, symBinAddr: 0x1000E78DC, symSize: 0x60 }
  - { offsetInCU: 0xAC3DC, offset: 0xC325B, size: 0x8, addend: 0x0, symName: __ZNSt3__112__to_addressB8ue170006INS_16reverse_iteratorINS1_IPNS_10shared_ptrIN5Catch22CumulativeReporterBaseINS3_13JunitReporterEE4NodeINS3_12TestRunStatsENS7_INS3_14TestGroupStatsENS7_INS3_13TestCaseStatsENS6_11SectionNodeEEEEEEEEEEEEEvEEu7__decayIDTclsr19__to_address_helperIT_EE6__callclsr3stdE7declvalIRKSJ_EEEEESL_, symObjAddr: 0xDC084, symBinAddr: 0x1000E793C, symSize: 0x24 }
  - { offsetInCU: 0xAE012, offset: 0xC4E91, size: 0x8, addend: 0x0, symName: __ZSteqB8ue170006RKSt13exception_ptrS1_, symObjAddr: 0x7390, symBinAddr: 0x100013E78, symSize: 0x30 }
  - { offsetInCU: 0xAE04C, offset: 0xC4ECB, size: 0x8, addend: 0x0, symName: __ZSt28__throw_bad_array_new_lengthB8ue170006v, symObjAddr: 0x2D990, symBinAddr: 0x100039FDC, symSize: 0x34 }
  - { offsetInCU: 0xAF5D0, offset: 0xC644F, size: 0x8, addend: 0x0, symName: __ZN5Catch7SessionC2Ev, symObjAddr: 0x13898, symBinAddr: 0x1000200D0, symSize: 0x4D0 }
  - { offsetInCU: 0xAF5FA, offset: 0xC6479, size: 0x8, addend: 0x0, symName: __ZZN5Catch7SessionC1EvE19alreadyInstantiated, symObjAddr: 0x62BFC0, symBinAddr: 0x100108BC0, symSize: 0x0 }
  - { offsetInCU: 0xAF737, offset: 0xC65B6, size: 0x8, addend: 0x0, symName: __ZN12_GLOBAL__N_116marginComparisonEddd, symObjAddr: 0x424, symBinAddr: 0x10000D170, symSize: 0x68 }
  - { offsetInCU: 0xAF784, offset: 0xC6603, size: 0x8, addend: 0x0, symName: __ZN12_GLOBAL__N_111reportFatalEPKc, symObjAddr: 0x7744, symBinAddr: 0x10001422C, symSize: 0x80 }
  - { offsetInCU: 0xAF7AF, offset: 0xC662E, size: 0x8, addend: 0x0, symName: __ZN12_GLOBAL__N_115almostEqualUlpsIfEEbT_S1_i, symObjAddr: 0xC778, symBinAddr: 0x1000191F0, symSize: 0xFC }
  - { offsetInCU: 0xAF832, offset: 0xC66B1, size: 0x8, addend: 0x0, symName: __ZN12_GLOBAL__N_115almostEqualUlpsIdEEbT_S1_i, symObjAddr: 0xC874, symBinAddr: 0x1000192EC, symSize: 0xFC }
  - { offsetInCU: 0xAF8B6, offset: 0xC6735, size: 0x8, addend: 0x0, symName: __ZN12_GLOBAL__N_112passedStringEv, symObjAddr: 0x575FC, symBinAddr: 0x100063874, symSize: 0xC }
  - { offsetInCU: 0xAF8D5, offset: 0xC6754, size: 0x8, addend: 0x0, symName: __ZN12_GLOBAL__N_19dimColourEv, symObjAddr: 0x579F8, symBinAddr: 0x100063C70, symSize: 0x8 }
  - { offsetInCU: 0xAF8F4, offset: 0xC6773, size: 0x8, addend: 0x0, symName: __ZN12_GLOBAL__N_112failedStringEv, symObjAddr: 0x57A00, symBinAddr: 0x100063C78, symSize: 0xC }
  - { offsetInCU: 0xAF912, offset: 0xC6791, size: 0x8, addend: 0x0, symName: __ZN12_GLOBAL__N_19bothOrAllEm, symObjAddr: 0x57D2C, symBinAddr: 0x100063FA4, symSize: 0x78 }
  - { offsetInCU: 0xAF941, offset: 0xC67C0, size: 0x8, addend: 0x0, symName: __ZN12_GLOBAL__N_17convertIfEENS_9ConverterIT_EES2_, symObjAddr: 0x7A324, symBinAddr: 0x100085BF4, symSize: 0x2C }
  - { offsetInCU: 0xAF979, offset: 0xC67F8, size: 0x8, addend: 0x0, symName: __ZN12_GLOBAL__N_17convertIdEENS_9ConverterIT_EES2_, symObjAddr: 0x7A3A4, symBinAddr: 0x100085C74, symSize: 0x2C }
  - { offsetInCU: 0xAFA21, offset: 0xC68A0, size: 0x8, addend: 0x0, symName: __ZN5Catch16TestCaseTracking14TrackerContext8instanceEv, symObjAddr: 0x19DA8, symBinAddr: 0x100026574, symSize: 0x80 }
  - { offsetInCU: 0xAFA43, offset: 0xC68C2, size: 0x8, addend: 0x0, symName: __ZZN5Catch16TestCaseTracking14TrackerContext8instanceEvE10s_instance, symObjAddr: 0x62BFC8, symBinAddr: 0x100108BC8, symSize: 0x0 }
  - { offsetInCU: 0xB0FAD, offset: 0xC7E2C, size: 0x8, addend: 0x0, symName: _ring, symObjAddr: 0x634100, symBinAddr: 0x100110D00, symSize: 0x0 }
  - { offsetInCU: 0xB11AC, offset: 0xC802B, size: 0x8, addend: 0x0, symName: __ZN5Catch12_GLOBAL__N_115PosixColourImpl8instanceEv, symObjAddr: 0x3A4B4, symBinAddr: 0x1000468F4, symSize: 0x80 }
  - { offsetInCU: 0xB11CB, offset: 0xC804A, size: 0x8, addend: 0x0, symName: __ZZN5Catch12_GLOBAL__N_115PosixColourImpl8instanceEvE10s_instance, symObjAddr: 0xEC240, symBinAddr: 0x100108068, symSize: 0x0 }
  - { offsetInCU: 0xB11DC, offset: 0xC805B, size: 0x8, addend: 0x0, symName: __ZN5Catch12_GLOBAL__N_112NoColourImpl8instanceEv, symObjAddr: 0x3A534, symBinAddr: 0x100046974, symSize: 0x80 }
  - { offsetInCU: 0xB11FB, offset: 0xC807A, size: 0x8, addend: 0x0, symName: __ZZN5Catch12_GLOBAL__N_112NoColourImpl8instanceEvE10s_instance, symObjAddr: 0xEC248, symBinAddr: 0x100108070, symSize: 0x0 }
  - { offsetInCU: 0xB23E6, offset: 0xC9265, size: 0x8, addend: 0x0, symName: __ZN5Catch9SingletonINS_12_GLOBAL__N_111RegistryHubENS_12IRegistryHubENS_19IMutableRegistryHubEE11getInternalEv, symObjAddr: 0xA2F5C, symBinAddr: 0x1000AE814, symSize: 0xB8 }
  - { offsetInCU: 0xB2405, offset: 0xC9284, size: 0x8, addend: 0x0, symName: __ZZN5Catch9SingletonINS_12_GLOBAL__N_111RegistryHubENS_12IRegistryHubENS_19IMutableRegistryHubEE11getInternalEvE10s_instance, symObjAddr: 0x62C048, symBinAddr: 0x100108C48, symSize: 0x0 }
  - { offsetInCU: 0xB2795, offset: 0xC9614, size: 0x8, addend: 0x0, symName: __ZN5Catch9SingletonINS_13StringStreamsES1_S1_E11getInternalEv, symObjAddr: 0xAF01C, symBinAddr: 0x1000BA8D4, symSize: 0x90 }
  - { offsetInCU: 0xB27B4, offset: 0xC9633, size: 0x8, addend: 0x0, symName: __ZZN5Catch9SingletonINS_13StringStreamsES1_S1_E11getInternalEvE10s_instance, symObjAddr: 0xEC2B0, symBinAddr: 0x1001080D8, symSize: 0x0 }
  - { offsetInCU: 0xB3610, offset: 0xCA48F, size: 0x8, addend: 0x0, symName: __ZN5Catch5clara6detail4HelpC2ERb, symObjAddr: 0x311D8, symBinAddr: 0x10003D824, symSize: 0x1B4 }
  - { offsetInCU: 0xB372E, offset: 0xCA5AD, size: 0x8, addend: 0x0, symName: __ZNSt3__16vectorIN5Catch5clara6detail5TokenENS_9allocatorIS4_EEE26__swap_out_circular_bufferERNS_14__split_bufferIS4_RS6_EE, symObjAddr: 0x34680, symBinAddr: 0x100040CCC, symSize: 0x110 }
  - { offsetInCU: 0xB3BE3, offset: 0xCAA62, size: 0x8, addend: 0x0, symName: __ZNSt3__16vectorIN5Catch5clara8TextFlow6Column8iteratorENS_9allocatorIS5_EEE26__swap_out_circular_bufferERNS_14__split_bufferIS5_RS7_EE, symObjAddr: 0x3EC54, symBinAddr: 0x10004B05C, symSize: 0x110 }
  - { offsetInCU: 0xB3C79, offset: 0xCAAF8, size: 0x8, addend: 0x0, symName: __ZNSt3__16vectorIN5Catch5clara8TextFlow6ColumnENS_9allocatorIS4_EEE26__swap_out_circular_bufferERNS_14__split_bufferIS4_RS6_EE, symObjAddr: 0x42370, symBinAddr: 0x10004E72C, symSize: 0x110 }
  - { offsetInCU: 0xB3E42, offset: 0xCACC1, size: 0x8, addend: 0x0, symName: __ZNSt3__16vectorIN5Catch5clara6detail11HelpColumnsENS_9allocatorIS4_EEE26__swap_out_circular_bufferERNS_14__split_bufferIS4_RS6_EEPS4_, symObjAddr: 0x4A9A0, symBinAddr: 0x100056D28, symSize: 0x14C }
  - { offsetInCU: 0xB421B, offset: 0xCB09A, size: 0x8, addend: 0x0, symName: __ZNSt3__16vectorINS_10unique_ptrINS_19basic_ostringstreamIcNS_11char_traitsIcEENS_9allocatorIcEEEENS_14default_deleteIS7_EEEENS5_ISA_EEE26__swap_out_circular_bufferERNS_14__split_bufferISA_RSB_EE, symObjAddr: 0x54C2C, symBinAddr: 0x100060FB4, symSize: 0x110 }
  - { offsetInCU: 0xB42FC, offset: 0xCB17B, size: 0x8, addend: 0x0, symName: __ZNSt3__16vectorINS_12basic_stringIcNS_11char_traitsIcEENS_9allocatorIcEEEENS4_IS6_EEE26__swap_out_circular_bufferERNS_14__split_bufferIS6_RS7_EE, symObjAddr: 0x5E478, symBinAddr: 0x100069D7C, symSize: 0x110 }
  - { offsetInCU: 0xB43AB, offset: 0xCB22A, size: 0x8, addend: 0x0, symName: __ZNSt3__16vectorIN5Catch5clara6detail3OptENS_9allocatorIS4_EEE26__swap_out_circular_bufferERNS_14__split_bufferIS4_RS6_EE, symObjAddr: 0x60454, symBinAddr: 0x10006BD24, symSize: 0x110 }
  - { offsetInCU: 0xB4BDF, offset: 0xCBA5E, size: 0x8, addend: 0x0, symName: __ZNSt3__16vectorIN5Catch5clara6detail3ArgENS_9allocatorIS4_EEE26__swap_out_circular_bufferERNS_14__split_bufferIS4_RS6_EE, symObjAddr: 0x6DB50, symBinAddr: 0x100079420, symSize: 0x110 }
  - { offsetInCU: 0xB4C66, offset: 0xCBAE5, size: 0x8, addend: 0x0, symName: __ZNSt3__16vectorINS_10unique_ptrIKN5Catch20IExceptionTranslatorENS_14default_deleteIS4_EEEENS_9allocatorIS7_EEE26__swap_out_circular_bufferERNS_14__split_bufferIS7_RS9_EE, symObjAddr: 0x6FCB8, symBinAddr: 0x10007B588, symSize: 0x110 }
  - { offsetInCU: 0xB4CF7, offset: 0xCBB76, size: 0x8, addend: 0x0, symName: __ZNSt3__16vectorImNS_9allocatorImEEE26__swap_out_circular_bufferERNS_14__split_bufferImRS2_EE, symObjAddr: 0x70F10, symBinAddr: 0x10007C7E0, symSize: 0x110 }
  - { offsetInCU: 0xB4FBD, offset: 0xCBE3C, size: 0x8, addend: 0x0, symName: __ZNSt3__124uniform_int_distributionImEclINS_23mersenne_twister_engineIjLm32ELm624ELm397ELm31ELj2567483615ELm11ELj4294967295ELm7ELj2636928640ELm15ELj4022730752ELm18ELj1812433253EEEEEmRT_RKNS1_10param_typeE, symObjAddr: 0x72420, symBinAddr: 0x10007DCF0, symSize: 0x174 }
  - { offsetInCU: 0xB5187, offset: 0xCC006, size: 0x8, addend: 0x0, symName: __ZNSt3__16vectorIN5Catch11MessageInfoENS_9allocatorIS2_EEE26__swap_out_circular_bufferERNS_14__split_bufferIS2_RS4_EE, symObjAddr: 0x767D4, symBinAddr: 0x1000820A4, symSize: 0x110 }
  - { offsetInCU: 0xB5745, offset: 0xCC5C4, size: 0x8, addend: 0x0, symName: __ZNSt3__16vectorINS_7__stateIcEENS_9allocatorIS2_EEE26__swap_out_circular_bufferERNS_14__split_bufferIS2_RS4_EE, symObjAddr: 0x81744, symBinAddr: 0x10008D014, symSize: 0x110 }
  - { offsetInCU: 0xB57DB, offset: 0xCC65A, size: 0x8, addend: 0x0, symName: __ZNSt3__16vectorINS_9sub_matchIPKcEENS_9allocatorIS4_EEE26__swap_out_circular_bufferERNS_14__split_bufferIS4_RS6_EE, symObjAddr: 0x83328, symBinAddr: 0x10008EBF8, symSize: 0x110 }
  - { offsetInCU: 0xB586C, offset: 0xCC6EB, size: 0x8, addend: 0x0, symName: __ZNSt3__16vectorINS_4pairImPKcEENS_9allocatorIS4_EEE26__swap_out_circular_bufferERNS_14__split_bufferIS4_RS6_EE, symObjAddr: 0x8454C, symBinAddr: 0x10008FE1C, symSize: 0x110 }
  - { offsetInCU: 0xB5D85, offset: 0xCCC04, size: 0x8, addend: 0x0, symName: __ZNSt3__16vectorIcNS_9allocatorIcEEE26__swap_out_circular_bufferERNS_14__split_bufferIcRS2_EE, symObjAddr: 0x8CCB4, symBinAddr: 0x100098584, symSize: 0x110 }
  - { offsetInCU: 0xB5DDA, offset: 0xCCC59, size: 0x8, addend: 0x0, symName: __ZNSt3__16vectorINS_4pairINS_12basic_stringIcNS_11char_traitsIcEENS_9allocatorIcEEEES7_EENS5_IS8_EEE26__swap_out_circular_bufferERNS_14__split_bufferIS8_RS9_EE, symObjAddr: 0x915C4, symBinAddr: 0x10009CE94, symSize: 0x110 }
  - { offsetInCU: 0xB5E6B, offset: 0xCCCEA, size: 0x8, addend: 0x0, symName: __ZNSt3__16vectorINS_4pairIccEENS_9allocatorIS2_EEE26__swap_out_circular_bufferERNS_14__split_bufferIS2_RS4_EE, symObjAddr: 0x92AA4, symBinAddr: 0x10009E374, symSize: 0x110 }
  - { offsetInCU: 0xB6154, offset: 0xCCFD3, size: 0x8, addend: 0x0, symName: __ZNSt3__16vectorINS_9sub_matchINS_11__wrap_iterIPKcEEEENS_9allocatorIS6_EEE26__swap_out_circular_bufferERNS_14__split_bufferIS6_RS8_EE, symObjAddr: 0x9EB64, symBinAddr: 0x1000AA434, symSize: 0x110 }
  - { offsetInCU: 0xB6285, offset: 0xCD104, size: 0x8, addend: 0x0, symName: __ZNSt3__16vectorINS_10shared_ptrIN5Catch16IReporterFactoryEEENS_9allocatorIS4_EEE26__swap_out_circular_bufferERNS_14__split_bufferIS4_RS6_EE, symObjAddr: 0xA64EC, symBinAddr: 0x1000B1DA4, symSize: 0x110 }
  - { offsetInCU: 0xB6618, offset: 0xCD497, size: 0x8, addend: 0x0, symName: __ZNSt3__16vectorIPN5Catch16TestCaseTracking8ITrackerENS_9allocatorIS4_EEE26__swap_out_circular_bufferERNS_14__split_bufferIS4_RS6_EE, symObjAddr: 0xA8794, symBinAddr: 0x1000B404C, symSize: 0x110 }
  - { offsetInCU: 0xB666D, offset: 0xCD4EC, size: 0x8, addend: 0x0, symName: __ZNSt3__16vectorIN5Catch14SectionEndInfoENS_9allocatorIS2_EEE26__swap_out_circular_bufferERNS_14__split_bufferIS2_RS4_EE, symObjAddr: 0xA9D04, symBinAddr: 0x1000B55BC, symSize: 0x110 }
  - { offsetInCU: 0xB6796, offset: 0xCD615, size: 0x8, addend: 0x0, symName: __ZNSt3__16vectorIPN5Catch10ISingletonENS_9allocatorIS3_EEE26__swap_out_circular_bufferERNS_14__split_bufferIS3_RS5_EE, symObjAddr: 0xAC878, symBinAddr: 0x1000B8130, symSize: 0x110 }
  - { offsetInCU: 0xB67F0, offset: 0xCD66F, size: 0x8, addend: 0x0, symName: __ZNSt3__16vectorISt13exception_ptrNS_9allocatorIS1_EEE26__swap_out_circular_bufferERNS_14__split_bufferIS1_RS3_EE, symObjAddr: 0xAE048, symBinAddr: 0x1000B9900, symSize: 0x110 }
  - { offsetInCU: 0xB68FE, offset: 0xCD77D, size: 0x8, addend: 0x0, symName: __ZNSt3__124uniform_int_distributionIlEclINS_23mersenne_twister_engineIjLm32ELm624ELm397ELm31ELj2567483615ELm11ELj4294967295ELm7ELj2636928640ELm15ELj4022730752ELm18ELj1812433253EEEEElRT_RKNS1_10param_typeE, symObjAddr: 0xB9740, symBinAddr: 0x1000C4FF8, symSize: 0x174 }
  - { offsetInCU: 0xB6BEF, offset: 0xCDA6E, size: 0x8, addend: 0x0, symName: __ZNSt3__16vectorIN5Catch8TestCaseENS_9allocatorIS2_EEE26__swap_out_circular_bufferERNS_14__split_bufferIS2_RS4_EE, symObjAddr: 0xBAEE0, symBinAddr: 0x1000C6798, symSize: 0x110 }
  - { offsetInCU: 0xB6D0C, offset: 0xCDB8B, size: 0x8, addend: 0x0, symName: __ZNSt3__16vectorINS_10shared_ptrIN5Catch16TestCaseTracking8ITrackerEEENS_9allocatorIS5_EEE26__swap_out_circular_bufferERNS_14__split_bufferIS5_RS7_EE, symObjAddr: 0xBD3A8, symBinAddr: 0x1000C8C60, symSize: 0x110 }
  - { offsetInCU: 0xB6DC0, offset: 0xCDC3F, size: 0x8, addend: 0x0, symName: __ZNSt3__16vectorINS_12basic_stringIcNS_11char_traitsIcEENS_9allocatorIcEEEENS4_IS6_EEE26__swap_out_circular_bufferERNS_14__split_bufferIS6_RS7_EEPS6_, symObjAddr: 0xBF024, symBinAddr: 0x1000CA8DC, symSize: 0x14C }
  - { offsetInCU: 0xB7044, offset: 0xCDEC3, size: 0x8, addend: 0x0, symName: __ZNSt3__16vectorINS_10shared_ptrIN5Catch8TestSpec7PatternEEENS_9allocatorIS5_EEE26__swap_out_circular_bufferERNS_14__split_bufferIS5_RS7_EE, symObjAddr: 0xC23F8, symBinAddr: 0x1000CDCB0, symSize: 0x110 }
  - { offsetInCU: 0xB716D, offset: 0xCDFEC, size: 0x8, addend: 0x0, symName: __ZNSt3__16vectorIN5Catch8TestSpec6FilterENS_9allocatorIS3_EEE26__swap_out_circular_bufferERNS_14__split_bufferIS3_RS5_EE, symObjAddr: 0xC3D48, symBinAddr: 0x1000CF600, symSize: 0x110 }
  - { offsetInCU: 0xB74F1, offset: 0xCE370, size: 0x8, addend: 0x0, symName: __ZNSt3__16vectorIN5Catch11SectionInfoENS_9allocatorIS2_EEE26__swap_out_circular_bufferERNS_14__split_bufferIS2_RS4_EE, symObjAddr: 0xCA148, symBinAddr: 0x1000D5A00, symSize: 0x110 }
  - { offsetInCU: 0xB7587, offset: 0xCE406, size: 0x8, addend: 0x0, symName: __ZNSt3__16vectorIN5Catch13SummaryColumnENS_9allocatorIS2_EEE26__swap_out_circular_bufferERNS_14__split_bufferIS2_RS4_EE, symObjAddr: 0xCBF1C, symBinAddr: 0x1000D77D4, symSize: 0x110 }
  - { offsetInCU: 0xB774E, offset: 0xCE5CD, size: 0x8, addend: 0x0, symName: __ZNSt3__16vectorIN5Catch14AssertionStatsENS_9allocatorIS2_EEE26__swap_out_circular_bufferERNS_14__split_bufferIS2_RS4_EE, symObjAddr: 0xCEF24, symBinAddr: 0x1000DA7DC, symSize: 0x110 }
  - { offsetInCU: 0xB787E, offset: 0xCE6FD, size: 0x8, addend: 0x0, symName: __ZNSt3__16vectorINS_10shared_ptrIN5Catch22CumulativeReporterBaseINS2_13JunitReporterEE11SectionNodeEEENS_9allocatorIS7_EEE26__swap_out_circular_bufferERNS_14__split_bufferIS7_RS9_EE, symObjAddr: 0xD1060, symBinAddr: 0x1000DC918, symSize: 0x110 }
  - { offsetInCU: 0xB790F, offset: 0xCE78E, size: 0x8, addend: 0x0, symName: __ZNSt3__16vectorINS_10shared_ptrIN5Catch22CumulativeReporterBaseINS2_13JunitReporterEE4NodeINS2_13TestCaseStatsENS5_11SectionNodeEEEEENS_9allocatorISA_EEE26__swap_out_circular_bufferERNS_14__split_bufferISA_RSC_EE, symObjAddr: 0xD253C, symBinAddr: 0x1000DDDF4, symSize: 0x110 }
  - { offsetInCU: 0xB7A31, offset: 0xCE8B0, size: 0x8, addend: 0x0, symName: __ZNSt3__16vectorINS_10shared_ptrIN5Catch22CumulativeReporterBaseINS2_13JunitReporterEE4NodeINS2_14TestGroupStatsENS6_INS2_13TestCaseStatsENS5_11SectionNodeEEEEEEENS_9allocatorISC_EEE26__swap_out_circular_bufferERNS_14__split_bufferISC_RSE_EE, symObjAddr: 0xD46D0, symBinAddr: 0x1000DFF88, symSize: 0x110 }
  - { offsetInCU: 0xB7BF8, offset: 0xCEA77, size: 0x8, addend: 0x0, symName: __ZNSt3__16vectorINS_10unique_ptrIN5Catch18IStreamingReporterENS_14default_deleteIS3_EEEENS_9allocatorIS6_EEE26__swap_out_circular_bufferERNS_14__split_bufferIS6_RS8_EE, symObjAddr: 0xD6EFC, symBinAddr: 0x1000E27B4, symSize: 0x110 }
  - { offsetInCU: 0xB7F03, offset: 0xCED82, size: 0x8, addend: 0x0, symName: __ZNSt3__16vectorINS_10shared_ptrIN5Catch22CumulativeReporterBaseINS2_13JunitReporterEE4NodeINS2_12TestRunStatsENS6_INS2_14TestGroupStatsENS6_INS2_13TestCaseStatsENS5_11SectionNodeEEEEEEEEENS_9allocatorISE_EEE26__swap_out_circular_bufferERNS_14__split_bufferISE_RSG_EE, symObjAddr: 0xDB3A4, symBinAddr: 0x1000E6C5C, symSize: 0x110 }
  - { offsetInCU: 0xB85D9, offset: 0xCF458, size: 0x8, addend: 0x0, symName: __Z7isalnumi, symObjAddr: 0x566A4, symBinAddr: 0x100062A2C, symSize: 0x28 }
  - { offsetInCU: 0xB86AD, offset: 0xCF52C, size: 0x8, addend: 0x0, symName: __Z7isspacei, symObjAddr: 0x43E70, symBinAddr: 0x100050200, symSize: 0x28 }
  - { offsetInCU: 0xB8707, offset: 0xCF586, size: 0x8, addend: 0x0, symName: __Z7toloweri, symObjAddr: 0x56394, symBinAddr: 0x10006271C, symSize: 0x24 }
  - { offsetInCU: 0xB9E2C, offset: 0xD0CAB, size: 0x8, addend: 0x0, symName: __ZN5Catch6Detail6ApproxC2Ed, symObjAddr: 0x0, symBinAddr: 0x10000CD4C, symSize: 0x58 }
  - { offsetInCU: 0xB9E66, offset: 0xD0CE5, size: 0x8, addend: 0x0, symName: __ZNSt3__114numeric_limitsIfE7epsilonB8ue170006Ev, symObjAddr: 0x58, symBinAddr: 0x10000CDA4, symSize: 0x14 }
  - { offsetInCU: 0xB9E7A, offset: 0xD0CF9, size: 0x8, addend: 0x0, symName: __ZN5Catch6Detail6ApproxC1Ed, symObjAddr: 0x6C, symBinAddr: 0x10000CDB8, symSize: 0x34 }
  - { offsetInCU: 0xB9EB4, offset: 0xD0D33, size: 0x8, addend: 0x0, symName: __ZN5Catch6Detail6Approx6customEv, symObjAddr: 0xA0, symBinAddr: 0x10000CDEC, symSize: 0x38 }
  - { offsetInCU: 0xB9ECA, offset: 0xD0D49, size: 0x8, addend: 0x0, symName: __ZN5Catch6Detail6ApproxC1IivEERKT_, symObjAddr: 0xD8, symBinAddr: 0x10000CE24, symSize: 0x44 }
  - { offsetInCU: 0xB9F0C, offset: 0xD0D8B, size: 0x8, addend: 0x0, symName: __ZNK5Catch6Detail6ApproxngEv, symObjAddr: 0x11C, symBinAddr: 0x10000CE68, symSize: 0x40 }
  - { offsetInCU: 0xB9F41, offset: 0xD0DC0, size: 0x8, addend: 0x0, symName: __ZNK5Catch6Detail6Approx8toStringEv, symObjAddr: 0x15C, symBinAddr: 0x10000CEA8, symSize: 0xE8 }
  - { offsetInCU: 0xB9F85, offset: 0xD0E04, size: 0x8, addend: 0x0, symName: __ZN5Catch20ReusableStringStreamC1Ev, symObjAddr: 0x244, symBinAddr: 0x10000CF90, symSize: 0x2C }
  - { offsetInCU: 0xB9FCB, offset: 0xD0E4A, size: 0x8, addend: 0x0, symName: __ZN5Catch20ReusableStringStreamlsIA9_cEERS0_RKT_, symObjAddr: 0x270, symBinAddr: 0x10000CFBC, symSize: 0x38 }
  - { offsetInCU: 0xBA007, offset: 0xD0E86, size: 0x8, addend: 0x0, symName: __ZN5Catch20ReusableStringStreamlsINSt3__112basic_stringIcNS2_11char_traitsIcEENS2_9allocatorIcEEEEEERS0_RKT_, symObjAddr: 0x2A8, symBinAddr: 0x10000CFF4, symSize: 0x38 }
  - { offsetInCU: 0xBA059, offset: 0xD0ED8, size: 0x8, addend: 0x0, symName: __ZN5Catch20ReusableStringStreamlsIA3_cEERS0_RKT_, symObjAddr: 0x310, symBinAddr: 0x10000D05C, symSize: 0x38 }
  - { offsetInCU: 0xBA095, offset: 0xD0F14, size: 0x8, addend: 0x0, symName: __ZNK5Catch20ReusableStringStream3strEv, symObjAddr: 0x348, symBinAddr: 0x10000D094, symSize: 0x30 }
  - { offsetInCU: 0xBA0BB, offset: 0xD0F3A, size: 0x8, addend: 0x0, symName: __ZN5Catch20ReusableStringStreamD1Ev, symObjAddr: 0x378, symBinAddr: 0x10000D0C4, symSize: 0x2C }
  - { offsetInCU: 0xBA0E6, offset: 0xD0F65, size: 0x8, addend: 0x0, symName: __ZNK5Catch6Detail6Approx22equalityComparisonImplEd, symObjAddr: 0x3A4, symBinAddr: 0x10000D0F0, symSize: 0x80 }
  - { offsetInCU: 0xBA11B, offset: 0xD0F9A, size: 0x8, addend: 0x0, symName: __ZN5Catch6Detail6Approx9setMarginEd, symObjAddr: 0x48C, symBinAddr: 0x10000D1D8, symSize: 0x144 }
  - { offsetInCU: 0xBA166, offset: 0xD0FE5, size: 0x8, addend: 0x0, symName: __ZN5Catch20ReusableStringStreamlsIA25_cEERS0_RKT_, symObjAddr: 0x60C, symBinAddr: 0x10000D358, symSize: 0x38 }
  - { offsetInCU: 0xBA1AC, offset: 0xD102B, size: 0x8, addend: 0x0, symName: __ZN5Catch20ReusableStringStreamlsIdEERS0_RKT_, symObjAddr: 0x644, symBinAddr: 0x10000D390, symSize: 0x3C }
  - { offsetInCU: 0xBA1E8, offset: 0xD1067, size: 0x8, addend: 0x0, symName: __ZN5Catch20ReusableStringStreamlsIcEERS0_RKT_, symObjAddr: 0x680, symBinAddr: 0x10000D3CC, symSize: 0x3C }
  - { offsetInCU: 0xBA22E, offset: 0xD10AD, size: 0x8, addend: 0x0, symName: __ZN5Catch20ReusableStringStreamlsIA40_cEERS0_RKT_, symObjAddr: 0x6BC, symBinAddr: 0x10000D408, symSize: 0x38 }
  - { offsetInCU: 0xBA26A, offset: 0xD10E9, size: 0x8, addend: 0x0, symName: __ZNSt12domain_errorC1B8ue170006ERKNSt3__112basic_stringIcNS0_11char_traitsIcEENS0_9allocatorIcEEEE, symObjAddr: 0x6F4, symBinAddr: 0x10000D440, symSize: 0x34 }
  - { offsetInCU: 0xBA2A0, offset: 0xD111F, size: 0x8, addend: 0x0, symName: __ZN5Catch6Detail6Approx10setEpsilonEd, symObjAddr: 0x728, symBinAddr: 0x10000D474, symSize: 0x15C }
  - { offsetInCU: 0xBA2EB, offset: 0xD116A, size: 0x8, addend: 0x0, symName: __ZN5Catch20ReusableStringStreamlsIA26_cEERS0_RKT_, symObjAddr: 0x884, symBinAddr: 0x10000D5D0, symSize: 0x38 }
  - { offsetInCU: 0xBA33D, offset: 0xD11BC, size: 0x8, addend: 0x0, symName: __ZN5Catch20ReusableStringStreamlsIA37_cEERS0_RKT_, symObjAddr: 0x8BC, symBinAddr: 0x10000D608, symSize: 0x38 }
  - { offsetInCU: 0xBA383, offset: 0xD1202, size: 0x8, addend: 0x0, symName: __ZN5Catch6Detail6ApproxC1IevEERKT_, symObjAddr: 0x92C, symBinAddr: 0x10000D678, symSize: 0x38 }
  - { offsetInCU: 0xBA3CF, offset: 0xD124E, size: 0x8, addend: 0x0, symName: __ZN5Catch6Detail6ApproxC1IyvEERKT_, symObjAddr: 0x99C, symBinAddr: 0x10000D6E8, symSize: 0x3C }
  - { offsetInCU: 0xBA416, offset: 0xD1295, size: 0x8, addend: 0x0, symName: __ZN5Catch11StringMakerINS_6Detail6ApproxEvE7convertERKS2_, symObjAddr: 0x9D8, symBinAddr: 0x10000D724, symSize: 0x2C }
  - { offsetInCU: 0xBA43C, offset: 0xD12BB, size: 0x8, addend: 0x0, symName: __ZN5Catch14LazyExpressionC2Eb, symObjAddr: 0xA04, symBinAddr: 0x10000D750, symSize: 0x30 }
  - { offsetInCU: 0xBA476, offset: 0xD12F5, size: 0x8, addend: 0x0, symName: __ZN5Catch14LazyExpressionC1Eb, symObjAddr: 0xA34, symBinAddr: 0x10000D780, symSize: 0x40 }
  - { offsetInCU: 0xBA4B0, offset: 0xD132F, size: 0x8, addend: 0x0, symName: __ZN5Catch14LazyExpressionC2ERKS0_, symObjAddr: 0xA74, symBinAddr: 0x10000D7C0, symSize: 0x2C }
  - { offsetInCU: 0xBA4EA, offset: 0xD1369, size: 0x8, addend: 0x0, symName: __ZN5Catch14LazyExpressionC1ERKS0_, symObjAddr: 0xAA0, symBinAddr: 0x10000D7EC, symSize: 0x34 }
  - { offsetInCU: 0xBA524, offset: 0xD13A3, size: 0x8, addend: 0x0, symName: __ZNK5Catch14LazyExpressioncvbEv, symObjAddr: 0xAD4, symBinAddr: 0x10000D820, symSize: 0x24 }
  - { offsetInCU: 0xBA54A, offset: 0xD13C9, size: 0x8, addend: 0x0, symName: __ZNK5Catch20ITransientExpression18isBinaryExpressionEv, symObjAddr: 0xC14, symBinAddr: 0x10000D918, symSize: 0x1C }
  - { offsetInCU: 0xBA578, offset: 0xD13F7, size: 0x8, addend: 0x0, symName: __ZN5Catch16AssertionHandlerC2ERKNS_9StringRefERKNS_14SourceLineInfoES1_NS_17ResultDisposition5FlagsE, symObjAddr: 0xC68, symBinAddr: 0x10000D96C, symSize: 0xB4 }
  - { offsetInCU: 0xBA5E5, offset: 0xD1464, size: 0x8, addend: 0x0, symName: __ZN5Catch17AssertionReactionC1Ev, symObjAddr: 0xD50, symBinAddr: 0x10000DA20, symSize: 0x2C }
  - { offsetInCU: 0xBA616, offset: 0xD1495, size: 0x8, addend: 0x0, symName: __ZN5Catch16AssertionHandlerC1ERKNS_9StringRefERKNS_14SourceLineInfoES1_NS_17ResultDisposition5FlagsE, symObjAddr: 0xEDC, symBinAddr: 0x10000DB80, symSize: 0x4C }
  - { offsetInCU: 0xBA67E, offset: 0xD14FD, size: 0x8, addend: 0x0, symName: __ZN5Catch16AssertionHandler10handleExprERKNS_20ITransientExpressionE, symObjAddr: 0xF28, symBinAddr: 0x10000DBCC, symSize: 0x40 }
  - { offsetInCU: 0xBA6B3, offset: 0xD1532, size: 0x8, addend: 0x0, symName: __ZN5Catch16AssertionHandler13handleMessageENS_9ResultWas6OfTypeERKNS_9StringRefE, symObjAddr: 0xF68, symBinAddr: 0x10000DC0C, symSize: 0x48 }
  - { offsetInCU: 0xBA6F7, offset: 0xD1576, size: 0x8, addend: 0x0, symName: __ZNK5Catch16AssertionHandler11allowThrowsEv, symObjAddr: 0xFB0, symBinAddr: 0x10000DC54, symSize: 0x40 }
  - { offsetInCU: 0xBA71D, offset: 0xD159C, size: 0x8, addend: 0x0, symName: __ZNKSt3__110shared_ptrIKN5Catch7IConfigEEptB8ue170006Ev, symObjAddr: 0x1004, symBinAddr: 0x10000DCA8, symSize: 0x18 }
  - { offsetInCU: 0xBA741, offset: 0xD15C0, size: 0x8, addend: 0x0, symName: __ZN5Catch16AssertionHandler8completeEv, symObjAddr: 0x101C, symBinAddr: 0x10000DCC0, symSize: 0x78 }
  - { offsetInCU: 0xBA767, offset: 0xD15E6, size: 0x8, addend: 0x0, symName: __ZN5Catch16AssertionHandler12setCompletedEv, symObjAddr: 0x1094, symBinAddr: 0x10000DD38, symSize: 0x1C }
  - { offsetInCU: 0xBA78D, offset: 0xD160C, size: 0x8, addend: 0x0, symName: __ZN5Catch16AssertionHandler33handleUnexpectedInflightExceptionEv, symObjAddr: 0x11C8, symBinAddr: 0x10000DE6C, symSize: 0x84 }
  - { offsetInCU: 0xBA7B3, offset: 0xD1632, size: 0x8, addend: 0x0, symName: __ZN5Catch16AssertionHandler31handleExceptionThrownAsExpectedEv, symObjAddr: 0x128C, symBinAddr: 0x10000DF30, symSize: 0x3C }
  - { offsetInCU: 0xBA7D9, offset: 0xD1658, size: 0x8, addend: 0x0, symName: __ZN5Catch16AssertionHandler34handleExceptionNotThrownAsExpectedEv, symObjAddr: 0x12C8, symBinAddr: 0x10000DF6C, symSize: 0x3C }
  - { offsetInCU: 0xBA7FF, offset: 0xD167E, size: 0x8, addend: 0x0, symName: __ZN5Catch16AssertionHandler34handleUnexpectedExceptionNotThrownEv, symObjAddr: 0x1304, symBinAddr: 0x10000DFA8, symSize: 0x38 }
  - { offsetInCU: 0xBA825, offset: 0xD16A4, size: 0x8, addend: 0x0, symName: __ZN5Catch16AssertionHandler25handleThrowingCallSkippedEv, symObjAddr: 0x133C, symBinAddr: 0x10000DFE0, symSize: 0x3C }
  - { offsetInCU: 0xBA84B, offset: 0xD16CA, size: 0x8, addend: 0x0, symName: __ZN5Catch8Matchers9StdString13EqualsMatcherD1Ev, symObjAddr: 0x150C, symBinAddr: 0x10000E1B0, symSize: 0x2C }
  - { offsetInCU: 0xBA877, offset: 0xD16F6, size: 0x8, addend: 0x0, symName: __ZN5Catch19AssertionResultDataC2ENS_9ResultWas6OfTypeERKNS_14LazyExpressionE, symObjAddr: 0x1538, symBinAddr: 0x10000E1DC, symSize: 0x58 }
  - { offsetInCU: 0xBA8C0, offset: 0xD173F, size: 0x8, addend: 0x0, symName: __ZN5Catch19AssertionResultDataC1ENS_9ResultWas6OfTypeERKNS_14LazyExpressionE, symObjAddr: 0x15BC, symBinAddr: 0x10000E234, symSize: 0x3C }
  - { offsetInCU: 0xBA909, offset: 0xD1788, size: 0x8, addend: 0x0, symName: __ZNK5Catch19AssertionResultData21reconstructExpressionEv, symObjAddr: 0x15F8, symBinAddr: 0x10000E270, symSize: 0xDC }
  - { offsetInCU: 0xBA944, offset: 0xD17C3, size: 0x8, addend: 0x0, symName: __ZNKSt3__112basic_stringIcNS_11char_traitsIcEENS_9allocatorIcEEE5emptyB8ue170006Ev, symObjAddr: 0x16D4, symBinAddr: 0x10000E34C, symSize: 0x30 }
  - { offsetInCU: 0xBA968, offset: 0xD17E7, size: 0x8, addend: 0x0, symName: __ZN5Catch20ReusableStringStreamlsINS_14LazyExpressionEEERS0_RKT_, symObjAddr: 0x1704, symBinAddr: 0x10000E37C, symSize: 0x38 }
  - { offsetInCU: 0xBA9A4, offset: 0xD1823, size: 0x8, addend: 0x0, symName: __ZNSt3__112basic_stringIcNS_11char_traitsIcEENS_9allocatorIcEEEaSB8ue170006EOS5_, symObjAddr: 0x173C, symBinAddr: 0x10000E3B4, symSize: 0x34 }
  - { offsetInCU: 0xBA9D7, offset: 0xD1856, size: 0x8, addend: 0x0, symName: __ZN5Catch15AssertionResultC2ERKNS_13AssertionInfoERKNS_19AssertionResultDataE, symObjAddr: 0x1770, symBinAddr: 0x10000E3E8, symSize: 0x70 }
  - { offsetInCU: 0xBAA20, offset: 0xD189F, size: 0x8, addend: 0x0, symName: __ZN5Catch13AssertionInfoC1ERKS0_, symObjAddr: 0x17E0, symBinAddr: 0x10000E458, symSize: 0x34 }
  - { offsetInCU: 0xBAA55, offset: 0xD18D4, size: 0x8, addend: 0x0, symName: __ZN5Catch19AssertionResultDataC1ERKS0_, symObjAddr: 0x1814, symBinAddr: 0x10000E48C, symSize: 0x34 }
  - { offsetInCU: 0xBAA8A, offset: 0xD1909, size: 0x8, addend: 0x0, symName: __ZN5Catch15AssertionResultC1ERKNS_13AssertionInfoERKNS_19AssertionResultDataE, symObjAddr: 0x1848, symBinAddr: 0x10000E4C0, symSize: 0x3C }
  - { offsetInCU: 0xBAAD3, offset: 0xD1952, size: 0x8, addend: 0x0, symName: __ZNK5Catch15AssertionResult9succeededEv, symObjAddr: 0x1884, symBinAddr: 0x10000E4FC, symSize: 0x2C }
  - { offsetInCU: 0xBAAF9, offset: 0xD1978, size: 0x8, addend: 0x0, symName: __ZNK5Catch15AssertionResult4isOkEv, symObjAddr: 0x18D0, symBinAddr: 0x10000E548, symSize: 0x58 }
  - { offsetInCU: 0xBAB1F, offset: 0xD199E, size: 0x8, addend: 0x0, symName: __ZNK5Catch15AssertionResult13getResultTypeEv, symObjAddr: 0x1948, symBinAddr: 0x10000E5C0, symSize: 0x18 }
  - { offsetInCU: 0xBAB45, offset: 0xD19C4, size: 0x8, addend: 0x0, symName: __ZNK5Catch15AssertionResult13hasExpressionEv, symObjAddr: 0x1960, symBinAddr: 0x10000E5D8, symSize: 0x3C }
  - { offsetInCU: 0xBAB6B, offset: 0xD19EA, size: 0x8, addend: 0x0, symName: __ZNK5Catch9StringRefixEm, symObjAddr: 0x199C, symBinAddr: 0x10000E614, symSize: 0x24 }
  - { offsetInCU: 0xBABA0, offset: 0xD1A1F, size: 0x8, addend: 0x0, symName: __ZNK5Catch15AssertionResult10hasMessageEv, symObjAddr: 0x19C0, symBinAddr: 0x10000E638, symSize: 0x30 }
  - { offsetInCU: 0xBABC6, offset: 0xD1A45, size: 0x8, addend: 0x0, symName: __ZNK5Catch15AssertionResult13getExpressionEv, symObjAddr: 0x19F0, symBinAddr: 0x10000E668, symSize: 0xB0 }
  - { offsetInCU: 0xBABEC, offset: 0xD1A6B, size: 0x8, addend: 0x0, symName: __ZNK5Catch9StringRefcvNSt3__112basic_stringIcNS1_11char_traitsIcEENS1_9allocatorIcEEEEEv, symObjAddr: 0x1BA4, symBinAddr: 0x10000E81C, symSize: 0x40 }
  - { offsetInCU: 0xBAC12, offset: 0xD1A91, size: 0x8, addend: 0x0, symName: __ZNK5Catch15AssertionResult20getExpressionInMacroEv, symObjAddr: 0x1BE4, symBinAddr: 0x10000E85C, symSize: 0x16C }
  - { offsetInCU: 0xBAC48, offset: 0xD1AC7, size: 0x8, addend: 0x0, symName: __ZNK5Catch9StringRef4sizeEv, symObjAddr: 0x1D50, symBinAddr: 0x10000E9C8, symSize: 0x18 }
  - { offsetInCU: 0xBAC6C, offset: 0xD1AEB, size: 0x8, addend: 0x0, symName: __ZNSt3__112basic_stringIcNS_11char_traitsIcEENS_9allocatorIcEEEpLB8ue170006EPKc, symObjAddr: 0x1DB8, symBinAddr: 0x10000EA30, symSize: 0x2C }
  - { offsetInCU: 0xBAC9F, offset: 0xD1B1E, size: 0x8, addend: 0x0, symName: __ZNK5Catch15AssertionResult21hasExpandedExpressionEv, symObjAddr: 0x1DE4, symBinAddr: 0x10000EA5C, symSize: 0x120 }
  - { offsetInCU: 0xBACC5, offset: 0xD1B44, size: 0x8, addend: 0x0, symName: __ZNK5Catch15AssertionResult21getExpandedExpressionEv, symObjAddr: 0x1F38, symBinAddr: 0x10000EBB0, symSize: 0x9C }
  - { offsetInCU: 0xBACFA, offset: 0xD1B79, size: 0x8, addend: 0x0, symName: __ZNK5Catch15AssertionResult10getMessageEv, symObjAddr: 0x1FD4, symBinAddr: 0x10000EC4C, symSize: 0x3C }
  - { offsetInCU: 0xBAD20, offset: 0xD1B9F, size: 0x8, addend: 0x0, symName: __ZNK5Catch15AssertionResult13getSourceInfoEv, symObjAddr: 0x2010, symBinAddr: 0x10000EC88, symSize: 0x24 }
  - { offsetInCU: 0xBAD46, offset: 0xD1BC5, size: 0x8, addend: 0x0, symName: __ZNK5Catch15AssertionResult16getTestMacroNameEv, symObjAddr: 0x2034, symBinAddr: 0x10000ECAC, symSize: 0x38 }
  - { offsetInCU: 0xBAD71, offset: 0xD1BF0, size: 0x8, addend: 0x0, symName: __ZN5Catch15BenchmarkLooper13getResolutionEv, symObjAddr: 0x206C, symBinAddr: 0x10000ECE4, symSize: 0x54 }
  - { offsetInCU: 0xBAD87, offset: 0xD1C06, size: 0x8, addend: 0x0, symName: __ZN5Catch15BenchmarkLooper11reportStartEv, symObjAddr: 0x2168, symBinAddr: 0x10000EDE0, symSize: 0x7C }
  - { offsetInCU: 0xBADB2, offset: 0xD1C31, size: 0x8, addend: 0x0, symName: __ZN5Catch13BenchmarkInfoD1Ev, symObjAddr: 0x21E4, symBinAddr: 0x10000EE5C, symSize: 0x2C }
  - { offsetInCU: 0xBADDE, offset: 0xD1C5D, size: 0x8, addend: 0x0, symName: __ZN5Catch15BenchmarkLooper19needsMoreIterationsEv, symObjAddr: 0x2210, symBinAddr: 0x10000EE88, symSize: 0xFC }
  - { offsetInCU: 0xBAE13, offset: 0xD1C92, size: 0x8, addend: 0x0, symName: __ZNK5Catch5Timer21getElapsedNanosecondsEv, symObjAddr: 0x230C, symBinAddr: 0x10000EF84, symSize: 0x34 }
  - { offsetInCU: 0xBAE3E, offset: 0xD1CBD, size: 0x8, addend: 0x0, symName: __ZN5Catch14BenchmarkStatsD1Ev, symObjAddr: 0x2340, symBinAddr: 0x10000EFB8, symSize: 0x2C }
  - { offsetInCU: 0xBAE79, offset: 0xD1CF8, size: 0x8, addend: 0x0, symName: __ZN5Catch9MatchExprINSt3__112basic_stringIcNS1_11char_traitsIcEENS1_9allocatorIcEEEERKNS_8Matchers4Impl11MatcherBaseIS7_EEEC1ERKS7_SD_RKNS_9StringRefE, symObjAddr: 0x236C, symBinAddr: 0x10000EFE4, symSize: 0x44 }
  - { offsetInCU: 0xBAECE, offset: 0xD1D4D, size: 0x8, addend: 0x0, symName: __ZN5Catch9MatchExprINSt3__112basic_stringIcNS1_11char_traitsIcEENS1_9allocatorIcEEEERKNS_8Matchers4Impl11MatcherBaseIS7_EEED1Ev, symObjAddr: 0x23B0, symBinAddr: 0x10000F028, symSize: 0x2C }
  - { offsetInCU: 0xBAEFA, offset: 0xD1D79, size: 0x8, addend: 0x0, symName: __ZN5Catch5clara6detail7ExeNameC1ERNSt3__112basic_stringIcNS3_11char_traitsIcEENS3_9allocatorIcEEEE, symObjAddr: 0x4B9C, symBinAddr: 0x100011814, symSize: 0x98 }
  - { offsetInCU: 0xBAF45, offset: 0xD1DC4, size: 0x8, addend: 0x0, symName: __ZNK5Catch5clara6detail20ComposableParserImplINS1_7ExeNameEEorINS1_4HelpEEENS1_6ParserERKT_, symObjAddr: 0x4C34, symBinAddr: 0x1000118AC, symSize: 0xDC }
  - { offsetInCU: 0xBAF83, offset: 0xD1E02, size: 0x8, addend: 0x0, symName: __ZN5Catch5clara6detail4HelpC1ERb, symObjAddr: 0x4D10, symBinAddr: 0x100011988, symSize: 0x34 }
  - { offsetInCU: 0xBAFBA, offset: 0xD1E39, size: 0x8, addend: 0x0, symName: __ZNK5Catch5clara6detail6ParserorINS1_3OptEEES2_RKT_, symObjAddr: 0x4D44, symBinAddr: 0x1000119BC, symSize: 0x8C }
  - { offsetInCU: 0xBAFF6, offset: 0xD1E75, size: 0x8, addend: 0x0, symName: __ZN5Catch5clara6detail3OptC1ERb, symObjAddr: 0x4DD0, symBinAddr: 0x100011A48, symSize: 0x34 }
  - { offsetInCU: 0xBB02D, offset: 0xD1EAC, size: 0x8, addend: 0x0, symName: __ZN5Catch5clara6detail3OptixERKNSt3__112basic_stringIcNS3_11char_traitsIcEENS3_9allocatorIcEEEE, symObjAddr: 0x4E04, symBinAddr: 0x100011A7C, symSize: 0x38 }
  - { offsetInCU: 0xBB065, offset: 0xD1EE4, size: 0x8, addend: 0x0, symName: __ZN5Catch5clara6detail13ParserRefImplINS1_3OptEEclERKNSt3__112basic_stringIcNS5_11char_traitsIcEENS5_9allocatorIcEEEE, symObjAddr: 0x4E70, symBinAddr: 0x100011AB4, symSize: 0x38 }
  - { offsetInCU: 0xBB098, offset: 0xD1F17, size: 0x8, addend: 0x0, symName: __ZN5Catch5clara6detail3OptC1INSt3__112basic_stringIcNS4_11char_traitsIcEENS4_9allocatorIcEEEEEERT_RKSA_, symObjAddr: 0x4EA8, symBinAddr: 0x100011AEC, symSize: 0x3C }
  - { offsetInCU: 0xBB0E7, offset: 0xD1F66, size: 0x8, addend: 0x0, symName: '__ZN5Catch5clara6detail3OptC1IZNS_21makeCommandLineParserERNS_10ConfigDataEE3$_0EERKT_RKNSt3__112basic_stringIcNSA_11char_traitsIcEENSA_9allocatorIcEEEE', symObjAddr: 0x4EE4, symBinAddr: 0x100011B28, symSize: 0x3C }
  - { offsetInCU: 0xBB136, offset: 0xD1FB5, size: 0x8, addend: 0x0, symName: '__ZN5Catch5clara6detail3OptC1IZNS_21makeCommandLineParserERNS_10ConfigDataEE3$_1EERKT_', symObjAddr: 0x4F20, symBinAddr: 0x100011B64, symSize: 0x34 }
  - { offsetInCU: 0xBB176, offset: 0xD1FF5, size: 0x8, addend: 0x0, symName: '__ZN5Catch5clara6detail3OptC1IZNS_21makeCommandLineParserERNS_10ConfigDataEE3$_2EERKT_RKNSt3__112basic_stringIcNSA_11char_traitsIcEENSA_9allocatorIcEEEE', symObjAddr: 0x4F54, symBinAddr: 0x100011B98, symSize: 0x3C }
  - { offsetInCU: 0xBB1C5, offset: 0xD2044, size: 0x8, addend: 0x0, symName: '__ZN5Catch5clara6detail3OptC1IZNS_21makeCommandLineParserERNS_10ConfigDataEE3$_3EERKT_RKNSt3__112basic_stringIcNSA_11char_traitsIcEENSA_9allocatorIcEEEE', symObjAddr: 0x4F90, symBinAddr: 0x100011BD4, symSize: 0x3C }
  - { offsetInCU: 0xBB214, offset: 0xD2093, size: 0x8, addend: 0x0, symName: '__ZN5Catch5clara6detail3OptC1IZNS_21makeCommandLineParserERNS_10ConfigDataEE3$_4EERKT_RKNSt3__112basic_stringIcNSA_11char_traitsIcEENSA_9allocatorIcEEEE', symObjAddr: 0x4FCC, symBinAddr: 0x100011C10, symSize: 0x3C }
  - { offsetInCU: 0xBB263, offset: 0xD20E2, size: 0x8, addend: 0x0, symName: '__ZN5Catch5clara6detail3OptC1IZNS_21makeCommandLineParserERNS_10ConfigDataEE3$_5EERKT_RKNSt3__112basic_stringIcNSA_11char_traitsIcEENSA_9allocatorIcEEEE', symObjAddr: 0x5008, symBinAddr: 0x100011C4C, symSize: 0x3C }
  - { offsetInCU: 0xBB2B2, offset: 0xD2131, size: 0x8, addend: 0x0, symName: __ZN5Catch5clara6detail3OptC1INSt3__16vectorINS4_12basic_stringIcNS4_11char_traitsIcEENS4_9allocatorIcEEEENS9_ISB_EEEEEERT_RKSB_, symObjAddr: 0x5044, symBinAddr: 0x100011C88, symSize: 0x3C }
  - { offsetInCU: 0xBB301, offset: 0xD2180, size: 0x8, addend: 0x0, symName: '__ZN5Catch5clara6detail3OptC1IZNS_21makeCommandLineParserERNS_10ConfigDataEE3$_6EERKT_RKNSt3__112basic_stringIcNSA_11char_traitsIcEENSA_9allocatorIcEEEE', symObjAddr: 0x5080, symBinAddr: 0x100011CC4, symSize: 0x3C }
  - { offsetInCU: 0xBB350, offset: 0xD21CF, size: 0x8, addend: 0x0, symName: '__ZN5Catch5clara6detail3OptC1IZNS_21makeCommandLineParserERNS_10ConfigDataEE3$_7EERKT_RKNSt3__112basic_stringIcNSA_11char_traitsIcEENSA_9allocatorIcEEEE', symObjAddr: 0x50BC, symBinAddr: 0x100011D00, symSize: 0x3C }
  - { offsetInCU: 0xBB39F, offset: 0xD221E, size: 0x8, addend: 0x0, symName: '__ZN5Catch5clara6detail3OptC1IZNS_21makeCommandLineParserERNS_10ConfigDataEE3$_8EERKT_RKNSt3__112basic_stringIcNSA_11char_traitsIcEENSA_9allocatorIcEEEE', symObjAddr: 0x50F8, symBinAddr: 0x100011D3C, symSize: 0x3C }
  - { offsetInCU: 0xBB3EE, offset: 0xD226D, size: 0x8, addend: 0x0, symName: '__ZN5Catch5clara6detail3OptC1IZNS_21makeCommandLineParserERNS_10ConfigDataEE3$_9EERKT_RKNSt3__112basic_stringIcNSA_11char_traitsIcEENSA_9allocatorIcEEEE', symObjAddr: 0x5134, symBinAddr: 0x100011D78, symSize: 0x3C }
  - { offsetInCU: 0xBB43D, offset: 0xD22BC, size: 0x8, addend: 0x0, symName: '__ZN5Catch5clara6detail3OptC1IZNS_21makeCommandLineParserERNS_10ConfigDataEE4$_10EERKT_RKNSt3__112basic_stringIcNSA_11char_traitsIcEENSA_9allocatorIcEEEE', symObjAddr: 0x5170, symBinAddr: 0x100011DB4, symSize: 0x3C }
  - { offsetInCU: 0xBB48C, offset: 0xD230B, size: 0x8, addend: 0x0, symName: __ZN5Catch5clara6detail3OptC1IiEERT_RKNSt3__112basic_stringIcNS6_11char_traitsIcEENS6_9allocatorIcEEEE, symObjAddr: 0x51AC, symBinAddr: 0x100011DF0, symSize: 0x3C }
  - { offsetInCU: 0xBB4DB, offset: 0xD235A, size: 0x8, addend: 0x0, symName: __ZNK5Catch5clara6detail6ParserorINS1_3ArgEEES2_RKT_, symObjAddr: 0x51E8, symBinAddr: 0x100011E2C, symSize: 0x8C }
  - { offsetInCU: 0xBB51C, offset: 0xD239B, size: 0x8, addend: 0x0, symName: __ZN5Catch5clara6detail3ArgCI1NS1_13ParserRefImplIS2_EEINSt3__16vectorINS4_12basic_stringIcNS4_11char_traitsIcEENS4_9allocatorIcEEEENS9_ISB_EEEEEERT_RKSB_, symObjAddr: 0x5274, symBinAddr: 0x100011EB8, symSize: 0x3C }
  - { offsetInCU: 0xBB55A, offset: 0xD23D9, size: 0x8, addend: 0x0, symName: __ZN5Catch5clara6detail13ParserRefImplINS1_3ArgEEclERKNSt3__112basic_stringIcNS5_11char_traitsIcEENS5_9allocatorIcEEEE, symObjAddr: 0x52B0, symBinAddr: 0x100011EF4, symSize: 0x38 }
  - { offsetInCU: 0xBB58D, offset: 0xD240C, size: 0x8, addend: 0x0, symName: __ZN5Catch5clara6detail3ArgD1Ev, symObjAddr: 0x52E8, symBinAddr: 0x100011F2C, symSize: 0x2C }
  - { offsetInCU: 0xBB5B9, offset: 0xD2438, size: 0x8, addend: 0x0, symName: __ZN5Catch5clara6detail6ParserD1Ev, symObjAddr: 0x5314, symBinAddr: 0x100011F58, symSize: 0x2C }
  - { offsetInCU: 0xBB5E5, offset: 0xD2464, size: 0x8, addend: 0x0, symName: __ZN5Catch5clara6detail3OptD1Ev, symObjAddr: 0x5340, symBinAddr: 0x100011F84, symSize: 0x2C }
  - { offsetInCU: 0xBB611, offset: 0xD2490, size: 0x8, addend: 0x0, symName: __ZN5Catch5clara6detail4HelpD1Ev, symObjAddr: 0x536C, symBinAddr: 0x100011FB0, symSize: 0x2C }
  - { offsetInCU: 0xBB63D, offset: 0xD24BC, size: 0x8, addend: 0x0, symName: __ZN5Catch5clara6detail7ExeNameD1Ev, symObjAddr: 0x5398, symBinAddr: 0x100011FDC, symSize: 0x2C }
  - { offsetInCU: 0xBB669, offset: 0xD24E8, size: 0x8, addend: 0x0, symName: __ZNK5Catch14SourceLineInfo5emptyEv, symObjAddr: 0x53C4, symBinAddr: 0x100012008, symSize: 0x28 }
  - { offsetInCU: 0xBB68F, offset: 0xD250E, size: 0x8, addend: 0x0, symName: __ZNK5Catch14SourceLineInfoeqERKS0_, symObjAddr: 0x53EC, symBinAddr: 0x100012030, symSize: 0xBC }
  - { offsetInCU: 0xBB6C4, offset: 0xD2543, size: 0x8, addend: 0x0, symName: __ZNK5Catch14SourceLineInfoltERKS0_, symObjAddr: 0x54B4, symBinAddr: 0x1000120EC, symSize: 0xE4 }
  - { offsetInCU: 0xBB703, offset: 0xD2582, size: 0x8, addend: 0x0, symName: __ZNK5Catch13StreamEndStoppsEv, symObjAddr: 0x5614, symBinAddr: 0x10001224C, symSize: 0x34 }
  - { offsetInCU: 0xBB729, offset: 0xD25A8, size: 0x8, addend: 0x0, symName: __ZN5Catch11NonCopyableC2Ev, symObjAddr: 0x5648, symBinAddr: 0x100012280, symSize: 0x24 }
  - { offsetInCU: 0xBB754, offset: 0xD25D3, size: 0x8, addend: 0x0, symName: __ZN5Catch11NonCopyableC1Ev, symObjAddr: 0x566C, symBinAddr: 0x1000122A4, symSize: 0x2C }
  - { offsetInCU: 0xBB77F, offset: 0xD25FE, size: 0x8, addend: 0x0, symName: __ZN5Catch11NonCopyableD2Ev, symObjAddr: 0x5698, symBinAddr: 0x1000122D0, symSize: 0x14 }
  - { offsetInCU: 0xBB7AA, offset: 0xD2629, size: 0x8, addend: 0x0, symName: __ZN5Catch11NonCopyableD1Ev, symObjAddr: 0x56AC, symBinAddr: 0x1000122E4, symSize: 0x2C }
  - { offsetInCU: 0xBB7D5, offset: 0xD2654, size: 0x8, addend: 0x0, symName: __ZN5Catch11NonCopyableD0Ev, symObjAddr: 0x56D8, symBinAddr: 0x100012310, symSize: 0x30 }
  - { offsetInCU: 0xBB800, offset: 0xD267F, size: 0x8, addend: 0x0, symName: __ZN5Catch6ConfigC2ERKNS_10ConfigDataE, symObjAddr: 0x5708, symBinAddr: 0x100012340, symSize: 0x250 }
  - { offsetInCU: 0xBB8A6, offset: 0xD2725, size: 0x8, addend: 0x0, symName: __ZN5Catch7IConfigC2Ev, symObjAddr: 0x5958, symBinAddr: 0x100012590, symSize: 0x44 }
  - { offsetInCU: 0xBB8D7, offset: 0xD2756, size: 0x8, addend: 0x0, symName: __ZN5Catch10ConfigDataC1ERKS0_, symObjAddr: 0x599C, symBinAddr: 0x1000125D4, symSize: 0x34 }
  - { offsetInCU: 0xBB90C, offset: 0xD278B, size: 0x8, addend: 0x0, symName: __ZN5Catch6Config10openStreamEv, symObjAddr: 0x59D0, symBinAddr: 0x100012608, symSize: 0x6C }
  - { offsetInCU: 0xBB932, offset: 0xD27B1, size: 0x8, addend: 0x0, symName: __ZNSt3__110unique_ptrIKN5Catch7IStreamENS_14default_deleteIS3_EEEC1B8ue170006ILb1EvEEPS3_, symObjAddr: 0x5A3C, symBinAddr: 0x100012674, symSize: 0x34 }
  - { offsetInCU: 0xBB979, offset: 0xD27F8, size: 0x8, addend: 0x0, symName: __ZN5Catch8TestSpecC1Ev, symObjAddr: 0x5A70, symBinAddr: 0x1000126A8, symSize: 0x2C }
  - { offsetInCU: 0xBB9A5, offset: 0xD2824, size: 0x8, addend: 0x0, symName: __ZN5Catch17ITagAliasRegistry3getEv, symObjAddr: 0x5A9C, symBinAddr: 0x1000126D4, symSize: 0x20 }
  - { offsetInCU: 0xBB9BB, offset: 0xD283A, size: 0x8, addend: 0x0, symName: __ZN5Catch14TestSpecParserC1ERKNS_17ITagAliasRegistryE, symObjAddr: 0x5ABC, symBinAddr: 0x1000126F4, symSize: 0x34 }
  - { offsetInCU: 0xBB9F5, offset: 0xD2874, size: 0x8, addend: 0x0, symName: __ZNKSt3__16vectorINS_12basic_stringIcNS_11char_traitsIcEENS_9allocatorIcEEEENS4_IS6_EEE5emptyB8ue170006Ev, symObjAddr: 0x5AF0, symBinAddr: 0x100012728, symSize: 0x28 }
  - { offsetInCU: 0xBBA19, offset: 0xD2898, size: 0x8, addend: 0x0, symName: __ZN5Catch14TestSpecParser5parseERKNSt3__112basic_stringIcNS1_11char_traitsIcEENS1_9allocatorIcEEEE, symObjAddr: 0x5B18, symBinAddr: 0x100012750, symSize: 0x10C }
  - { offsetInCU: 0xBBA4E, offset: 0xD28CD, size: 0x8, addend: 0x0, symName: __ZNKSt3__16vectorINS_12basic_stringIcNS_11char_traitsIcEENS_9allocatorIcEEEENS4_IS6_EEE5beginB8ue170006Ev, symObjAddr: 0x5C24, symBinAddr: 0x10001285C, symSize: 0x30 }
  - { offsetInCU: 0xBBA74, offset: 0xD28F3, size: 0x8, addend: 0x0, symName: __ZNKSt3__16vectorINS_12basic_stringIcNS_11char_traitsIcEENS_9allocatorIcEEEENS4_IS6_EEE3endB8ue170006Ev, symObjAddr: 0x5C54, symBinAddr: 0x10001288C, symSize: 0x30 }
  - { offsetInCU: 0xBBA9A, offset: 0xD2919, size: 0x8, addend: 0x0, symName: __ZNKSt3__111__wrap_iterIPKNS_12basic_stringIcNS_11char_traitsIcEENS_9allocatorIcEEEEEdeB8ue170006Ev, symObjAddr: 0x5CB8, symBinAddr: 0x1000128F0, symSize: 0x18 }
  - { offsetInCU: 0xBBABE, offset: 0xD293D, size: 0x8, addend: 0x0, symName: __ZNSt3__111__wrap_iterIPKNS_12basic_stringIcNS_11char_traitsIcEENS_9allocatorIcEEEEEppB8ue170006Ev, symObjAddr: 0x5CD0, symBinAddr: 0x100012908, symSize: 0x20 }
  - { offsetInCU: 0xBBAE2, offset: 0xD2961, size: 0x8, addend: 0x0, symName: __ZN5Catch14TestSpecParser8testSpecEv, symObjAddr: 0x5CF0, symBinAddr: 0x100012928, symSize: 0x40 }
  - { offsetInCU: 0xBBB12, offset: 0xD2991, size: 0x8, addend: 0x0, symName: __ZN5Catch8TestSpecaSEOS0_, symObjAddr: 0x5D30, symBinAddr: 0x100012968, symSize: 0x34 }
  - { offsetInCU: 0xBBB43, offset: 0xD29C2, size: 0x8, addend: 0x0, symName: __ZN5Catch8TestSpecD1Ev, symObjAddr: 0x5D64, symBinAddr: 0x10001299C, symSize: 0x2C }
  - { offsetInCU: 0xBBB6F, offset: 0xD29EE, size: 0x8, addend: 0x0, symName: __ZN5Catch14TestSpecParserD1Ev, symObjAddr: 0x5D90, symBinAddr: 0x1000129C8, symSize: 0x2C }
  - { offsetInCU: 0xBBB9B, offset: 0xD2A1A, size: 0x8, addend: 0x0, symName: __ZNSt3__110unique_ptrIKN5Catch7IStreamENS_14default_deleteIS3_EEED1B8ue170006Ev, symObjAddr: 0x5DBC, symBinAddr: 0x1000129F4, symSize: 0x2C }
  - { offsetInCU: 0xBBBC3, offset: 0xD2A42, size: 0x8, addend: 0x0, symName: __ZN5Catch10ConfigDataD1Ev, symObjAddr: 0x5DE8, symBinAddr: 0x100012A20, symSize: 0x2C }
  - { offsetInCU: 0xBBBEF, offset: 0xD2A6E, size: 0x8, addend: 0x0, symName: __ZN5Catch7IConfigD2Ev, symObjAddr: 0x5E14, symBinAddr: 0x100012A4C, symSize: 0x2C }
  - { offsetInCU: 0xBBC1A, offset: 0xD2A99, size: 0x8, addend: 0x0, symName: __ZN5Catch6ConfigC1ERKNS_10ConfigDataE, symObjAddr: 0x5E40, symBinAddr: 0x100012A78, symSize: 0x34 }
  - { offsetInCU: 0xBBC54, offset: 0xD2AD3, size: 0x8, addend: 0x0, symName: __ZNK5Catch6Config11getFilenameEv, symObjAddr: 0x5E74, symBinAddr: 0x100012AAC, symSize: 0x18 }
  - { offsetInCU: 0xBBC7A, offset: 0xD2AF9, size: 0x8, addend: 0x0, symName: __ZNK5Catch6Config9listTestsEv, symObjAddr: 0x5E8C, symBinAddr: 0x100012AC4, symSize: 0x1C }
  - { offsetInCU: 0xBBCA0, offset: 0xD2B1F, size: 0x8, addend: 0x0, symName: __ZNK5Catch6Config17listTestNamesOnlyEv, symObjAddr: 0x5EA8, symBinAddr: 0x100012AE0, symSize: 0x1C }
  - { offsetInCU: 0xBBCC6, offset: 0xD2B45, size: 0x8, addend: 0x0, symName: __ZNK5Catch6Config8listTagsEv, symObjAddr: 0x5EC4, symBinAddr: 0x100012AFC, symSize: 0x1C }
  - { offsetInCU: 0xBBCEC, offset: 0xD2B6B, size: 0x8, addend: 0x0, symName: __ZNK5Catch6Config13listReportersEv, symObjAddr: 0x5EE0, symBinAddr: 0x100012B18, symSize: 0x1C }
  - { offsetInCU: 0xBBD12, offset: 0xD2B91, size: 0x8, addend: 0x0, symName: __ZNK5Catch6Config14getProcessNameEv, symObjAddr: 0x5EFC, symBinAddr: 0x100012B34, symSize: 0x3C }
  - { offsetInCU: 0xBBD38, offset: 0xD2BB7, size: 0x8, addend: 0x0, symName: __ZNK5Catch6Config15getReporterNameEv, symObjAddr: 0x5F38, symBinAddr: 0x100012B70, symSize: 0x18 }
  - { offsetInCU: 0xBBD5E, offset: 0xD2BDD, size: 0x8, addend: 0x0, symName: __ZNK5Catch6Config14getTestsOrTagsEv, symObjAddr: 0x5F50, symBinAddr: 0x100012B88, symSize: 0x18 }
  - { offsetInCU: 0xBBD84, offset: 0xD2C03, size: 0x8, addend: 0x0, symName: __ZNK5Catch6Config16getSectionsToRunEv, symObjAddr: 0x5F68, symBinAddr: 0x100012BA0, symSize: 0x18 }
  - { offsetInCU: 0xBBDAA, offset: 0xD2C29, size: 0x8, addend: 0x0, symName: __ZNK5Catch6Config8testSpecEv, symObjAddr: 0x5F80, symBinAddr: 0x100012BB8, symSize: 0x18 }
  - { offsetInCU: 0xBBDD0, offset: 0xD2C4F, size: 0x8, addend: 0x0, symName: __ZNK5Catch6Config14hasTestFiltersEv, symObjAddr: 0x5F98, symBinAddr: 0x100012BD0, symSize: 0x1C }
  - { offsetInCU: 0xBBDF6, offset: 0xD2C75, size: 0x8, addend: 0x0, symName: __ZNK5Catch6Config8showHelpEv, symObjAddr: 0x5FB4, symBinAddr: 0x100012BEC, symSize: 0x1C }
  - { offsetInCU: 0xBBE1C, offset: 0xD2C9B, size: 0x8, addend: 0x0, symName: __ZNK5Catch6Config11allowThrowsEv, symObjAddr: 0x5FD0, symBinAddr: 0x100012C08, symSize: 0x20 }
  - { offsetInCU: 0xBBE42, offset: 0xD2CC1, size: 0x8, addend: 0x0, symName: __ZNK5Catch6Config6streamEv, symObjAddr: 0x5FF0, symBinAddr: 0x100012C28, symSize: 0x34 }
  - { offsetInCU: 0xBBE68, offset: 0xD2CE7, size: 0x8, addend: 0x0, symName: __ZNKSt3__110unique_ptrIKN5Catch7IStreamENS_14default_deleteIS3_EEEptB8ue170006Ev, symObjAddr: 0x6024, symBinAddr: 0x100012C5C, symSize: 0x28 }
  - { offsetInCU: 0xBBE8C, offset: 0xD2D0B, size: 0x8, addend: 0x0, symName: __ZNK5Catch6Config4nameEv, symObjAddr: 0x604C, symBinAddr: 0x100012C84, symSize: 0x68 }
  - { offsetInCU: 0xBBEB2, offset: 0xD2D31, size: 0x8, addend: 0x0, symName: __ZNK5Catch6Config24includeSuccessfulResultsEv, symObjAddr: 0x60B4, symBinAddr: 0x100012CEC, symSize: 0x1C }
  - { offsetInCU: 0xBBED8, offset: 0xD2D57, size: 0x8, addend: 0x0, symName: __ZNK5Catch6Config26warnAboutMissingAssertionsEv, symObjAddr: 0x60D0, symBinAddr: 0x100012D08, symSize: 0x24 }
  - { offsetInCU: 0xBBEFE, offset: 0xD2D7D, size: 0x8, addend: 0x0, symName: __ZNK5Catch6Config16warnAboutNoTestsEv, symObjAddr: 0x60F4, symBinAddr: 0x100012D2C, symSize: 0x24 }
  - { offsetInCU: 0xBBF24, offset: 0xD2DA3, size: 0x8, addend: 0x0, symName: __ZNK5Catch6Config13showDurationsEv, symObjAddr: 0x6118, symBinAddr: 0x100012D50, symSize: 0x18 }
  - { offsetInCU: 0xBBF4A, offset: 0xD2DC9, size: 0x8, addend: 0x0, symName: __ZNK5Catch6Config8runOrderEv, symObjAddr: 0x6130, symBinAddr: 0x100012D68, symSize: 0x18 }
  - { offsetInCU: 0xBBF70, offset: 0xD2DEF, size: 0x8, addend: 0x0, symName: __ZNK5Catch6Config7rngSeedEv, symObjAddr: 0x6148, symBinAddr: 0x100012D80, symSize: 0x18 }
  - { offsetInCU: 0xBBF96, offset: 0xD2E15, size: 0x8, addend: 0x0, symName: __ZNK5Catch6Config27benchmarkResolutionMultipleEv, symObjAddr: 0x6160, symBinAddr: 0x100012D98, symSize: 0x18 }
  - { offsetInCU: 0xBBFBC, offset: 0xD2E3B, size: 0x8, addend: 0x0, symName: __ZNK5Catch6Config9useColourEv, symObjAddr: 0x6178, symBinAddr: 0x100012DB0, symSize: 0x18 }
  - { offsetInCU: 0xBBFE2, offset: 0xD2E61, size: 0x8, addend: 0x0, symName: __ZNK5Catch6Config16shouldDebugBreakEv, symObjAddr: 0x6190, symBinAddr: 0x100012DC8, symSize: 0x1C }
  - { offsetInCU: 0xBC008, offset: 0xD2E87, size: 0x8, addend: 0x0, symName: __ZNK5Catch6Config10abortAfterEv, symObjAddr: 0x61AC, symBinAddr: 0x100012DE4, symSize: 0x18 }
  - { offsetInCU: 0xBC02E, offset: 0xD2EAD, size: 0x8, addend: 0x0, symName: __ZNK5Catch6Config14showInvisiblesEv, symObjAddr: 0x61C4, symBinAddr: 0x100012DFC, symSize: 0x1C }
  - { offsetInCU: 0xBC054, offset: 0xD2ED3, size: 0x8, addend: 0x0, symName: __ZNK5Catch6Config9verbosityEv, symObjAddr: 0x61E0, symBinAddr: 0x100012E18, symSize: 0x18 }
  - { offsetInCU: 0xBC07A, offset: 0xD2EF9, size: 0x8, addend: 0x0, symName: __ZN5Catch9StringRefC1ERKNSt3__112basic_stringIcNS1_11char_traitsIcEENS1_9allocatorIcEEEE, symObjAddr: 0x648C, symBinAddr: 0x1000130C4, symSize: 0x34 }
  - { offsetInCU: 0xBC0B1, offset: 0xD2F30, size: 0x8, addend: 0x0, symName: __ZN5Catch6ColourC2ENS0_4CodeE, symObjAddr: 0x64EC, symBinAddr: 0x1000130F8, symSize: 0x38 }
  - { offsetInCU: 0xBC0EB, offset: 0xD2F6A, size: 0x8, addend: 0x0, symName: __ZN5Catch6ColourC1ENS0_4CodeE, symObjAddr: 0x65E0, symBinAddr: 0x1000131EC, symSize: 0x34 }
  - { offsetInCU: 0xBC125, offset: 0xD2FA4, size: 0x8, addend: 0x0, symName: __ZN5Catch6ColourC2EOS0_, symObjAddr: 0x6614, symBinAddr: 0x100013220, symSize: 0x38 }
  - { offsetInCU: 0xBC15F, offset: 0xD2FDE, size: 0x8, addend: 0x0, symName: __ZN5Catch6ColourC1EOS0_, symObjAddr: 0x664C, symBinAddr: 0x100013258, symSize: 0x34 }
  - { offsetInCU: 0xBC199, offset: 0xD3018, size: 0x8, addend: 0x0, symName: __ZN5Catch6ColouraSEOS0_, symObjAddr: 0x6680, symBinAddr: 0x10001328C, symSize: 0x34 }
  - { offsetInCU: 0xBC1CE, offset: 0xD304D, size: 0x8, addend: 0x0, symName: __ZN5Catch6ColourD2Ev, symObjAddr: 0x66B4, symBinAddr: 0x1000132C0, symSize: 0x4C }
  - { offsetInCU: 0xBC1F9, offset: 0xD3078, size: 0x8, addend: 0x0, symName: __ZN5Catch6ColourD1Ev, symObjAddr: 0x6700, symBinAddr: 0x10001330C, symSize: 0x2C }
  - { offsetInCU: 0xBC224, offset: 0xD30A3, size: 0x8, addend: 0x0, symName: __ZN5Catch15IMutableContext13createContextEv, symObjAddr: 0x68BC, symBinAddr: 0x1000134C8, symSize: 0x70 }
  - { offsetInCU: 0xBC249, offset: 0xD30C8, size: 0x8, addend: 0x0, symName: __ZN5Catch7ContextC1Ev, symObjAddr: 0x692C, symBinAddr: 0x100013538, symSize: 0x2C }
  - { offsetInCU: 0xBC275, offset: 0xD30F4, size: 0x8, addend: 0x0, symName: __ZN5Catch8IContextD2Ev, symObjAddr: 0x69A8, symBinAddr: 0x1000135B4, symSize: 0x14 }
  - { offsetInCU: 0xBC2A0, offset: 0xD311F, size: 0x8, addend: 0x0, symName: __ZN5Catch8IContextD1Ev, symObjAddr: 0x69BC, symBinAddr: 0x1000135C8, symSize: 0x14 }
  - { offsetInCU: 0xBC2CB, offset: 0xD314A, size: 0x8, addend: 0x0, symName: __ZN5Catch8IContextD0Ev, symObjAddr: 0x69D0, symBinAddr: 0x1000135DC, symSize: 0xC }
  - { offsetInCU: 0xBC2F6, offset: 0xD3175, size: 0x8, addend: 0x0, symName: __ZN5Catch15IMutableContextD2Ev, symObjAddr: 0x69DC, symBinAddr: 0x1000135E8, symSize: 0x2C }
  - { offsetInCU: 0xBC321, offset: 0xD31A0, size: 0x8, addend: 0x0, symName: __ZN5Catch15IMutableContextD1Ev, symObjAddr: 0x6A08, symBinAddr: 0x100013614, symSize: 0x14 }
  - { offsetInCU: 0xBC34C, offset: 0xD31CB, size: 0x8, addend: 0x0, symName: __ZN5Catch15IMutableContextD0Ev, symObjAddr: 0x6A1C, symBinAddr: 0x100013628, symSize: 0xC }
  - { offsetInCU: 0xBC377, offset: 0xD31F6, size: 0x8, addend: 0x0, symName: __ZN5Catch7ContextD2Ev, symObjAddr: 0x6A28, symBinAddr: 0x100013634, symSize: 0x5C }
  - { offsetInCU: 0xBC3A2, offset: 0xD3221, size: 0x8, addend: 0x0, symName: __ZNSt3__110shared_ptrIKN5Catch7IConfigEED1B8ue170006Ev, symObjAddr: 0x6A84, symBinAddr: 0x100013690, symSize: 0x2C }
  - { offsetInCU: 0xBC3CA, offset: 0xD3249, size: 0x8, addend: 0x0, symName: __ZN5Catch7ContextD1Ev, symObjAddr: 0x6AB0, symBinAddr: 0x1000136BC, symSize: 0x2C }
  - { offsetInCU: 0xBC3F5, offset: 0xD3274, size: 0x8, addend: 0x0, symName: __ZThn8_N5Catch7ContextD1Ev, symObjAddr: 0x6ADC, symBinAddr: 0x1000136E8, symSize: 0x1C }
  - { offsetInCU: 0xBC40C, offset: 0xD328B, size: 0x8, addend: 0x0, symName: __ZN5Catch7ContextD0Ev, symObjAddr: 0x6AF8, symBinAddr: 0x100013704, symSize: 0x30 }
  - { offsetInCU: 0xBC437, offset: 0xD32B6, size: 0x8, addend: 0x0, symName: __ZThn8_N5Catch7ContextD0Ev, symObjAddr: 0x6B28, symBinAddr: 0x100013734, symSize: 0x18 }
  - { offsetInCU: 0xBC44E, offset: 0xD32CD, size: 0x8, addend: 0x0, symName: __ZN5Catch20ITransientExpressionD2Ev, symObjAddr: 0x6C50, symBinAddr: 0x10001378C, symSize: 0x14 }
  - { offsetInCU: 0xBC479, offset: 0xD32F8, size: 0x8, addend: 0x0, symName: __ZN5Catch20ITransientExpressionD1Ev, symObjAddr: 0x6C64, symBinAddr: 0x1000137A0, symSize: 0x14 }
  - { offsetInCU: 0xBC4A4, offset: 0xD3323, size: 0x8, addend: 0x0, symName: __ZN5Catch20ITransientExpressionD0Ev, symObjAddr: 0x6C78, symBinAddr: 0x1000137B4, symSize: 0xC }
  - { offsetInCU: 0xBC4D4, offset: 0xD3353, size: 0x8, addend: 0x0, symName: __ZN5Catch10ErrnoGuardC2Ev, symObjAddr: 0x6E30, symBinAddr: 0x100013918, symSize: 0x38 }
  - { offsetInCU: 0xBC4FF, offset: 0xD337E, size: 0x8, addend: 0x0, symName: __ZN5Catch10ErrnoGuardC1Ev, symObjAddr: 0x6E68, symBinAddr: 0x100013950, symSize: 0x2C }
  - { offsetInCU: 0xBC52A, offset: 0xD33A9, size: 0x8, addend: 0x0, symName: __ZN5Catch10ErrnoGuardD2Ev, symObjAddr: 0x6E94, symBinAddr: 0x10001397C, symSize: 0x4C }
  - { offsetInCU: 0xBC555, offset: 0xD33D4, size: 0x8, addend: 0x0, symName: __ZN5Catch10ErrnoGuardD1Ev, symObjAddr: 0x6EE0, symBinAddr: 0x1000139C8, symSize: 0x2C }
  - { offsetInCU: 0xBC580, offset: 0xD33FF, size: 0x8, addend: 0x0, symName: __ZN5Catch27ExceptionTranslatorRegistryD2Ev, symObjAddr: 0x6F0C, symBinAddr: 0x1000139F4, symSize: 0x48 }
  - { offsetInCU: 0xBC5AB, offset: 0xD342A, size: 0x8, addend: 0x0, symName: __ZNSt3__16vectorINS_10unique_ptrIKN5Catch20IExceptionTranslatorENS_14default_deleteIS4_EEEENS_9allocatorIS7_EEED1B8ue170006Ev, symObjAddr: 0x6F54, symBinAddr: 0x100013A3C, symSize: 0x2C }
  - { offsetInCU: 0xBC5D3, offset: 0xD3452, size: 0x8, addend: 0x0, symName: __ZN5Catch28IExceptionTranslatorRegistryD2Ev, symObjAddr: 0x6F80, symBinAddr: 0x100013A68, symSize: 0x14 }
  - { offsetInCU: 0xBC5FE, offset: 0xD347D, size: 0x8, addend: 0x0, symName: __ZN5Catch27ExceptionTranslatorRegistryD1Ev, symObjAddr: 0x6F94, symBinAddr: 0x100013A7C, symSize: 0x2C }
  - { offsetInCU: 0xBC629, offset: 0xD34A8, size: 0x8, addend: 0x0, symName: __ZN5Catch27ExceptionTranslatorRegistryD0Ev, symObjAddr: 0x6FC0, symBinAddr: 0x100013AA8, symSize: 0x30 }
  - { offsetInCU: 0xBC654, offset: 0xD34D3, size: 0x8, addend: 0x0, symName: __ZN5Catch27ExceptionTranslatorRegistry18registerTranslatorEPKNS_20IExceptionTranslatorE, symObjAddr: 0x6FF0, symBinAddr: 0x100013AD8, symSize: 0x74 }
  - { offsetInCU: 0xBC689, offset: 0xD3508, size: 0x8, addend: 0x0, symName: __ZNSt3__16vectorINS_10unique_ptrIKN5Catch20IExceptionTranslatorENS_14default_deleteIS4_EEEENS_9allocatorIS7_EEE9push_backB8ue170006EOS7_, symObjAddr: 0x7064, symBinAddr: 0x100013B4C, symSize: 0x6C }
  - { offsetInCU: 0xBC6BE, offset: 0xD353D, size: 0x8, addend: 0x0, symName: __ZNSt3__110unique_ptrIKN5Catch20IExceptionTranslatorENS_14default_deleteIS3_EEEC1B8ue170006ILb1EvEEPS3_, symObjAddr: 0x70D0, symBinAddr: 0x100013BB8, symSize: 0x34 }
  - { offsetInCU: 0xBC700, offset: 0xD357F, size: 0x8, addend: 0x0, symName: __ZNSt3__110unique_ptrIKN5Catch20IExceptionTranslatorENS_14default_deleteIS3_EEED1B8ue170006Ev, symObjAddr: 0x7104, symBinAddr: 0x100013BEC, symSize: 0x2C }
  - { offsetInCU: 0xBC728, offset: 0xD35A7, size: 0x8, addend: 0x0, symName: __ZNK5Catch27ExceptionTranslatorRegistry24translateActiveExceptionEv, symObjAddr: 0x7130, symBinAddr: 0x100013C18, symSize: 0x260 }
  - { offsetInCU: 0xBC789, offset: 0xD3608, size: 0x8, addend: 0x0, symName: __ZNSt13exception_ptrC1B8ue170006EDn, symObjAddr: 0x73C0, symBinAddr: 0x100013EA8, symSize: 0x34 }
  - { offsetInCU: 0xBC7BB, offset: 0xD363A, size: 0x8, addend: 0x0, symName: __ZNK5Catch27ExceptionTranslatorRegistry14tryTranslatorsEv, symObjAddr: 0x73F4, symBinAddr: 0x100013EDC, symSize: 0xE4 }
  - { offsetInCU: 0xBC7E1, offset: 0xD3660, size: 0x8, addend: 0x0, symName: __ZNKSt3__16vectorINS_10unique_ptrIKN5Catch20IExceptionTranslatorENS_14default_deleteIS4_EEEENS_9allocatorIS7_EEE5emptyB8ue170006Ev, symObjAddr: 0x74D8, symBinAddr: 0x100013FC0, symSize: 0x28 }
  - { offsetInCU: 0xBC805, offset: 0xD3684, size: 0x8, addend: 0x0, symName: __ZNKSt3__16vectorINS_10unique_ptrIKN5Catch20IExceptionTranslatorENS_14default_deleteIS4_EEEENS_9allocatorIS7_EEEixB8ue170006Em, symObjAddr: 0x7500, symBinAddr: 0x100013FE8, symSize: 0x24 }
  - { offsetInCU: 0xBC83A, offset: 0xD36B9, size: 0x8, addend: 0x0, symName: __ZNKSt3__110unique_ptrIKN5Catch20IExceptionTranslatorENS_14default_deleteIS3_EEEptB8ue170006Ev, symObjAddr: 0x7524, symBinAddr: 0x10001400C, symSize: 0x28 }
  - { offsetInCU: 0xBC85E, offset: 0xD36DD, size: 0x8, addend: 0x0, symName: __ZNKSt3__16vectorINS_10unique_ptrIKN5Catch20IExceptionTranslatorENS_14default_deleteIS4_EEEENS_9allocatorIS7_EEE5beginB8ue170006Ev, symObjAddr: 0x754C, symBinAddr: 0x100014034, symSize: 0x30 }
  - { offsetInCU: 0xBC884, offset: 0xD3703, size: 0x8, addend: 0x0, symName: __ZNKSt3__111__wrap_iterIPKNS_10unique_ptrIKN5Catch20IExceptionTranslatorENS_14default_deleteIS4_EEEEEplB8ue170006El, symObjAddr: 0x757C, symBinAddr: 0x100014064, symSize: 0x3C }
  - { offsetInCU: 0xBC8C4, offset: 0xD3743, size: 0x8, addend: 0x0, symName: __ZNKSt3__16vectorINS_10unique_ptrIKN5Catch20IExceptionTranslatorENS_14default_deleteIS4_EEEENS_9allocatorIS7_EEE3endB8ue170006Ev, symObjAddr: 0x75B8, symBinAddr: 0x1000140A0, symSize: 0x30 }
  - { offsetInCU: 0xBC8EA, offset: 0xD3769, size: 0x8, addend: 0x0, symName: __ZN5Catch21FatalConditionHandler12handleSignalEi, symObjAddr: 0x75E8, symBinAddr: 0x1000140D0, symSize: 0xBC }
  - { offsetInCU: 0xBC971, offset: 0xD37F0, size: 0x8, addend: 0x0, symName: __ZN5Catch21FatalConditionHandler5resetEv, symObjAddr: 0x76A4, symBinAddr: 0x10001418C, symSize: 0xA0 }
  - { offsetInCU: 0xBC9A5, offset: 0xD3824, size: 0x8, addend: 0x0, symName: __ZN5Catch21FatalConditionHandlerC2Ev, symObjAddr: 0x77C4, symBinAddr: 0x1000142AC, symSize: 0xD4 }
  - { offsetInCU: 0xBCA19, offset: 0xD3898, size: 0x8, addend: 0x0, symName: __ZN5Catch21FatalConditionHandlerC1Ev, symObjAddr: 0x7898, symBinAddr: 0x100014380, symSize: 0x2C }
  - { offsetInCU: 0xBCA44, offset: 0xD38C3, size: 0x8, addend: 0x0, symName: __ZN5Catch21FatalConditionHandlerD2Ev, symObjAddr: 0x78C4, symBinAddr: 0x1000143AC, symSize: 0x34 }
  - { offsetInCU: 0xBCA6F, offset: 0xD38EE, size: 0x8, addend: 0x0, symName: __ZN5Catch21FatalConditionHandlerD1Ev, symObjAddr: 0x78F8, symBinAddr: 0x1000143E0, symSize: 0x2C }
  - { offsetInCU: 0xBCA9A, offset: 0xD3919, size: 0x8, addend: 0x0, symName: __ZN5Catch17IGeneratorTrackerD2Ev, symObjAddr: 0x7924, symBinAddr: 0x10001440C, symSize: 0x14 }
  - { offsetInCU: 0xBCAC5, offset: 0xD3944, size: 0x8, addend: 0x0, symName: __ZN5Catch17IGeneratorTrackerD1Ev, symObjAddr: 0x7938, symBinAddr: 0x100014420, symSize: 0x14 }
  - { offsetInCU: 0xBCAF0, offset: 0xD396F, size: 0x8, addend: 0x0, symName: __ZN5Catch17IGeneratorTrackerD0Ev, symObjAddr: 0x794C, symBinAddr: 0x100014434, symSize: 0xC }
  - { offsetInCU: 0xBCB1B, offset: 0xD399A, size: 0x8, addend: 0x0, symName: __ZN5Catch10Generators13GeneratorBaseD2Ev, symObjAddr: 0x7958, symBinAddr: 0x100014440, symSize: 0x14 }
  - { offsetInCU: 0xBCB46, offset: 0xD39C5, size: 0x8, addend: 0x0, symName: __ZN5Catch10Generators13GeneratorBaseD1Ev, symObjAddr: 0x796C, symBinAddr: 0x100014454, symSize: 0x2C }
  - { offsetInCU: 0xBCB71, offset: 0xD39F0, size: 0x8, addend: 0x0, symName: __ZN5Catch10Generators13GeneratorBaseD0Ev, symObjAddr: 0x7998, symBinAddr: 0x100014480, symSize: 0x30 }
  - { offsetInCU: 0xBCB9C, offset: 0xD3A1B, size: 0x8, addend: 0x0, symName: __ZNSt3__16vectorImNS_9allocatorImEEEC1B8ue170006Ev, symObjAddr: 0x7B74, symBinAddr: 0x10001465C, symSize: 0x2C }
  - { offsetInCU: 0xBCBC4, offset: 0xD3A43, size: 0x8, addend: 0x0, symName: __ZNSt3__16vectorImNS_9allocatorImEEE7reserveEm, symObjAddr: 0x7BA0, symBinAddr: 0x100014688, symSize: 0xE8 }
  - { offsetInCU: 0xBCC1E, offset: 0xD3A9D, size: 0x8, addend: 0x0, symName: __ZNSt3__124uniform_int_distributionImEC1B8ue170006Emm, symObjAddr: 0x7C88, symBinAddr: 0x100014770, symSize: 0x3C }
  - { offsetInCU: 0xBCCC6, offset: 0xD3B45, size: 0x8, addend: 0x0, symName: __ZNSt3__13setImNS_4lessImEENS_9allocatorImEEEC1B8ue170006Ev, symObjAddr: 0x7CC4, symBinAddr: 0x1000147AC, symSize: 0x2C }
  - { offsetInCU: 0xBCCEE, offset: 0xD3B6D, size: 0x8, addend: 0x0, symName: __ZNKSt3__16vectorImNS_9allocatorImEEE4sizeB8ue170006Ev, symObjAddr: 0x7CF0, symBinAddr: 0x1000147D8, symSize: 0x28 }
  - { offsetInCU: 0xBCD12, offset: 0xD3B91, size: 0x8, addend: 0x0, symName: __ZNSt3__124uniform_int_distributionImEclB8ue170006INS_23mersenne_twister_engineIjLm32ELm624ELm397ELm31ELj2567483615ELm11ELj4294967295ELm7ELj2636928640ELm15ELj4022730752ELm18ELj1812433253EEEEEmRT_, symObjAddr: 0x7D18, symBinAddr: 0x100014800, symSize: 0x30 }
  - { offsetInCU: 0xBCD4D, offset: 0xD3BCC, size: 0x8, addend: 0x0, symName: __ZNSt3__13setImNS_4lessImEENS_9allocatorImEEE6insertB8ue170006ERKm, symObjAddr: 0x7DE8, symBinAddr: 0x1000148D0, symSize: 0x4C }
  - { offsetInCU: 0xBCD80, offset: 0xD3BFF, size: 0x8, addend: 0x0, symName: __ZNSt3__16vectorImNS_9allocatorImEEE9push_backB8ue170006ERKm, symObjAddr: 0x7E34, symBinAddr: 0x10001491C, symSize: 0x6C }
  - { offsetInCU: 0xBCDB5, offset: 0xD3C34, size: 0x8, addend: 0x0, symName: __ZNSt3__13setImNS_4lessImEENS_9allocatorImEEED1B8ue170006Ev, symObjAddr: 0x7EA0, symBinAddr: 0x100014988, symSize: 0x2C }
  - { offsetInCU: 0xBCDDD, offset: 0xD3C5C, size: 0x8, addend: 0x0, symName: __ZNSt3__16vectorImNS_9allocatorImEEED1B8ue170006Ev, symObjAddr: 0x7ECC, symBinAddr: 0x1000149B4, symSize: 0x2C }
  - { offsetInCU: 0xBCE05, offset: 0xD3C84, size: 0x8, addend: 0x0, symName: __ZNSt3__114numeric_limitsIiE3minB8ue170006Ev, symObjAddr: 0x802C, symBinAddr: 0x100014B14, symSize: 0x14 }
  - { offsetInCU: 0xBCE19, offset: 0xD3C98, size: 0x8, addend: 0x0, symName: __ZNSt3__114numeric_limitsIiE3maxB8ue170006Ev, symObjAddr: 0x8040, symBinAddr: 0x100014B28, symSize: 0x14 }
  - { offsetInCU: 0xBCE2D, offset: 0xD3CAC, size: 0x8, addend: 0x0, symName: __ZN5Catch14IResultCaptureD2Ev, symObjAddr: 0x8054, symBinAddr: 0x100014B3C, symSize: 0x14 }
  - { offsetInCU: 0xBCE58, offset: 0xD3CD7, size: 0x8, addend: 0x0, symName: __ZN5Catch14IResultCaptureD1Ev, symObjAddr: 0x8068, symBinAddr: 0x100014B50, symSize: 0x14 }
  - { offsetInCU: 0xBCE83, offset: 0xD3D02, size: 0x8, addend: 0x0, symName: __ZN5Catch14IResultCaptureD0Ev, symObjAddr: 0x807C, symBinAddr: 0x100014B64, symSize: 0xC }
  - { offsetInCU: 0xBCEAE, offset: 0xD3D2D, size: 0x8, addend: 0x0, symName: __ZN5Catch7IConfigD1Ev, symObjAddr: 0x8088, symBinAddr: 0x100014B70, symSize: 0x14 }
  - { offsetInCU: 0xBCED9, offset: 0xD3D58, size: 0x8, addend: 0x0, symName: __ZN5Catch7IConfigD0Ev, symObjAddr: 0x809C, symBinAddr: 0x100014B84, symSize: 0xC }
  - { offsetInCU: 0xBCF04, offset: 0xD3D83, size: 0x8, addend: 0x0, symName: __ZN5Catch20IExceptionTranslatorD2Ev, symObjAddr: 0x80A8, symBinAddr: 0x100014B90, symSize: 0x14 }
  - { offsetInCU: 0xBCF2F, offset: 0xD3DAE, size: 0x8, addend: 0x0, symName: __ZN5Catch20IExceptionTranslatorD1Ev, symObjAddr: 0x80BC, symBinAddr: 0x100014BA4, symSize: 0x14 }
  - { offsetInCU: 0xBCF5A, offset: 0xD3DD9, size: 0x8, addend: 0x0, symName: __ZN5Catch20IExceptionTranslatorD0Ev, symObjAddr: 0x80D0, symBinAddr: 0x100014BB8, symSize: 0xC }
  - { offsetInCU: 0xBCF85, offset: 0xD3E04, size: 0x8, addend: 0x0, symName: __ZN5Catch28IExceptionTranslatorRegistryD1Ev, symObjAddr: 0x80DC, symBinAddr: 0x100014BC4, symSize: 0x14 }
  - { offsetInCU: 0xBCFB0, offset: 0xD3E2F, size: 0x8, addend: 0x0, symName: __ZN5Catch28IExceptionTranslatorRegistryD0Ev, symObjAddr: 0x80F0, symBinAddr: 0x100014BD8, symSize: 0xC }
  - { offsetInCU: 0xBCFDB, offset: 0xD3E5A, size: 0x8, addend: 0x0, symName: __ZN5Catch12IRegistryHubD2Ev, symObjAddr: 0x80FC, symBinAddr: 0x100014BE4, symSize: 0x14 }
  - { offsetInCU: 0xBD006, offset: 0xD3E85, size: 0x8, addend: 0x0, symName: __ZN5Catch12IRegistryHubD1Ev, symObjAddr: 0x8110, symBinAddr: 0x100014BF8, symSize: 0x14 }
  - { offsetInCU: 0xBD031, offset: 0xD3EB0, size: 0x8, addend: 0x0, symName: __ZN5Catch12IRegistryHubD0Ev, symObjAddr: 0x8124, symBinAddr: 0x100014C0C, symSize: 0xC }
  - { offsetInCU: 0xBD05C, offset: 0xD3EDB, size: 0x8, addend: 0x0, symName: __ZN5Catch19IMutableRegistryHubD2Ev, symObjAddr: 0x8130, symBinAddr: 0x100014C18, symSize: 0x14 }
  - { offsetInCU: 0xBD087, offset: 0xD3F06, size: 0x8, addend: 0x0, symName: __ZN5Catch19IMutableRegistryHubD1Ev, symObjAddr: 0x8144, symBinAddr: 0x100014C2C, symSize: 0x14 }
  - { offsetInCU: 0xBD0B2, offset: 0xD3F31, size: 0x8, addend: 0x0, symName: __ZN5Catch19IMutableRegistryHubD0Ev, symObjAddr: 0x8158, symBinAddr: 0x100014C40, symSize: 0xC }
  - { offsetInCU: 0xBD0DD, offset: 0xD3F5C, size: 0x8, addend: 0x0, symName: __ZN5Catch14ReporterConfigC2ERKNSt3__110shared_ptrIKNS_7IConfigEEE, symObjAddr: 0x8164, symBinAddr: 0x100014C4C, symSize: 0x54 }
  - { offsetInCU: 0xBD117, offset: 0xD3F96, size: 0x8, addend: 0x0, symName: __ZNSt3__110shared_ptrIKN5Catch7IConfigEEC1B8ue170006ERKS4_, symObjAddr: 0x81B8, symBinAddr: 0x100014CA0, symSize: 0x34 }
  - { offsetInCU: 0xBD14E, offset: 0xD3FCD, size: 0x8, addend: 0x0, symName: __ZN5Catch14ReporterConfigC1ERKNSt3__110shared_ptrIKNS_7IConfigEEE, symObjAddr: 0x81EC, symBinAddr: 0x100014CD4, symSize: 0x34 }
  - { offsetInCU: 0xBD188, offset: 0xD4007, size: 0x8, addend: 0x0, symName: __ZN5Catch14ReporterConfigC2ERKNSt3__110shared_ptrIKNS_7IConfigEEERNS1_13basic_ostreamIcNS1_11char_traitsIcEEEE, symObjAddr: 0x8220, symBinAddr: 0x100014D08, symSize: 0x44 }
  - { offsetInCU: 0xBD1D1, offset: 0xD4050, size: 0x8, addend: 0x0, symName: __ZN5Catch14ReporterConfigC1ERKNSt3__110shared_ptrIKNS_7IConfigEEERNS1_13basic_ostreamIcNS1_11char_traitsIcEEEE, symObjAddr: 0x8264, symBinAddr: 0x100014D4C, symSize: 0x3C }
  - { offsetInCU: 0xBD21A, offset: 0xD4099, size: 0x8, addend: 0x0, symName: __ZNK5Catch14ReporterConfig6streamEv, symObjAddr: 0x82A0, symBinAddr: 0x100014D88, symSize: 0x18 }
  - { offsetInCU: 0xBD240, offset: 0xD40BF, size: 0x8, addend: 0x0, symName: __ZNK5Catch14ReporterConfig10fullConfigEv, symObjAddr: 0x82B8, symBinAddr: 0x100014DA0, symSize: 0x3C }
  - { offsetInCU: 0xBD26B, offset: 0xD40EA, size: 0x8, addend: 0x0, symName: __ZN5Catch11TestRunInfoC2ERKNSt3__112basic_stringIcNS1_11char_traitsIcEENS1_9allocatorIcEEEE, symObjAddr: 0x82F4, symBinAddr: 0x100014DDC, symSize: 0x34 }
  - { offsetInCU: 0xBD2A5, offset: 0xD4124, size: 0x8, addend: 0x0, symName: __ZN5Catch11TestRunInfoC1ERKNSt3__112basic_stringIcNS1_11char_traitsIcEENS1_9allocatorIcEEEE, symObjAddr: 0x8328, symBinAddr: 0x100014E10, symSize: 0x34 }
  - { offsetInCU: 0xBD2DF, offset: 0xD415E, size: 0x8, addend: 0x0, symName: __ZN5Catch9GroupInfoC2ERKNSt3__112basic_stringIcNS1_11char_traitsIcEENS1_9allocatorIcEEEEmm, symObjAddr: 0x835C, symBinAddr: 0x100014E44, symSize: 0x4C }
  - { offsetInCU: 0xBD337, offset: 0xD41B6, size: 0x8, addend: 0x0, symName: __ZN5Catch9GroupInfoC1ERKNSt3__112basic_stringIcNS1_11char_traitsIcEENS1_9allocatorIcEEEEmm, symObjAddr: 0x83A8, symBinAddr: 0x100014E90, symSize: 0x44 }
  - { offsetInCU: 0xBD38F, offset: 0xD420E, size: 0x8, addend: 0x0, symName: __ZN5Catch14AssertionStatsC2ERKNS_15AssertionResultERKNSt3__16vectorINS_11MessageInfoENS4_9allocatorIS6_EEEERKNS_6TotalsE, symObjAddr: 0x83EC, symBinAddr: 0x100014ED4, symSize: 0x208 }
  - { offsetInCU: 0xBD3FD, offset: 0xD427C, size: 0x8, addend: 0x0, symName: __ZN5Catch15AssertionResultC1ERKS0_, symObjAddr: 0x85F4, symBinAddr: 0x1000150DC, symSize: 0x34 }
  - { offsetInCU: 0xBD432, offset: 0xD42B1, size: 0x8, addend: 0x0, symName: __ZNSt3__16vectorIN5Catch11MessageInfoENS_9allocatorIS2_EEEC1ERKS5_, symObjAddr: 0x8628, symBinAddr: 0x100015110, symSize: 0x34 }
  - { offsetInCU: 0xBD471, offset: 0xD42F0, size: 0x8, addend: 0x0, symName: __ZN5Catch14MessageBuilderC1ERKNS_9StringRefERKNS_14SourceLineInfoENS_9ResultWas6OfTypeE, symObjAddr: 0x865C, symBinAddr: 0x100015144, symSize: 0x44 }
  - { offsetInCU: 0xBD4CE, offset: 0xD434D, size: 0x8, addend: 0x0, symName: __ZN5Catch14MessageBuilderlsINSt3__112basic_stringIcNS2_11char_traitsIcEENS2_9allocatorIcEEEEEERS0_RKT_, symObjAddr: 0x86A0, symBinAddr: 0x100015188, symSize: 0x34 }
  - { offsetInCU: 0xBD50A, offset: 0xD4389, size: 0x8, addend: 0x0, symName: __ZNSt3__16vectorIN5Catch11MessageInfoENS_9allocatorIS2_EEE9push_backB8ue170006ERKS2_, symObjAddr: 0x86D4, symBinAddr: 0x1000151BC, symSize: 0x6C }
  - { offsetInCU: 0xBD53F, offset: 0xD43BE, size: 0x8, addend: 0x0, symName: __ZN5Catch14MessageBuilderD1Ev, symObjAddr: 0x8740, symBinAddr: 0x100015228, symSize: 0x2C }
  - { offsetInCU: 0xBD56B, offset: 0xD43EA, size: 0x8, addend: 0x0, symName: __ZNSt3__16vectorIN5Catch11MessageInfoENS_9allocatorIS2_EEED1B8ue170006Ev, symObjAddr: 0x876C, symBinAddr: 0x100015254, symSize: 0x2C }
  - { offsetInCU: 0xBD593, offset: 0xD4412, size: 0x8, addend: 0x0, symName: __ZN5Catch15AssertionResultD1Ev, symObjAddr: 0x8798, symBinAddr: 0x100015280, symSize: 0x2C }
  - { offsetInCU: 0xBD5BF, offset: 0xD443E, size: 0x8, addend: 0x0, symName: __ZN5Catch14AssertionStatsC1ERKNS_15AssertionResultERKNSt3__16vectorINS_11MessageInfoENS4_9allocatorIS6_EEEERKNS_6TotalsE, symObjAddr: 0x87C4, symBinAddr: 0x1000152AC, symSize: 0x44 }
  - { offsetInCU: 0xBD617, offset: 0xD4496, size: 0x8, addend: 0x0, symName: __ZN5Catch14AssertionStatsD2Ev, symObjAddr: 0x8808, symBinAddr: 0x1000152F0, symSize: 0x4C }
  - { offsetInCU: 0xBD642, offset: 0xD44C1, size: 0x8, addend: 0x0, symName: __ZN5Catch14AssertionStatsD1Ev, symObjAddr: 0x8854, symBinAddr: 0x10001533C, symSize: 0x2C }
  - { offsetInCU: 0xBD66D, offset: 0xD44EC, size: 0x8, addend: 0x0, symName: __ZN5Catch14AssertionStatsD0Ev, symObjAddr: 0x8880, symBinAddr: 0x100015368, symSize: 0x30 }
  - { offsetInCU: 0xBD698, offset: 0xD4517, size: 0x8, addend: 0x0, symName: __ZN5Catch12SectionStatsC2ERKNS_11SectionInfoERKNS_6CountsEdb, symObjAddr: 0x88B0, symBinAddr: 0x100015398, symSize: 0x84 }
  - { offsetInCU: 0xBD6FF, offset: 0xD457E, size: 0x8, addend: 0x0, symName: __ZN5Catch11SectionInfoC1ERKS0_, symObjAddr: 0x8934, symBinAddr: 0x10001541C, symSize: 0x34 }
  - { offsetInCU: 0xBD734, offset: 0xD45B3, size: 0x8, addend: 0x0, symName: __ZN5Catch12SectionStatsC1ERKNS_11SectionInfoERKNS_6CountsEdb, symObjAddr: 0x8968, symBinAddr: 0x100015450, symSize: 0x58 }
  - { offsetInCU: 0xBD79B, offset: 0xD461A, size: 0x8, addend: 0x0, symName: __ZN5Catch12SectionStatsD2Ev, symObjAddr: 0x89C0, symBinAddr: 0x1000154A8, symSize: 0x40 }
  - { offsetInCU: 0xBD7C6, offset: 0xD4645, size: 0x8, addend: 0x0, symName: __ZN5Catch12SectionStatsD1Ev, symObjAddr: 0x8A2C, symBinAddr: 0x1000154E8, symSize: 0x2C }
  - { offsetInCU: 0xBD7F1, offset: 0xD4670, size: 0x8, addend: 0x0, symName: __ZN5Catch12SectionStatsD0Ev, symObjAddr: 0x8A58, symBinAddr: 0x100015514, symSize: 0x30 }
  - { offsetInCU: 0xBD81C, offset: 0xD469B, size: 0x8, addend: 0x0, symName: __ZN5Catch13TestCaseStatsC2ERKNS_12TestCaseInfoERKNS_6TotalsERKNSt3__112basic_stringIcNS7_11char_traitsIcEENS7_9allocatorIcEEEESF_b, symObjAddr: 0x8A88, symBinAddr: 0x100015544, symSize: 0xEC }
  - { offsetInCU: 0xBD892, offset: 0xD4711, size: 0x8, addend: 0x0, symName: __ZN5Catch12TestCaseInfoC1ERKS0_, symObjAddr: 0x8B74, symBinAddr: 0x100015630, symSize: 0x34 }
  - { offsetInCU: 0xBD8C7, offset: 0xD4746, size: 0x8, addend: 0x0, symName: __ZN5Catch12TestCaseInfoD1Ev, symObjAddr: 0x8BA8, symBinAddr: 0x100015664, symSize: 0x2C }
  - { offsetInCU: 0xBD8F3, offset: 0xD4772, size: 0x8, addend: 0x0, symName: __ZN5Catch13TestCaseStatsC1ERKNS_12TestCaseInfoERKNS_6TotalsERKNSt3__112basic_stringIcNS7_11char_traitsIcEENS7_9allocatorIcEEEESF_b, symObjAddr: 0x8BD4, symBinAddr: 0x100015690, symSize: 0x60 }
  - { offsetInCU: 0xBD969, offset: 0xD47E8, size: 0x8, addend: 0x0, symName: __ZN5Catch13TestCaseStatsD2Ev, symObjAddr: 0x8C34, symBinAddr: 0x1000156F0, symSize: 0x58 }
  - { offsetInCU: 0xBD994, offset: 0xD4813, size: 0x8, addend: 0x0, symName: __ZN5Catch13TestCaseStatsD1Ev, symObjAddr: 0x8C8C, symBinAddr: 0x100015748, symSize: 0x2C }
  - { offsetInCU: 0xBD9BF, offset: 0xD483E, size: 0x8, addend: 0x0, symName: __ZN5Catch13TestCaseStatsD0Ev, symObjAddr: 0x8CB8, symBinAddr: 0x100015774, symSize: 0x30 }
  - { offsetInCU: 0xBD9EA, offset: 0xD4869, size: 0x8, addend: 0x0, symName: __ZN5Catch14TestGroupStatsC2ERKNS_9GroupInfoERKNS_6TotalsEb, symObjAddr: 0x8CE8, symBinAddr: 0x1000157A4, symSize: 0x78 }
  - { offsetInCU: 0xBDA42, offset: 0xD48C1, size: 0x8, addend: 0x0, symName: __ZN5Catch9GroupInfoC1ERKS0_, symObjAddr: 0x8D60, symBinAddr: 0x10001581C, symSize: 0x34 }
  - { offsetInCU: 0xBDA77, offset: 0xD48F6, size: 0x8, addend: 0x0, symName: __ZN5Catch14TestGroupStatsC1ERKNS_9GroupInfoERKNS_6TotalsEb, symObjAddr: 0x8D94, symBinAddr: 0x100015850, symSize: 0x50 }
  - { offsetInCU: 0xBDACF, offset: 0xD494E, size: 0x8, addend: 0x0, symName: __ZN5Catch14TestGroupStatsC2ERKNS_9GroupInfoE, symObjAddr: 0x8DE4, symBinAddr: 0x1000158A0, symSize: 0x58 }
  - { offsetInCU: 0xBDB09, offset: 0xD4988, size: 0x8, addend: 0x0, symName: __ZN5Catch6TotalsC1Ev, symObjAddr: 0x8E3C, symBinAddr: 0x1000158F8, symSize: 0x2C }
  - { offsetInCU: 0xBDB35, offset: 0xD49B4, size: 0x8, addend: 0x0, symName: __ZN5Catch14TestGroupStatsC1ERKNS_9GroupInfoE, symObjAddr: 0x8E68, symBinAddr: 0x100015924, symSize: 0x34 }
  - { offsetInCU: 0xBDB6F, offset: 0xD49EE, size: 0x8, addend: 0x0, symName: __ZN5Catch14TestGroupStatsD2Ev, symObjAddr: 0x8E9C, symBinAddr: 0x100015958, symSize: 0x40 }
  - { offsetInCU: 0xBDB9A, offset: 0xD4A19, size: 0x8, addend: 0x0, symName: __ZN5Catch9GroupInfoD1Ev, symObjAddr: 0x8EDC, symBinAddr: 0x100015998, symSize: 0x2C }
  - { offsetInCU: 0xBDBC6, offset: 0xD4A45, size: 0x8, addend: 0x0, symName: __ZN5Catch14TestGroupStatsD1Ev, symObjAddr: 0x8F08, symBinAddr: 0x1000159C4, symSize: 0x2C }
  - { offsetInCU: 0xBDBF1, offset: 0xD4A70, size: 0x8, addend: 0x0, symName: __ZN5Catch14TestGroupStatsD0Ev, symObjAddr: 0x8F34, symBinAddr: 0x1000159F0, symSize: 0x30 }
  - { offsetInCU: 0xBDC1C, offset: 0xD4A9B, size: 0x8, addend: 0x0, symName: __ZN5Catch12TestRunStatsC2ERKNS_11TestRunInfoERKNS_6TotalsEb, symObjAddr: 0x8F64, symBinAddr: 0x100015A20, symSize: 0x78 }
  - { offsetInCU: 0xBDC74, offset: 0xD4AF3, size: 0x8, addend: 0x0, symName: __ZN5Catch11TestRunInfoC1ERKS0_, symObjAddr: 0x8FDC, symBinAddr: 0x100015A98, symSize: 0x34 }
  - { offsetInCU: 0xBDCA9, offset: 0xD4B28, size: 0x8, addend: 0x0, symName: __ZN5Catch12TestRunStatsC1ERKNS_11TestRunInfoERKNS_6TotalsEb, symObjAddr: 0x9010, symBinAddr: 0x100015ACC, symSize: 0x50 }
  - { offsetInCU: 0xBDD01, offset: 0xD4B80, size: 0x8, addend: 0x0, symName: __ZN5Catch12TestRunStatsD2Ev, symObjAddr: 0x9060, symBinAddr: 0x100015B1C, symSize: 0x40 }
  - { offsetInCU: 0xBDD2C, offset: 0xD4BAB, size: 0x8, addend: 0x0, symName: __ZN5Catch11TestRunInfoD1Ev, symObjAddr: 0x90A0, symBinAddr: 0x100015B5C, symSize: 0x2C }
  - { offsetInCU: 0xBDD58, offset: 0xD4BD7, size: 0x8, addend: 0x0, symName: __ZN5Catch12TestRunStatsD1Ev, symObjAddr: 0x90CC, symBinAddr: 0x100015B88, symSize: 0x2C }
  - { offsetInCU: 0xBDD83, offset: 0xD4C02, size: 0x8, addend: 0x0, symName: __ZN5Catch12TestRunStatsD0Ev, symObjAddr: 0x90F8, symBinAddr: 0x100015BB4, symSize: 0x30 }
  - { offsetInCU: 0xBDDAE, offset: 0xD4C2D, size: 0x8, addend: 0x0, symName: __ZN5Catch18IStreamingReporter21fatalErrorEncounteredENS_9StringRefE, symObjAddr: 0x9128, symBinAddr: 0x100015BE4, symSize: 0x14 }
  - { offsetInCU: 0xBDDE1, offset: 0xD4C60, size: 0x8, addend: 0x0, symName: __ZNK5Catch18IStreamingReporter7isMultiEv, symObjAddr: 0x913C, symBinAddr: 0x100015BF8, symSize: 0x18 }
  - { offsetInCU: 0xBDE07, offset: 0xD4C86, size: 0x8, addend: 0x0, symName: __ZN5Catch16IReporterFactoryD2Ev, symObjAddr: 0x9154, symBinAddr: 0x100015C10, symSize: 0x14 }
  - { offsetInCU: 0xBDE32, offset: 0xD4CB1, size: 0x8, addend: 0x0, symName: __ZN5Catch16IReporterFactoryD1Ev, symObjAddr: 0x9168, symBinAddr: 0x100015C24, symSize: 0x14 }
  - { offsetInCU: 0xBDE5D, offset: 0xD4CDC, size: 0x8, addend: 0x0, symName: __ZN5Catch16IReporterFactoryD0Ev, symObjAddr: 0x917C, symBinAddr: 0x100015C38, symSize: 0xC }
  - { offsetInCU: 0xBDE88, offset: 0xD4D07, size: 0x8, addend: 0x0, symName: __ZN5Catch17IReporterRegistryD2Ev, symObjAddr: 0x9188, symBinAddr: 0x100015C44, symSize: 0x14 }
  - { offsetInCU: 0xBDEB3, offset: 0xD4D32, size: 0x8, addend: 0x0, symName: __ZN5Catch17IReporterRegistryD1Ev, symObjAddr: 0x919C, symBinAddr: 0x100015C58, symSize: 0x14 }
  - { offsetInCU: 0xBDEDE, offset: 0xD4D5D, size: 0x8, addend: 0x0, symName: __ZN5Catch17IReporterRegistryD0Ev, symObjAddr: 0x91B0, symBinAddr: 0x100015C6C, symSize: 0xC }
  - { offsetInCU: 0xBDF09, offset: 0xD4D88, size: 0x8, addend: 0x0, symName: __ZN5Catch7IRunnerD2Ev, symObjAddr: 0x91BC, symBinAddr: 0x100015C78, symSize: 0x14 }
  - { offsetInCU: 0xBDF34, offset: 0xD4DB3, size: 0x8, addend: 0x0, symName: __ZN5Catch7IRunnerD1Ev, symObjAddr: 0x91D0, symBinAddr: 0x100015C8C, symSize: 0x14 }
  - { offsetInCU: 0xBDF5F, offset: 0xD4DDE, size: 0x8, addend: 0x0, symName: __ZN5Catch7IRunnerD0Ev, symObjAddr: 0x91E4, symBinAddr: 0x100015CA0, symSize: 0xC }
  - { offsetInCU: 0xBDF8A, offset: 0xD4E09, size: 0x8, addend: 0x0, symName: __ZN5Catch12ITestInvokerD2Ev, symObjAddr: 0x91F0, symBinAddr: 0x100015CAC, symSize: 0x14 }
  - { offsetInCU: 0xBDFB5, offset: 0xD4E34, size: 0x8, addend: 0x0, symName: __ZN5Catch12ITestInvokerD1Ev, symObjAddr: 0x9204, symBinAddr: 0x100015CC0, symSize: 0x14 }
  - { offsetInCU: 0xBDFE0, offset: 0xD4E5F, size: 0x8, addend: 0x0, symName: __ZN5Catch12ITestInvokerD0Ev, symObjAddr: 0x9218, symBinAddr: 0x100015CD4, symSize: 0xC }
  - { offsetInCU: 0xBE00B, offset: 0xD4E8A, size: 0x8, addend: 0x0, symName: __ZN5Catch17ITestCaseRegistryD2Ev, symObjAddr: 0x9224, symBinAddr: 0x100015CE0, symSize: 0x14 }
  - { offsetInCU: 0xBE036, offset: 0xD4EB5, size: 0x8, addend: 0x0, symName: __ZN5Catch17ITestCaseRegistryD1Ev, symObjAddr: 0x9238, symBinAddr: 0x100015CF4, symSize: 0x14 }
  - { offsetInCU: 0xBE061, offset: 0xD4EE0, size: 0x8, addend: 0x0, symName: __ZN5Catch17ITestCaseRegistryD0Ev, symObjAddr: 0x924C, symBinAddr: 0x100015D08, symSize: 0xC }
  - { offsetInCU: 0xBE08C, offset: 0xD4F0B, size: 0x8, addend: 0x0, symName: __ZN5Catch12LeakDetectorC2Ev, symObjAddr: 0x9258, symBinAddr: 0x100015D14, symSize: 0x14 }
  - { offsetInCU: 0xBE0B7, offset: 0xD4F36, size: 0x8, addend: 0x0, symName: __ZN5Catch12LeakDetectorC1Ev, symObjAddr: 0x926C, symBinAddr: 0x100015D28, symSize: 0x2C }
  - { offsetInCU: 0xBE0E2, offset: 0xD4F61, size: 0x8, addend: 0x0, symName: __ZN5Catch12LeakDetectorD2Ev, symObjAddr: 0x9298, symBinAddr: 0x100015D54, symSize: 0x34 }
  - { offsetInCU: 0xBE10D, offset: 0xD4F8C, size: 0x8, addend: 0x0, symName: __ZN5Catch12LeakDetectorD1Ev, symObjAddr: 0x92E4, symBinAddr: 0x100015DA0, symSize: 0x2C }
  - { offsetInCU: 0xBE138, offset: 0xD4FB7, size: 0x8, addend: 0x0, symName: __ZN5Catch8TestSpecC1ERKS0_, symObjAddr: 0x99B4, symBinAddr: 0x100016470, symSize: 0x34 }
  - { offsetInCU: 0xBE16D, offset: 0xD4FEC, size: 0x8, addend: 0x0, symName: __ZNSt3__16vectorIN5Catch8TestCaseENS_9allocatorIS2_EEE5beginB8ue170006Ev, symObjAddr: 0x9B60, symBinAddr: 0x10001661C, symSize: 0x30 }
  - { offsetInCU: 0xBE193, offset: 0xD5012, size: 0x8, addend: 0x0, symName: __ZNSt3__16vectorIN5Catch8TestCaseENS_9allocatorIS2_EEE3endB8ue170006Ev, symObjAddr: 0x9B90, symBinAddr: 0x10001664C, symSize: 0x30 }
  - { offsetInCU: 0xBE1B9, offset: 0xD5038, size: 0x8, addend: 0x0, symName: __ZNKSt3__111__wrap_iterIPN5Catch8TestCaseEEdeB8ue170006Ev, symObjAddr: 0x9BF4, symBinAddr: 0x1000166B0, symSize: 0x18 }
  - { offsetInCU: 0xBE1DD, offset: 0xD505C, size: 0x8, addend: 0x0, symName: __ZNK5Catch12TestCaseInfo8isHiddenEv, symObjAddr: 0x9C0C, symBinAddr: 0x1000166C8, symSize: 0x24 }
  - { offsetInCU: 0xBE203, offset: 0xD5082, size: 0x8, addend: 0x0, symName: __ZN5Catch5clara8TextFlow6ColumnC1ERKNSt3__112basic_stringIcNS3_11char_traitsIcEENS3_9allocatorIcEEEE, symObjAddr: 0x9D2C, symBinAddr: 0x1000167E8, symSize: 0x34 }
  - { offsetInCU: 0xBE23A, offset: 0xD50B9, size: 0x8, addend: 0x0, symName: __ZN5Catch5clara8TextFlow6Column13initialIndentEm, symObjAddr: 0x9D60, symBinAddr: 0x10001681C, symSize: 0x20 }
  - { offsetInCU: 0xBE26D, offset: 0xD50EC, size: 0x8, addend: 0x0, symName: __ZN5Catch5clara8TextFlow6Column6indentEm, symObjAddr: 0x9D80, symBinAddr: 0x10001683C, symSize: 0x20 }
  - { offsetInCU: 0xBE2A0, offset: 0xD511F, size: 0x8, addend: 0x0, symName: __ZN5Catch5clara8TextFlow6ColumnD1Ev, symObjAddr: 0x9DA0, symBinAddr: 0x10001685C, symSize: 0x2C }
  - { offsetInCU: 0xBE2CC, offset: 0xD514B, size: 0x8, addend: 0x0, symName: __ZNSt3__112basic_stringIcNS_11char_traitsIcEENS_9allocatorIcEEEaSB8ue170006EPKc, symObjAddr: 0x9DF8, symBinAddr: 0x1000168B4, symSize: 0x2C }
  - { offsetInCU: 0xBE2FF, offset: 0xD517E, size: 0x8, addend: 0x0, symName: __ZNK5Catch12TestCaseInfo12tagsAsStringEv, symObjAddr: 0x9E24, symBinAddr: 0x1000168E0, symSize: 0x1B8 }
  - { offsetInCU: 0xBE3E9, offset: 0xD5268, size: 0x8, addend: 0x0, symName: __ZNSt3__111__wrap_iterIPN5Catch8TestCaseEEppB8ue170006Ev, symObjAddr: 0x9FDC, symBinAddr: 0x100016A98, symSize: 0x20 }
  - { offsetInCU: 0xBE40D, offset: 0xD528C, size: 0x8, addend: 0x0, symName: __ZNKSt3__16vectorIN5Catch8TestCaseENS_9allocatorIS2_EEE4sizeB8ue170006Ev, symObjAddr: 0xA06C, symBinAddr: 0x100016B28, symSize: 0x28 }
  - { offsetInCU: 0xBE436, offset: 0xD52B5, size: 0x8, addend: 0x0, symName: __ZN5Catch9pluraliseC1EmRKNSt3__112basic_stringIcNS1_11char_traitsIcEENS1_9allocatorIcEEEE, symObjAddr: 0xA094, symBinAddr: 0x100016B50, symSize: 0x3C }
  - { offsetInCU: 0xBE47F, offset: 0xD52FE, size: 0x8, addend: 0x0, symName: __ZN5Catch9pluraliseD1Ev, symObjAddr: 0xA0D0, symBinAddr: 0x100016B8C, symSize: 0x2C }
  - { offsetInCU: 0xBE4AB, offset: 0xD532A, size: 0x8, addend: 0x0, symName: __ZNSt3__16vectorIN5Catch8TestCaseENS_9allocatorIS2_EEED1B8ue170006Ev, symObjAddr: 0xA0FC, symBinAddr: 0x100016BB8, symSize: 0x2C }
  - { offsetInCU: 0xBE4D3, offset: 0xD5352, size: 0x8, addend: 0x0, symName: __ZN5Catch7TagInfo3addERKNSt3__112basic_stringIcNS1_11char_traitsIcEENS1_9allocatorIcEEEE, symObjAddr: 0xA3B8, symBinAddr: 0x100016E74, symSize: 0x40 }
  - { offsetInCU: 0xBE508, offset: 0xD5387, size: 0x8, addend: 0x0, symName: __ZNSt3__13setINS_12basic_stringIcNS_11char_traitsIcEENS_9allocatorIcEEEENS_4lessIS6_EENS4_IS6_EEE6insertB8ue170006ERKS6_, symObjAddr: 0xA3F8, symBinAddr: 0x100016EB4, symSize: 0x4C }
  - { offsetInCU: 0xBE53B, offset: 0xD53BA, size: 0x8, addend: 0x0, symName: __ZNK5Catch7TagInfo3allEv, symObjAddr: 0xA444, symBinAddr: 0x100016F00, symSize: 0x18C }
  - { offsetInCU: 0xBE5BC, offset: 0xD543B, size: 0x8, addend: 0x0, symName: __ZNKSt3__13setINS_12basic_stringIcNS_11char_traitsIcEENS_9allocatorIcEEEENS_4lessIS6_EENS4_IS6_EEE5beginB8ue170006Ev, symObjAddr: 0xA5D0, symBinAddr: 0x10001708C, symSize: 0x2C }
  - { offsetInCU: 0xBE5E0, offset: 0xD545F, size: 0x8, addend: 0x0, symName: __ZNKSt3__13setINS_12basic_stringIcNS_11char_traitsIcEENS_9allocatorIcEEEENS_4lessIS6_EENS4_IS6_EEE3endB8ue170006Ev, symObjAddr: 0xA5FC, symBinAddr: 0x1000170B8, symSize: 0x2C }
  - { offsetInCU: 0xBE604, offset: 0xD5483, size: 0x8, addend: 0x0, symName: __ZNKSt3__121__tree_const_iteratorINS_12basic_stringIcNS_11char_traitsIcEENS_9allocatorIcEEEEPNS_11__tree_nodeIS6_PvEElEdeB8ue170006Ev, symObjAddr: 0xA65C, symBinAddr: 0x100017118, symSize: 0x28 }
  - { offsetInCU: 0xBE628, offset: 0xD54A7, size: 0x8, addend: 0x0, symName: __ZNSt3__112basic_stringIcNS_11char_traitsIcEENS_9allocatorIcEEEpLB8ue170006ERKS5_, symObjAddr: 0xA684, symBinAddr: 0x100017140, symSize: 0x2C }
  - { offsetInCU: 0xBE65B, offset: 0xD54DA, size: 0x8, addend: 0x0, symName: __ZNSt3__121__tree_const_iteratorINS_12basic_stringIcNS_11char_traitsIcEENS_9allocatorIcEEEEPNS_11__tree_nodeIS6_PvEElEppB8ue170006Ev, symObjAddr: 0xA6B0, symBinAddr: 0x10001716C, symSize: 0x38 }
  - { offsetInCU: 0xBE67F, offset: 0xD54FE, size: 0x8, addend: 0x0, symName: __ZNSt3__13mapINS_12basic_stringIcNS_11char_traitsIcEENS_9allocatorIcEEEEN5Catch7TagInfoENS_4lessIS6_EENS4_INS_4pairIKS6_S8_EEEEEC1B8ue170006Ev, symObjAddr: 0xAD7C, symBinAddr: 0x100017838, symSize: 0x2C }
  - { offsetInCU: 0xBE6A7, offset: 0xD5526, size: 0x8, addend: 0x0, symName: __ZNK5Catch8TestCase15getTestCaseInfoEv, symObjAddr: 0xADA8, symBinAddr: 0x100017864, symSize: 0x14 }
  - { offsetInCU: 0xBE6CD, offset: 0xD554C, size: 0x8, addend: 0x0, symName: __ZNSt3__13mapINS_12basic_stringIcNS_11char_traitsIcEENS_9allocatorIcEEEEN5Catch7TagInfoENS_4lessIS6_EENS4_INS_4pairIKS6_S8_EEEEE4findB8ue170006ERSC_, symObjAddr: 0xAE5C, symBinAddr: 0x100017918, symSize: 0x40 }
  - { offsetInCU: 0xBE700, offset: 0xD557F, size: 0x8, addend: 0x0, symName: __ZNSt3__13mapINS_12basic_stringIcNS_11char_traitsIcEENS_9allocatorIcEEEEN5Catch7TagInfoENS_4lessIS6_EENS4_INS_4pairIKS6_S8_EEEEE3endB8ue170006Ev, symObjAddr: 0xAECC, symBinAddr: 0x100017988, symSize: 0x38 }
  - { offsetInCU: 0xBE73D, offset: 0xD55BC, size: 0x8, addend: 0x0, symName: __ZNSt3__13mapINS_12basic_stringIcNS_11char_traitsIcEENS_9allocatorIcEEEEN5Catch7TagInfoENS_4lessIS6_EENS4_INS_4pairIKS6_S8_EEEEE6insertB8ue170006INSB_IS6_S8_EEvEENSB_INS_14__map_iteratorINS_15__tree_iteratorINS_12__value_typeIS6_S8_EEPNS_11__tree_nodeISL_PvEElEEEEbEEOT_, symObjAddr: 0xAF04, symBinAddr: 0x1000179C0, symSize: 0x4C }
  - { offsetInCU: 0xBE77B, offset: 0xD55FA, size: 0x8, addend: 0x0, symName: __ZN5Catch7TagInfoC1Ev, symObjAddr: 0xAF90, symBinAddr: 0x100017A4C, symSize: 0x2C }
  - { offsetInCU: 0xBE7A7, offset: 0xD5626, size: 0x8, addend: 0x0, symName: __ZNSt3__14pairINS_12basic_stringIcNS_11char_traitsIcEENS_9allocatorIcEEEEN5Catch7TagInfoEED1Ev, symObjAddr: 0xAFBC, symBinAddr: 0x100017A78, symSize: 0x2C }
  - { offsetInCU: 0xBE7D1, offset: 0xD5650, size: 0x8, addend: 0x0, symName: __ZN5Catch7TagInfoD1Ev, symObjAddr: 0xAFE8, symBinAddr: 0x100017AA4, symSize: 0x2C }
  - { offsetInCU: 0xBE7FD, offset: 0xD567C, size: 0x8, addend: 0x0, symName: __ZNKSt3__114__map_iteratorINS_15__tree_iteratorINS_12__value_typeINS_12basic_stringIcNS_11char_traitsIcEENS_9allocatorIcEEEEN5Catch7TagInfoEEEPNS_11__tree_nodeISB_PvEElEEEptB8ue170006Ev, symObjAddr: 0xB014, symBinAddr: 0x100017AD0, symSize: 0x2C }
  - { offsetInCU: 0xBE821, offset: 0xD56A0, size: 0x8, addend: 0x0, symName: __ZNSt3__13mapINS_12basic_stringIcNS_11char_traitsIcEENS_9allocatorIcEEEEN5Catch7TagInfoENS_4lessIS6_EENS4_INS_4pairIKS6_S8_EEEEE5beginB8ue170006Ev, symObjAddr: 0xB040, symBinAddr: 0x100017AFC, symSize: 0x38 }
  - { offsetInCU: 0xBE845, offset: 0xD56C4, size: 0x8, addend: 0x0, symName: __ZNKSt3__114__map_iteratorINS_15__tree_iteratorINS_12__value_typeINS_12basic_stringIcNS_11char_traitsIcEENS_9allocatorIcEEEEN5Catch7TagInfoEEEPNS_11__tree_nodeISB_PvEElEEEdeB8ue170006Ev, symObjAddr: 0xB0A8, symBinAddr: 0x100017B64, symSize: 0x28 }
  - { offsetInCU: 0xBE873, offset: 0xD56F2, size: 0x8, addend: 0x0, symName: __ZN5Catch20ReusableStringStreamlsINSt3__18__iom_t6EEERS0_RKT_, symObjAddr: 0xB0D0, symBinAddr: 0x100017B8C, symSize: 0x38 }
  - { offsetInCU: 0xBE8AF, offset: 0xD572E, size: 0x8, addend: 0x0, symName: __ZN5Catch20ReusableStringStreamlsImEERS0_RKT_, symObjAddr: 0xB134, symBinAddr: 0x100017BF0, symSize: 0x3C }
  - { offsetInCU: 0xBE8EB, offset: 0xD576A, size: 0x8, addend: 0x0, symName: __ZN5Catch5clara8TextFlow6Column5widthEm, symObjAddr: 0xB170, symBinAddr: 0x100017C2C, symSize: 0x6C }
  - { offsetInCU: 0xBE91E, offset: 0xD579D, size: 0x8, addend: 0x0, symName: __ZN5Catch5clara8TextFlow6ColumnC1ERKS2_, symObjAddr: 0xB1DC, symBinAddr: 0x100017C98, symSize: 0x34 }
  - { offsetInCU: 0xBE953, offset: 0xD57D2, size: 0x8, addend: 0x0, symName: __ZNSt3__114__map_iteratorINS_15__tree_iteratorINS_12__value_typeINS_12basic_stringIcNS_11char_traitsIcEENS_9allocatorIcEEEEN5Catch7TagInfoEEEPNS_11__tree_nodeISB_PvEElEEEppB8ue170006Ev, symObjAddr: 0xB210, symBinAddr: 0x100017CCC, symSize: 0x2C }
  - { offsetInCU: 0xBE977, offset: 0xD57F6, size: 0x8, addend: 0x0, symName: __ZNKSt3__13mapINS_12basic_stringIcNS_11char_traitsIcEENS_9allocatorIcEEEEN5Catch7TagInfoENS_4lessIS6_EENS4_INS_4pairIKS6_S8_EEEEE4sizeB8ue170006Ev, symObjAddr: 0xB23C, symBinAddr: 0x100017CF8, symSize: 0x28 }
  - { offsetInCU: 0xBE99B, offset: 0xD581A, size: 0x8, addend: 0x0, symName: __ZNSt3__13mapINS_12basic_stringIcNS_11char_traitsIcEENS_9allocatorIcEEEEN5Catch7TagInfoENS_4lessIS6_EENS4_INS_4pairIKS6_S8_EEEEED1B8ue170006Ev, symObjAddr: 0xB264, symBinAddr: 0x100017D20, symSize: 0x2C }
  - { offsetInCU: 0xBE9C3, offset: 0xD5842, size: 0x8, addend: 0x0, symName: __ZNKSt3__13mapINS_12basic_stringIcNS_11char_traitsIcEENS_9allocatorIcEEEENS_10shared_ptrIN5Catch16IReporterFactoryEEENS_4lessIS6_EENS4_INS_4pairIKS6_SA_EEEEE5beginB8ue170006Ev, symObjAddr: 0xB5A0, symBinAddr: 0x10001805C, symSize: 0x38 }
  - { offsetInCU: 0xBE9E7, offset: 0xD5866, size: 0x8, addend: 0x0, symName: __ZNKSt3__13mapINS_12basic_stringIcNS_11char_traitsIcEENS_9allocatorIcEEEENS_10shared_ptrIN5Catch16IReporterFactoryEEENS_4lessIS6_EENS4_INS_4pairIKS6_SA_EEEEE3endB8ue170006Ev, symObjAddr: 0xB5D8, symBinAddr: 0x100018094, symSize: 0x38 }
  - { offsetInCU: 0xBEA0B, offset: 0xD588A, size: 0x8, addend: 0x0, symName: __ZNKSt3__120__map_const_iteratorINS_21__tree_const_iteratorINS_12__value_typeINS_12basic_stringIcNS_11char_traitsIcEENS_9allocatorIcEEEENS_10shared_ptrIN5Catch16IReporterFactoryEEEEEPNS_11__tree_nodeISD_PvEElEEEdeB8ue170006Ev, symObjAddr: 0xB640, symBinAddr: 0x1000180FC, symSize: 0x28 }
  - { offsetInCU: 0xBEA2F, offset: 0xD58AE, size: 0x8, addend: 0x0, symName: __ZNSt3__120__map_const_iteratorINS_21__tree_const_iteratorINS_12__value_typeINS_12basic_stringIcNS_11char_traitsIcEENS_9allocatorIcEEEENS_10shared_ptrIN5Catch16IReporterFactoryEEEEEPNS_11__tree_nodeISD_PvEElEEEppB8ue170006Ev, symObjAddr: 0xB694, symBinAddr: 0x100018150, symSize: 0x2C }
  - { offsetInCU: 0xBEA53, offset: 0xD58D2, size: 0x8, addend: 0x0, symName: __ZN5Catch5clara8TextFlow6ColumnplERKS2_, symObjAddr: 0xB924, symBinAddr: 0x1000183E0, symSize: 0xBC }
  - { offsetInCU: 0xBEA98, offset: 0xD5917, size: 0x8, addend: 0x0, symName: __ZNKSt3__110shared_ptrIN5Catch16IReporterFactoryEEptB8ue170006Ev, symObjAddr: 0xB9E0, symBinAddr: 0x10001849C, symSize: 0x18 }
  - { offsetInCU: 0xBEABC, offset: 0xD593B, size: 0x8, addend: 0x0, symName: __ZN5Catch5clara8TextFlow7ColumnsD1Ev, symObjAddr: 0xB9F8, symBinAddr: 0x1000184B4, symSize: 0x2C }
  - { offsetInCU: 0xBEAE8, offset: 0xD5967, size: 0x8, addend: 0x0, symName: __ZNKSt3__13mapINS_12basic_stringIcNS_11char_traitsIcEENS_9allocatorIcEEEENS_10shared_ptrIN5Catch16IReporterFactoryEEENS_4lessIS6_EENS4_INS_4pairIKS6_SA_EEEEE4sizeB8ue170006Ev, symObjAddr: 0xBA24, symBinAddr: 0x1000184E0, symSize: 0x28 }
  - { offsetInCU: 0xBEB25, offset: 0xD59A4, size: 0x8, addend: 0x0, symName: __ZN5Catch6OptionImEC1Ev, symObjAddr: 0xBC48, symBinAddr: 0x100018704, symSize: 0x2C }
  - { offsetInCU: 0xBEB4D, offset: 0xD59CC, size: 0x8, addend: 0x0, symName: __ZNK5Catch6OptionImE7valueOrERKm, symObjAddr: 0xBC74, symBinAddr: 0x100018730, symSize: 0x58 }
  - { offsetInCU: 0xBEB80, offset: 0xD59FF, size: 0x8, addend: 0x0, symName: __ZN5Catch6OptionImEaSERKm, symObjAddr: 0xBCCC, symBinAddr: 0x100018788, symSize: 0x44 }
  - { offsetInCU: 0xBEBB3, offset: 0xD5A32, size: 0x8, addend: 0x0, symName: __ZN5Catch6OptionImED1Ev, symObjAddr: 0xBD10, symBinAddr: 0x1000187CC, symSize: 0x2C }
  - { offsetInCU: 0xBEBDB, offset: 0xD5A5A, size: 0x8, addend: 0x0, symName: __ZNK5Catch8Matchers4Impl18MatcherUntypedBase8toStringEv, symObjAddr: 0xBD3C, symBinAddr: 0x1000187F8, symSize: 0x80 }
  - { offsetInCU: 0xBEC01, offset: 0xD5A80, size: 0x8, addend: 0x0, symName: __ZN5Catch8Matchers4Impl18MatcherUntypedBaseD2Ev, symObjAddr: 0xBDBC, symBinAddr: 0x100018878, symSize: 0x40 }
  - { offsetInCU: 0xBEC2C, offset: 0xD5AAB, size: 0x8, addend: 0x0, symName: __ZN5Catch8Matchers4Impl18MatcherUntypedBaseD1Ev, symObjAddr: 0xBDFC, symBinAddr: 0x1000188B8, symSize: 0x14 }
  - { offsetInCU: 0xBEC57, offset: 0xD5AD6, size: 0x8, addend: 0x0, symName: __ZN5Catch8Matchers4Impl18MatcherUntypedBaseD0Ev, symObjAddr: 0xBE10, symBinAddr: 0x1000188CC, symSize: 0xC }
  - { offsetInCU: 0xBECAA, offset: 0xD5B29, size: 0x8, addend: 0x0, symName: __ZN5Catch8Matchers8Floating16WithinAbsMatcherC2Edd, symObjAddr: 0xBE1C, symBinAddr: 0x1000188D8, symSize: 0x1A0 }
  - { offsetInCU: 0xBECF8, offset: 0xD5B77, size: 0x8, addend: 0x0, symName: __ZN5Catch8Matchers4Impl11MatcherBaseIdEC2Ev, symObjAddr: 0xBFBC, symBinAddr: 0x100018A78, symSize: 0x60 }
  - { offsetInCU: 0xBED3A, offset: 0xD5BB9, size: 0x8, addend: 0x0, symName: __ZN5Catch20ReusableStringStreamlsIA17_cEERS0_RKT_, symObjAddr: 0xC01C, symBinAddr: 0x100018AD8, symSize: 0x38 }
  - { offsetInCU: 0xBED80, offset: 0xD5BFF, size: 0x8, addend: 0x0, symName: __ZN5Catch20ReusableStringStreamlsIA32_cEERS0_RKT_, symObjAddr: 0xC054, symBinAddr: 0x100018B10, symSize: 0x38 }
  - { offsetInCU: 0xBEDBC, offset: 0xD5C3B, size: 0x8, addend: 0x0, symName: __ZN5Catch8Matchers4Impl11MatcherBaseIdED2Ev, symObjAddr: 0xC08C, symBinAddr: 0x100018B48, symSize: 0x2C }
  - { offsetInCU: 0xBEDE8, offset: 0xD5C67, size: 0x8, addend: 0x0, symName: __ZN5Catch8Matchers8Floating16WithinAbsMatcherC1Edd, symObjAddr: 0xC0B8, symBinAddr: 0x100018B74, symSize: 0x3C }
  - { offsetInCU: 0xBEE31, offset: 0xD5CB0, size: 0x8, addend: 0x0, symName: __ZNK5Catch8Matchers8Floating16WithinAbsMatcher5matchERKd, symObjAddr: 0xC0F4, symBinAddr: 0x100018BB0, symSize: 0x78 }
  - { offsetInCU: 0xBEE66, offset: 0xD5CE5, size: 0x8, addend: 0x0, symName: __ZThn32_NK5Catch8Matchers8Floating16WithinAbsMatcher5matchERKd, symObjAddr: 0xC16C, symBinAddr: 0x100018C28, symSize: 0x20 }
  - { offsetInCU: 0xBEE7D, offset: 0xD5CFC, size: 0x8, addend: 0x0, symName: __ZNK5Catch8Matchers8Floating16WithinAbsMatcher8describeEv, symObjAddr: 0xC18C, symBinAddr: 0x100018C48, symSize: 0x128 }
  - { offsetInCU: 0xBEEB2, offset: 0xD5D31, size: 0x8, addend: 0x0, symName: __ZN5Catch8Matchers8Floating17WithinUlpsMatcherC2EdiNS1_17FloatingPointKindE, symObjAddr: 0xC338, symBinAddr: 0x100018DB0, symSize: 0x1AC }
  - { offsetInCU: 0xBEF20, offset: 0xD5D9F, size: 0x8, addend: 0x0, symName: __ZN5Catch20ReusableStringStreamlsIA22_cEERS0_RKT_, symObjAddr: 0xC4E4, symBinAddr: 0x100018F5C, symSize: 0x38 }
  - { offsetInCU: 0xBEF5C, offset: 0xD5DDB, size: 0x8, addend: 0x0, symName: __ZN5Catch20ReusableStringStreamlsIiEERS0_RKT_, symObjAddr: 0xC51C, symBinAddr: 0x100018F94, symSize: 0x3C }
  - { offsetInCU: 0xBEFAE, offset: 0xD5E2D, size: 0x8, addend: 0x0, symName: __ZN5Catch20ReusableStringStreamlsIA31_cEERS0_RKT_, symObjAddr: 0xC558, symBinAddr: 0x100018FD0, symSize: 0x38 }
  - { offsetInCU: 0xBEFEA, offset: 0xD5E69, size: 0x8, addend: 0x0, symName: __ZN5Catch8Matchers8Floating17WithinUlpsMatcherC1EdiNS1_17FloatingPointKindE, symObjAddr: 0xC590, symBinAddr: 0x100019008, symSize: 0x44 }
  - { offsetInCU: 0xBF042, offset: 0xD5EC1, size: 0x8, addend: 0x0, symName: __ZNK5Catch8Matchers8Floating17WithinUlpsMatcher5matchERKd, symObjAddr: 0xC5D4, symBinAddr: 0x10001904C, symSize: 0x1A4 }
  - { offsetInCU: 0xBF077, offset: 0xD5EF6, size: 0x8, addend: 0x0, symName: __ZN5Catch20ReusableStringStreamlsINS_14SourceLineInfoEEERS0_RKT_, symObjAddr: 0xC9AC, symBinAddr: 0x100019424, symSize: 0x38 }
  - { offsetInCU: 0xBF0B3, offset: 0xD5F32, size: 0x8, addend: 0x0, symName: __ZThn32_NK5Catch8Matchers8Floating17WithinUlpsMatcher5matchERKd, symObjAddr: 0xCA20, symBinAddr: 0x10001945C, symSize: 0x20 }
  - { offsetInCU: 0xBF0CA, offset: 0xD5F49, size: 0x8, addend: 0x0, symName: __ZNK5Catch8Matchers8Floating17WithinUlpsMatcher8describeEv, symObjAddr: 0xCA40, symBinAddr: 0x10001947C, symSize: 0x188 }
  - { offsetInCU: 0xBF0F0, offset: 0xD5F6F, size: 0x8, addend: 0x0, symName: __ZN5Catch8Matchers9StdString11CasedStringC2ERKNSt3__112basic_stringIcNS3_11char_traitsIcEENS3_9allocatorIcEEEENS_13CaseSensitive6ChoiceE, symObjAddr: 0xCD9C, symBinAddr: 0x1000197D8, symSize: 0x44 }
  - { offsetInCU: 0xBF139, offset: 0xD5FB8, size: 0x8, addend: 0x0, symName: __ZNK5Catch8Matchers9StdString11CasedString12adjustStringERKNSt3__112basic_stringIcNS3_11char_traitsIcEENS3_9allocatorIcEEEE, symObjAddr: 0xCDE0, symBinAddr: 0x10001981C, symSize: 0x60 }
  - { offsetInCU: 0xBF16E, offset: 0xD5FED, size: 0x8, addend: 0x0, symName: __ZN5Catch8Matchers9StdString11CasedStringC1ERKNSt3__112basic_stringIcNS3_11char_traitsIcEENS3_9allocatorIcEEEENS_13CaseSensitive6ChoiceE, symObjAddr: 0xCE40, symBinAddr: 0x10001987C, symSize: 0x3C }
  - { offsetInCU: 0xBF1B7, offset: 0xD6036, size: 0x8, addend: 0x0, symName: __ZNK5Catch8Matchers9StdString11CasedString21caseSensitivitySuffixEv, symObjAddr: 0xCE7C, symBinAddr: 0x1000198B8, symSize: 0x5C }
  - { offsetInCU: 0xBF1DD, offset: 0xD605C, size: 0x8, addend: 0x0, symName: __ZN5Catch8Matchers9StdString17StringMatcherBaseC2ERKNSt3__112basic_stringIcNS3_11char_traitsIcEENS3_9allocatorIcEEEERKNS1_11CasedStringE, symObjAddr: 0xCED8, symBinAddr: 0x100019914, symSize: 0xC8 }
  - { offsetInCU: 0xBF22B, offset: 0xD60AA, size: 0x8, addend: 0x0, symName: __ZN5Catch8Matchers4Impl11MatcherBaseINSt3__112basic_stringIcNS3_11char_traitsIcEENS3_9allocatorIcEEEEEC2Ev, symObjAddr: 0xCFA0, symBinAddr: 0x1000199DC, symSize: 0x60 }
  - { offsetInCU: 0xBF257, offset: 0xD60D6, size: 0x8, addend: 0x0, symName: __ZN5Catch8Matchers9StdString11CasedStringC1ERKS2_, symObjAddr: 0xD000, symBinAddr: 0x100019A3C, symSize: 0x34 }
  - { offsetInCU: 0xBF28C, offset: 0xD610B, size: 0x8, addend: 0x0, symName: __ZN5Catch8Matchers9StdString11CasedStringD1Ev, symObjAddr: 0xD034, symBinAddr: 0x100019A70, symSize: 0x2C }
  - { offsetInCU: 0xBF2B8, offset: 0xD6137, size: 0x8, addend: 0x0, symName: __ZN5Catch8Matchers4Impl11MatcherBaseINSt3__112basic_stringIcNS3_11char_traitsIcEENS3_9allocatorIcEEEEED2Ev, symObjAddr: 0xD060, symBinAddr: 0x100019A9C, symSize: 0x2C }
  - { offsetInCU: 0xBF2E4, offset: 0xD6163, size: 0x8, addend: 0x0, symName: __ZNK5Catch8Matchers9StdString17StringMatcherBase8describeEv, symObjAddr: 0xD08C, symBinAddr: 0x100019AC8, symSize: 0x1AC }
  - { offsetInCU: 0xBF31A, offset: 0xD6199, size: 0x8, addend: 0x0, symName: __ZN5Catch8Matchers9StdString13EqualsMatcherC2ERKNS1_11CasedStringE, symObjAddr: 0xD238, symBinAddr: 0x100019C74, symSize: 0xA4 }
  - { offsetInCU: 0xBF354, offset: 0xD61D3, size: 0x8, addend: 0x0, symName: __ZN5Catch8Matchers9StdString13EqualsMatcherC1ERKNS1_11CasedStringE, symObjAddr: 0xD2DC, symBinAddr: 0x100019D18, symSize: 0x34 }
  - { offsetInCU: 0xBF38E, offset: 0xD620D, size: 0x8, addend: 0x0, symName: __ZNK5Catch8Matchers9StdString13EqualsMatcher5matchERKNSt3__112basic_stringIcNS3_11char_traitsIcEENS3_9allocatorIcEEEE, symObjAddr: 0xD310, symBinAddr: 0x100019D4C, symSize: 0x64 }
  - { offsetInCU: 0xBF3C3, offset: 0xD6242, size: 0x8, addend: 0x0, symName: __ZThn32_NK5Catch8Matchers9StdString13EqualsMatcher5matchERKNSt3__112basic_stringIcNS3_11char_traitsIcEENS3_9allocatorIcEEEE, symObjAddr: 0xD4BC, symBinAddr: 0x100019DB0, symSize: 0x20 }
  - { offsetInCU: 0xBF3DA, offset: 0xD6259, size: 0x8, addend: 0x0, symName: __ZN5Catch8Matchers9StdString15ContainsMatcherC2ERKNS1_11CasedStringE, symObjAddr: 0xD4DC, symBinAddr: 0x100019DD0, symSize: 0xA4 }
  - { offsetInCU: 0xBF414, offset: 0xD6293, size: 0x8, addend: 0x0, symName: __ZN5Catch8Matchers9StdString15ContainsMatcherC1ERKNS1_11CasedStringE, symObjAddr: 0xD580, symBinAddr: 0x100019E74, symSize: 0x34 }
  - { offsetInCU: 0xBF44E, offset: 0xD62CD, size: 0x8, addend: 0x0, symName: __ZNK5Catch8Matchers9StdString15ContainsMatcher5matchERKNSt3__112basic_stringIcNS3_11char_traitsIcEENS3_9allocatorIcEEEE, symObjAddr: 0xD5B4, symBinAddr: 0x100019EA8, symSize: 0x84 }
  - { offsetInCU: 0xBF483, offset: 0xD6302, size: 0x8, addend: 0x0, symName: __ZThn32_NK5Catch8Matchers9StdString15ContainsMatcher5matchERKNSt3__112basic_stringIcNS3_11char_traitsIcEENS3_9allocatorIcEEEE, symObjAddr: 0xD674, symBinAddr: 0x100019F68, symSize: 0x20 }
  - { offsetInCU: 0xBF49A, offset: 0xD6319, size: 0x8, addend: 0x0, symName: __ZN5Catch8Matchers9StdString17StartsWithMatcherC2ERKNS1_11CasedStringE, symObjAddr: 0xD694, symBinAddr: 0x100019F88, symSize: 0xA4 }
  - { offsetInCU: 0xBF4D4, offset: 0xD6353, size: 0x8, addend: 0x0, symName: __ZN5Catch8Matchers9StdString17StartsWithMatcherC1ERKNS1_11CasedStringE, symObjAddr: 0xD738, symBinAddr: 0x10001A02C, symSize: 0x34 }
  - { offsetInCU: 0xBF50E, offset: 0xD638D, size: 0x8, addend: 0x0, symName: __ZNK5Catch8Matchers9StdString17StartsWithMatcher5matchERKNSt3__112basic_stringIcNS3_11char_traitsIcEENS3_9allocatorIcEEEE, symObjAddr: 0xD76C, symBinAddr: 0x10001A060, symSize: 0x84 }
  - { offsetInCU: 0xBF543, offset: 0xD63C2, size: 0x8, addend: 0x0, symName: __ZThn32_NK5Catch8Matchers9StdString17StartsWithMatcher5matchERKNSt3__112basic_stringIcNS3_11char_traitsIcEENS3_9allocatorIcEEEE, symObjAddr: 0xD888, symBinAddr: 0x10001A17C, symSize: 0x20 }
  - { offsetInCU: 0xBF55A, offset: 0xD63D9, size: 0x8, addend: 0x0, symName: __ZN5Catch8Matchers9StdString15EndsWithMatcherC2ERKNS1_11CasedStringE, symObjAddr: 0xD8A8, symBinAddr: 0x10001A19C, symSize: 0xA4 }
  - { offsetInCU: 0xBF594, offset: 0xD6413, size: 0x8, addend: 0x0, symName: __ZN5Catch8Matchers9StdString15EndsWithMatcherC1ERKNS1_11CasedStringE, symObjAddr: 0xD94C, symBinAddr: 0x10001A240, symSize: 0x34 }
  - { offsetInCU: 0xBF5CE, offset: 0xD644D, size: 0x8, addend: 0x0, symName: __ZNK5Catch8Matchers9StdString15EndsWithMatcher5matchERKNSt3__112basic_stringIcNS3_11char_traitsIcEENS3_9allocatorIcEEEE, symObjAddr: 0xD980, symBinAddr: 0x10001A274, symSize: 0x84 }
  - { offsetInCU: 0xBF603, offset: 0xD6482, size: 0x8, addend: 0x0, symName: __ZThn32_NK5Catch8Matchers9StdString15EndsWithMatcher5matchERKNSt3__112basic_stringIcNS3_11char_traitsIcEENS3_9allocatorIcEEEE, symObjAddr: 0xDAB4, symBinAddr: 0x10001A3A8, symSize: 0x20 }
  - { offsetInCU: 0xBF629, offset: 0xD64A8, size: 0x8, addend: 0x0, symName: __ZN5Catch8Matchers9StdString12RegexMatcherC2ENSt3__112basic_stringIcNS3_11char_traitsIcEENS3_9allocatorIcEEEENS_13CaseSensitive6ChoiceE, symObjAddr: 0xDAD4, symBinAddr: 0x10001A3C8, symSize: 0x78 }
  - { offsetInCU: 0xBF673, offset: 0xD64F2, size: 0x8, addend: 0x0, symName: __ZN5Catch8Matchers9StdString12RegexMatcherC1ENSt3__112basic_stringIcNS3_11char_traitsIcEENS3_9allocatorIcEEEENS_13CaseSensitive6ChoiceE, symObjAddr: 0xDB80, symBinAddr: 0x10001A440, symSize: 0x3C }
  - { offsetInCU: 0xBF6BD, offset: 0xD653C, size: 0x8, addend: 0x0, symName: __ZNK5Catch8Matchers9StdString12RegexMatcher5matchERKNSt3__112basic_stringIcNS3_11char_traitsIcEENS3_9allocatorIcEEEE, symObjAddr: 0xDBBC, symBinAddr: 0x10001A47C, symSize: 0xB0 }
  - { offsetInCU: 0xBF715, offset: 0xD6594, size: 0x8, addend: 0x0, symName: __ZNSt3__111basic_regexIcNS_12regex_traitsIcEEEC1B8ue170006INS_11char_traitsIcEENS_9allocatorIcEEEERKNS_12basic_stringIcT_T0_EENS_15regex_constants18syntax_option_typeE, symObjAddr: 0xDCA8, symBinAddr: 0x10001A568, symSize: 0x3C }
  - { offsetInCU: 0xBF76D, offset: 0xD65EC, size: 0x8, addend: 0x0, symName: __ZNSt3__111basic_regexIcNS_12regex_traitsIcEEED1Ev, symObjAddr: 0xDD38, symBinAddr: 0x10001A5F8, symSize: 0x2C }
  - { offsetInCU: 0xBF799, offset: 0xD6618, size: 0x8, addend: 0x0, symName: __ZThn32_NK5Catch8Matchers9StdString12RegexMatcher5matchERKNSt3__112basic_stringIcNS3_11char_traitsIcEENS3_9allocatorIcEEEE, symObjAddr: 0xDD64, symBinAddr: 0x10001A624, symSize: 0x20 }
  - { offsetInCU: 0xBF7B0, offset: 0xD662F, size: 0x8, addend: 0x0, symName: __ZNK5Catch8Matchers9StdString12RegexMatcher8describeEv, symObjAddr: 0xDD84, symBinAddr: 0x10001A644, symSize: 0xDC }
  - { offsetInCU: 0xBF7D6, offset: 0xD6655, size: 0x8, addend: 0x0, symName: __ZN5Catch11MessageInfoC2ERKNS_9StringRefERKNS_14SourceLineInfoENS_9ResultWas6OfTypeE, symObjAddr: 0xE038, symBinAddr: 0x10001A8CC, symSize: 0x70 }
  - { offsetInCU: 0xBF82E, offset: 0xD66AD, size: 0x8, addend: 0x0, symName: __ZN5Catch11MessageInfoC1ERKNS_9StringRefERKNS_14SourceLineInfoENS_9ResultWas6OfTypeE, symObjAddr: 0xE0A8, symBinAddr: 0x10001A93C, symSize: 0x44 }
  - { offsetInCU: 0xBF886, offset: 0xD6705, size: 0x8, addend: 0x0, symName: __ZNK5Catch11MessageInfoeqERKS0_, symObjAddr: 0xE0EC, symBinAddr: 0x10001A980, symSize: 0x30 }
  - { offsetInCU: 0xBF8BB, offset: 0xD673A, size: 0x8, addend: 0x0, symName: __ZNK5Catch11MessageInfoltERKS0_, symObjAddr: 0xE11C, symBinAddr: 0x10001A9B0, symSize: 0x30 }
  - { offsetInCU: 0xBF8F0, offset: 0xD676F, size: 0x8, addend: 0x0, symName: __ZN5Catch14MessageBuilderC2ERKNS_9StringRefERKNS_14SourceLineInfoENS_9ResultWas6OfTypeE, symObjAddr: 0xE14C, symBinAddr: 0x10001A9E0, symSize: 0x50 }
  - { offsetInCU: 0xBF94D, offset: 0xD67CC, size: 0x8, addend: 0x0, symName: __ZN5Catch13MessageStreamC2Ev, symObjAddr: 0xE19C, symBinAddr: 0x10001AA30, symSize: 0x2C }
  - { offsetInCU: 0xBF988, offset: 0xD6807, size: 0x8, addend: 0x0, symName: __ZN5Catch13ScopedMessageC2ERKNS_14MessageBuilderE, symObjAddr: 0xE1C8, symBinAddr: 0x10001AA5C, symSize: 0xAC }
  - { offsetInCU: 0xBF9C2, offset: 0xD6841, size: 0x8, addend: 0x0, symName: __ZN5Catch11MessageInfoC1ERKS0_, symObjAddr: 0xE274, symBinAddr: 0x10001AB08, symSize: 0x34 }
  - { offsetInCU: 0xBF9F7, offset: 0xD6876, size: 0x8, addend: 0x0, symName: __ZN5Catch11MessageInfoD1Ev, symObjAddr: 0xE2A8, symBinAddr: 0x10001AB3C, symSize: 0x2C }
  - { offsetInCU: 0xBFA23, offset: 0xD68A2, size: 0x8, addend: 0x0, symName: __ZN5Catch13ScopedMessageC1ERKNS_14MessageBuilderE, symObjAddr: 0xE2D4, symBinAddr: 0x10001AB68, symSize: 0x34 }
  - { offsetInCU: 0xBFA5D, offset: 0xD68DC, size: 0x8, addend: 0x0, symName: __ZN5Catch13ScopedMessageD2Ev, symObjAddr: 0xE308, symBinAddr: 0x10001AB9C, symSize: 0x78 }
  - { offsetInCU: 0xBFA88, offset: 0xD6907, size: 0x8, addend: 0x0, symName: __ZN5Catch13ScopedMessageD1Ev, symObjAddr: 0xE398, symBinAddr: 0x10001AC2C, symSize: 0x2C }
  - { offsetInCU: 0xBFAB8, offset: 0xD6937, size: 0x8, addend: 0x0, symName: __ZN5Catch8CapturerC2ENS_9StringRefERKNS_14SourceLineInfoENS_9ResultWas6OfTypeES1_, symObjAddr: 0xE3C4, symBinAddr: 0x10001AC58, symSize: 0x3D4 }
  - { offsetInCU: 0xBFBB6, offset: 0xD6A35, size: 0x8, addend: 0x0, symName: __ZNSt3__16vectorIN5Catch11MessageInfoENS_9allocatorIS2_EEEC1B8ue170006Ev, symObjAddr: 0xE798, symBinAddr: 0x10001B02C, symSize: 0x2C }
  - { offsetInCU: 0xBFC1A, offset: 0xD6A99, size: 0x8, addend: 0x0, symName: __ZNSt3__15stackIcNS_5dequeIcNS_9allocatorIcEEEEEC1B8ue170006Ev, symObjAddr: 0xE7C4, symBinAddr: 0x10001B058, symSize: 0x2C }
  - { offsetInCU: 0xBFC42, offset: 0xD6AC1, size: 0x8, addend: 0x0, symName: __ZNSt3__15stackIcNS_5dequeIcNS_9allocatorIcEEEEE4pushB8ue170006ERKc, symObjAddr: 0xE7F0, symBinAddr: 0x10001B084, symSize: 0x2C }
  - { offsetInCU: 0xBFC75, offset: 0xD6AF4, size: 0x8, addend: 0x0, symName: __ZNSt3__15stackIcNS_5dequeIcNS_9allocatorIcEEEEE3popB8ue170006Ev, symObjAddr: 0xE81C, symBinAddr: 0x10001B0B0, symSize: 0x24 }
  - { offsetInCU: 0xBFC99, offset: 0xD6B18, size: 0x8, addend: 0x0, symName: __ZNKSt3__15stackIcNS_5dequeIcNS_9allocatorIcEEEEE4sizeB8ue170006Ev, symObjAddr: 0xE840, symBinAddr: 0x10001B0D4, symSize: 0x24 }
  - { offsetInCU: 0xBFCC2, offset: 0xD6B41, size: 0x8, addend: 0x0, symName: __ZNSt3__16vectorIN5Catch11MessageInfoENS_9allocatorIS2_EEE12emplace_backIJRNS1_9StringRefERKNS1_14SourceLineInfoERNS1_9ResultWas6OfTypeEEEEvDpOT_, symObjAddr: 0xE864, symBinAddr: 0x10001B0F8, symSize: 0x84 }
  - { offsetInCU: 0xBFD38, offset: 0xD6BB7, size: 0x8, addend: 0x0, symName: '__ZZN5Catch8CapturerC1ENS_9StringRefERKNS_14SourceLineInfoENS_9ResultWas6OfTypeES1_ENK4$_11clEmm', symObjAddr: 0xE8E8, symBinAddr: 0x10001B17C, symSize: 0x140 }
  - { offsetInCU: 0xBFD7E, offset: 0xD6BFD, size: 0x8, addend: 0x0, symName: __ZNSt3__16vectorIN5Catch11MessageInfoENS_9allocatorIS2_EEE4backB8ue170006Ev, symObjAddr: 0xEA28, symBinAddr: 0x10001B2BC, symSize: 0x1C }
  - { offsetInCU: 0xBFDA2, offset: 0xD6C21, size: 0x8, addend: 0x0, symName: __ZNSt3__15stackIcNS_5dequeIcNS_9allocatorIcEEEEED1Ev, symObjAddr: 0xEA44, symBinAddr: 0x10001B2D8, symSize: 0x2C }
  - { offsetInCU: 0xBFDCC, offset: 0xD6C4B, size: 0x8, addend: 0x0, symName: __ZN5Catch8CapturerC1ENS_9StringRefERKNS_14SourceLineInfoENS_9ResultWas6OfTypeES1_, symObjAddr: 0xEA70, symBinAddr: 0x10001B304, symSize: 0x4C }
  - { offsetInCU: 0xBFE35, offset: 0xD6CB4, size: 0x8, addend: 0x0, symName: __ZN5Catch8CapturerD2Ev, symObjAddr: 0xEABC, symBinAddr: 0x10001B350, symSize: 0x108 }
  - { offsetInCU: 0xBFE7D, offset: 0xD6CFC, size: 0x8, addend: 0x0, symName: __ZNKSt3__16vectorIN5Catch11MessageInfoENS_9allocatorIS2_EEE4sizeB8ue170006Ev, symObjAddr: 0xEBC4, symBinAddr: 0x10001B458, symSize: 0x28 }
  - { offsetInCU: 0xBFEA1, offset: 0xD6D20, size: 0x8, addend: 0x0, symName: __ZNSt3__16vectorIN5Catch11MessageInfoENS_9allocatorIS2_EEEixB8ue170006Em, symObjAddr: 0xEBEC, symBinAddr: 0x10001B480, symSize: 0x2C }
  - { offsetInCU: 0xBFED6, offset: 0xD6D55, size: 0x8, addend: 0x0, symName: __ZN5Catch8CapturerD1Ev, symObjAddr: 0xEC18, symBinAddr: 0x10001B4AC, symSize: 0x2C }
  - { offsetInCU: 0xBFF01, offset: 0xD6D80, size: 0x8, addend: 0x0, symName: __ZN5Catch8Capturer12captureValueEmRKNSt3__112basic_stringIcNS1_11char_traitsIcEENS1_9allocatorIcEEEE, symObjAddr: 0xEC44, symBinAddr: 0x10001B4D8, symSize: 0xC8 }
  - { offsetInCU: 0xBFF4A, offset: 0xD6DC9, size: 0x8, addend: 0x0, symName: __ZN5Catch16RedirectedStreamC2ERNSt3__113basic_ostreamIcNS1_11char_traitsIcEEEES6_, symObjAddr: 0xED0C, symBinAddr: 0x10001B5A0, symSize: 0x98 }
