---
triple:          'arm64-apple-darwin'
binary-path:     main
relocations:
  - { offsetInCU: 0x5C, offset: 0x5C, size: 0x8, addend: 0x0, symName: __ZNSt3__1L19piecewise_constructE, symObjAddr: 0xA3F7, symBinAddr: 0x1000BAA28, symSize: 0x0 }
  - { offsetInCU: 0xA6E5, offset: 0xA6E5, size: 0x8, addend: 0x0, symName: __ZNSt3__117__floyd_sift_downB8ue170006INS_17_ClassicAlgPolicyERNS_7greaterIN5Utils16CompareContainerIdiEEEENS_11__wrap_iterIPS5_EEEET1_SB_OT0_NS_15iterator_traitsISB_E15difference_typeE, symObjAddr: 0x87FC, symBinAddr: 0x10000BF44, symSize: 0x154 }
  - { offsetInCU: 0xB8F7, offset: 0xB8F7, size: 0x8, addend: 0x0, symName: __ZNSt3__1neB8ue170006IP12DirectedEdgeEEbRKNS_11__wrap_iterIT_EES7_, symObjAddr: 0x268, symBinAddr: 0x1000039B0, symSize: 0x34 }
  - { offsetInCU: 0xBD45, offset: 0xBD45, size: 0x8, addend: 0x0, symName: __ZNSt3__1eqB8ue170006ERKNS_14__map_iteratorINS_15__tree_iteratorINS_12__value_typeIi12DirectedEdgeEEPNS_11__tree_nodeIS4_PvEElEEEESC_, symObjAddr: 0xC3C, symBinAddr: 0x100004384, symSize: 0x30 }
  - { offsetInCU: 0xBD82, offset: 0xBD82, size: 0x8, addend: 0x0, symName: __ZNSt3__17reverseB8ue170006INS_11__wrap_iterIP12DirectedEdgeEEEEvT_S5_, symObjAddr: 0xD68, symBinAddr: 0x1000044B0, symSize: 0x3C }
  - { offsetInCU: 0xBDC1, offset: 0xBDC1, size: 0x8, addend: 0x0, symName: __ZNSt3__1eqB8ue170006IP12DirectedEdgeEEbRKNS_11__wrap_iterIT_EES7_, symObjAddr: 0xDA4, symBinAddr: 0x1000044EC, symSize: 0x48 }
  - { offsetInCU: 0xBE04, offset: 0xBE04, size: 0x8, addend: 0x0, symName: __ZNSt3__122__make_exception_guardB8ue170006INS_6vectorINS1_I12DirectedEdgeNS_9allocatorIS2_EEEENS3_IS5_EEE16__destroy_vectorEEENS_28__exception_guard_exceptionsIT_EESA_, symObjAddr: 0x1304, symBinAddr: 0x100004A4C, symSize: 0x40 }
  - { offsetInCU: 0xBE39, offset: 0xBE39, size: 0x8, addend: 0x0, symName: __ZNSt3__119__allocate_at_leastB8ue170006INS_9allocatorINS_6vectorI12DirectedEdgeNS1_IS3_EEEEEEEENS_19__allocation_resultINS_16allocator_traitsIT_E7pointerEEERS9_m, symObjAddr: 0x15F4, symBinAddr: 0x100004D3C, symSize: 0x40 }
  - { offsetInCU: 0xBE7C, offset: 0xBE7C, size: 0x8, addend: 0x0, symName: __ZNSt3__13minB8ue170006ImEERKT_S3_S3_, symObjAddr: 0x174C, symBinAddr: 0x100004E94, symSize: 0x2C }
  - { offsetInCU: 0xC0C0, offset: 0xC0C0, size: 0x8, addend: 0x0, symName: __ZNSt3__13minB8ue170006ImNS_6__lessIvvEEEERKT_S5_S5_T0_, symObjAddr: 0x17B0, symBinAddr: 0x100004EF8, symSize: 0x54 }
  - { offsetInCU: 0xC15F, offset: 0xC15F, size: 0x8, addend: 0x0, symName: __ZNSt3__120__throw_length_errorB8ue170006EPKc, symObjAddr: 0x1858, symBinAddr: 0x100004FA0, symSize: 0x64 }
  - { offsetInCU: 0xC189, offset: 0xC189, size: 0x8, addend: 0x0, symName: __ZNSt3__117__libcpp_allocateB8ue170006Emm, symObjAddr: 0x19CC, symBinAddr: 0x100005114, symSize: 0x28 }
  - { offsetInCU: 0xC1C6, offset: 0xC1C6, size: 0x8, addend: 0x0, symName: __ZNSt3__121__libcpp_operator_newB8ue170006IJmEEEPvDpT_, symObjAddr: 0x19F4, symBinAddr: 0x10000513C, symSize: 0x24 }
  - { offsetInCU: 0xC1FF, offset: 0xC1FF, size: 0x8, addend: 0x0, symName: __ZNSt3__112__to_addressB8ue170006INS_6vectorI12DirectedEdgeNS_9allocatorIS2_EEEEEEPT_S7_, symObjAddr: 0x1B10, symBinAddr: 0x100005258, symSize: 0x14 }
  - { offsetInCU: 0xC234, offset: 0xC234, size: 0x8, addend: 0x0, symName: __ZNSt3__130__uninitialized_allocator_copyB8ue170006INS_9allocatorINS_6vectorI12DirectedEdgeNS1_IS3_EEEEEEPS5_S7_S7_EET2_RT_T0_T1_S8_, symObjAddr: 0x1BC0, symBinAddr: 0x100005308, symSize: 0x80 }
  - { offsetInCU: 0xC2D1, offset: 0xC2D1, size: 0x8, addend: 0x0, symName: __ZNSt3__114__unwrap_rangeB8ue170006IPNS_6vectorI12DirectedEdgeNS_9allocatorIS2_EEEES6_EENS_4pairIT0_S8_EET_SA_, symObjAddr: 0x1CB8, symBinAddr: 0x100005400, symSize: 0x60 }
  - { offsetInCU: 0xC31D, offset: 0xC31D, size: 0x8, addend: 0x0, symName: __ZNSt3__135__uninitialized_allocator_copy_implB8ue170006INS_9allocatorINS_6vectorI12DirectedEdgeNS1_IS3_EEEEEEPS5_S7_S7_EET2_RT_T0_T1_S8_, symObjAddr: 0x1D18, symBinAddr: 0x100005460, symSize: 0xF4 }
  - { offsetInCU: 0xC3BB, offset: 0xC3BB, size: 0x8, addend: 0x0, symName: __ZNSt3__113__unwrap_iterB8ue170006IPNS_6vectorI12DirectedEdgeNS_9allocatorIS2_EEEENS_18__unwrap_iter_implIS6_Lb1EEELi0EEEDTclsrT0_8__unwrapclsr3stdE7declvalIT_EEEESA_, symObjAddr: 0x1E0C, symBinAddr: 0x100005554, symSize: 0x24 }
  - { offsetInCU: 0xC3FF, offset: 0xC3FF, size: 0x8, addend: 0x0, symName: __ZNSt3__113__rewrap_iterB8ue170006IPNS_6vectorI12DirectedEdgeNS_9allocatorIS2_EEEES6_NS_18__unwrap_iter_implIS6_Lb1EEEEET_S9_T0_, symObjAddr: 0x1E30, symBinAddr: 0x100005578, symSize: 0x3C }
  - { offsetInCU: 0xC454, offset: 0xC454, size: 0x8, addend: 0x0, symName: __ZNSt3__19make_pairB8ue170006IPNS_6vectorI12DirectedEdgeNS_9allocatorIS2_EEEES6_EENS_4pairINS_18__unwrap_ref_decayIT_E4typeENS8_IT0_E4typeEEEOS9_OSC_, symObjAddr: 0x1E6C, symBinAddr: 0x1000055B4, symSize: 0x38 }
  - { offsetInCU: 0xC577, offset: 0xC577, size: 0x8, addend: 0x0, symName: __ZNSt3__122__make_exception_guardB8ue170006INS_29_AllocatorDestroyRangeReverseINS_9allocatorINS_6vectorI12DirectedEdgeNS2_IS4_EEEEEEPS6_EEEENS_28__exception_guard_exceptionsIT_EESB_, symObjAddr: 0x1F14, symBinAddr: 0x10000565C, symSize: 0x4C }
  - { offsetInCU: 0xC5AD, offset: 0xC5AD, size: 0x8, addend: 0x0, symName: __ZNSt3__122__make_exception_guardB8ue170006INS_6vectorI12DirectedEdgeNS_9allocatorIS2_EEE16__destroy_vectorEEENS_28__exception_guard_exceptionsIT_EES8_, symObjAddr: 0x23B8, symBinAddr: 0x100005B00, symSize: 0x40 }
  - { offsetInCU: 0xC5E2, offset: 0xC5E2, size: 0x8, addend: 0x0, symName: __ZNSt3__119__allocate_at_leastB8ue170006INS_9allocatorI12DirectedEdgeEEEENS_19__allocation_resultINS_16allocator_traitsIT_E7pointerEEERS6_m, symObjAddr: 0x26A0, symBinAddr: 0x100005DE8, symSize: 0x40 }
  - { offsetInCU: 0xC625, offset: 0xC625, size: 0x8, addend: 0x0, symName: __ZNSt3__112__to_addressB8ue170006I12DirectedEdgeEEPT_S3_, symObjAddr: 0x2964, symBinAddr: 0x1000060AC, symSize: 0x14 }
  - { offsetInCU: 0xC65A, offset: 0xC65A, size: 0x8, addend: 0x0, symName: __ZNSt3__130__uninitialized_allocator_copyB8ue170006INS_9allocatorI12DirectedEdgeEEPS2_S4_S4_EET2_RT_T0_T1_S5_, symObjAddr: 0x2A14, symBinAddr: 0x10000615C, symSize: 0x80 }
  - { offsetInCU: 0xC6F7, offset: 0xC6F7, size: 0x8, addend: 0x0, symName: __ZNSt3__114__unwrap_rangeB8ue170006IP12DirectedEdgeS2_EENS_4pairIT0_S4_EET_S6_, symObjAddr: 0x2B04, symBinAddr: 0x10000624C, symSize: 0x60 }
  - { offsetInCU: 0xC743, offset: 0xC743, size: 0x8, addend: 0x0, symName: __ZNSt3__135__uninitialized_allocator_copy_implB8ue170006INS_9allocatorI12DirectedEdgeEES2_S2_S2_LPv0EEEPT2_RT_PT0_SA_S6_, symObjAddr: 0x2B64, symBinAddr: 0x1000062AC, symSize: 0x38 }
  - { offsetInCU: 0xC7C4, offset: 0xC7C4, size: 0x8, addend: 0x0, symName: __ZNSt3__113__unwrap_iterB8ue170006IP12DirectedEdgeNS_18__unwrap_iter_implIS2_Lb1EEELi0EEEDTclsrT0_8__unwrapclsr3stdE7declvalIT_EEEES6_, symObjAddr: 0x2B9C, symBinAddr: 0x1000062E4, symSize: 0x24 }
  - { offsetInCU: 0xC808, offset: 0xC808, size: 0x8, addend: 0x0, symName: __ZNSt3__113__rewrap_iterB8ue170006IP12DirectedEdgeS2_NS_18__unwrap_iter_implIS2_Lb1EEEEET_S5_T0_, symObjAddr: 0x2BC0, symBinAddr: 0x100006308, symSize: 0x3C }
  - { offsetInCU: 0xC85D, offset: 0xC85D, size: 0x8, addend: 0x0, symName: __ZNSt3__19make_pairB8ue170006IP12DirectedEdgeS2_EENS_4pairINS_18__unwrap_ref_decayIT_E4typeENS4_IT0_E4typeEEEOS5_OS8_, symObjAddr: 0x2BFC, symBinAddr: 0x100006344, symSize: 0x38 }
  - { offsetInCU: 0xC9AF, offset: 0xC9AF, size: 0x8, addend: 0x0, symName: __ZNSt3__14copyB8ue170006IP12DirectedEdgeS2_EET0_T_S4_S3_, symObjAddr: 0x2CA4, symBinAddr: 0x1000063EC, symSize: 0x40 }
  - { offsetInCU: 0xCA09, offset: 0xCA09, size: 0x8, addend: 0x0, symName: __ZNSt3__16__copyB8ue170006INS_17_ClassicAlgPolicyEP12DirectedEdgeS3_S3_EENS_4pairIT0_T2_EES5_T1_S6_, symObjAddr: 0x2CE4, symBinAddr: 0x10000642C, symSize: 0x44 }
  - { offsetInCU: 0xCA75, offset: 0xCA75, size: 0x8, addend: 0x0, symName: __ZNSt3__123__dispatch_copy_or_moveB8ue170006INS_17_ClassicAlgPolicyENS_11__copy_loopIS1_EENS_14__copy_trivialEP12DirectedEdgeS6_S6_EENS_4pairIT2_T4_EES8_T3_S9_, symObjAddr: 0x2D28, symBinAddr: 0x100006470, symSize: 0x44 }
  - { offsetInCU: 0xCAF3, offset: 0xCAF3, size: 0x8, addend: 0x0, symName: __ZNSt3__121__unwrap_and_dispatchB8ue170006INS_10__overloadINS_11__copy_loopINS_17_ClassicAlgPolicyEEENS_14__copy_trivialEEEP12DirectedEdgeS8_S8_Li0EEENS_4pairIT0_T2_EESA_T1_SB_, symObjAddr: 0x2D6C, symBinAddr: 0x1000064B4, symSize: 0xB4 }
  - { offsetInCU: 0xCBC7, offset: 0xCBC7, size: 0x8, addend: 0x0, symName: __ZNSt3__114__rewrap_rangeB8ue170006IP12DirectedEdgeS2_EET_S3_T0_, symObjAddr: 0x2E68, symBinAddr: 0x1000065B0, symSize: 0x2C }
  - { offsetInCU: 0xCC13, offset: 0xCC13, size: 0x8, addend: 0x0, symName: __ZNSt3__119__copy_trivial_implB8ue170006I12DirectedEdgeS1_EENS_4pairIPT_PT0_EES4_S4_S6_, symObjAddr: 0x2E94, symBinAddr: 0x1000065DC, symSize: 0x80 }
  - { offsetInCU: 0xCC7B, offset: 0xCC7B, size: 0x8, addend: 0x0, symName: __ZNSt3__119__constexpr_memmoveB8ue170006I12DirectedEdgeS1_Li0EEEPT_S3_PT0_NS_15__element_countE, symObjAddr: 0x2F14, symBinAddr: 0x10000665C, symSize: 0x64 }
  - { offsetInCU: 0xCCE9, offset: 0xCCE9, size: 0x8, addend: 0x0, symName: __ZNSt3__19make_pairB8ue170006IRP12DirectedEdgeS2_EENS_4pairINS_18__unwrap_ref_decayIT_E4typeENS5_IT0_E4typeEEEOS6_OS9_, symObjAddr: 0x2F78, symBinAddr: 0x1000066C0, symSize: 0x38 }
  - { offsetInCU: 0xCD8B, offset: 0xCD8B, size: 0x8, addend: 0x0, symName: __ZNSt3__119__libcpp_deallocateB8ue170006EPvmm, symObjAddr: 0x33B4, symBinAddr: 0x100006AFC, symSize: 0x30 }
  - { offsetInCU: 0xCDD3, offset: 0xCDD3, size: 0x8, addend: 0x0, symName: __ZNSt3__127__do_deallocate_handle_sizeB8ue170006IJEEEvPvmDpT_, symObjAddr: 0x33E4, symBinAddr: 0x100006B2C, symSize: 0x28 }
  - { offsetInCU: 0xCE11, offset: 0xCE11, size: 0x8, addend: 0x0, symName: __ZNSt3__124__libcpp_operator_deleteB8ue170006IJPvEEEvDpT_, symObjAddr: 0x340C, symBinAddr: 0x100006B54, symSize: 0x24 }
  - { offsetInCU: 0xCE46, offset: 0xCE46, size: 0x8, addend: 0x0, symName: __ZNSt3__119__allocator_destroyB8ue170006INS_9allocatorINS_6vectorI12DirectedEdgeNS1_IS3_EEEEEENS_16reverse_iteratorIPS5_EES9_EEvRT_T0_T1_, symObjAddr: 0x34E8, symBinAddr: 0x100006C30, symSize: 0x70 }
  - { offsetInCU: 0xCEA9, offset: 0xCEA9, size: 0x8, addend: 0x0, symName: __ZNSt3__1neB8ue170006IPNS_6vectorI12DirectedEdgeNS_9allocatorIS2_EEEES6_EEbRKNS_16reverse_iteratorIT_EERKNS7_IT0_EE, symObjAddr: 0x358C, symBinAddr: 0x100006CD4, symSize: 0x48 }
  - { offsetInCU: 0xCEF5, offset: 0xCEF5, size: 0x8, addend: 0x0, symName: __ZNSt3__112__to_addressB8ue170006INS_16reverse_iteratorIPNS_6vectorI12DirectedEdgeNS_9allocatorIS3_EEEEEEvEEu7__decayIDTclsr19__to_address_helperIT_EE6__callclsr3stdE7declvalIRKS9_EEEEESB_, symObjAddr: 0x3600, symBinAddr: 0x100006D48, symSize: 0x24 }
  - { offsetInCU: 0xCFA7, offset: 0xCFA7, size: 0x8, addend: 0x0, symName: __ZNSt3__112__to_addressB8ue170006IN5Utils16CompareContainerIdiEEEEPT_S5_, symObjAddr: 0x3F28, symBinAddr: 0x100007670, symSize: 0x14 }
  - { offsetInCU: 0xD00F, offset: 0xD00F, size: 0x8, addend: 0x0, symName: __ZNSt3__112__to_addressB8ue170006IdEEPT_S2_, symObjAddr: 0x4BE4, symBinAddr: 0x10000832C, symSize: 0x14 }
  - { offsetInCU: 0xD07B, offset: 0xD07B, size: 0x8, addend: 0x0, symName: __ZNSt3__116forward_as_tupleB8ue170006IJRKiEEENS_5tupleIJDpOT_EEES6_, symObjAddr: 0x4F18, symBinAddr: 0x100008660, symSize: 0x2C }
  - { offsetInCU: 0xD0B4, offset: 0xD0B4, size: 0x8, addend: 0x0, symName: __ZNSt3__116forward_as_tupleB8ue170006IJEEENS_5tupleIJDpOT_EEES4_, symObjAddr: 0x4F44, symBinAddr: 0x10000868C, symSize: 0x4 }
  - { offsetInCU: 0xD101, offset: 0xD101, size: 0x8, addend: 0x0, symName: __ZNSt3__13getB8ue170006ILm0EJRKiEEERNS_13tuple_elementIXT_ENS_5tupleIJDpT0_EEEE4typeERS7_, symObjAddr: 0x5984, symBinAddr: 0x1000090CC, symSize: 0x24 }
  - { offsetInCU: 0xD144, offset: 0xD144, size: 0x8, addend: 0x0, symName: __ZNSt3__127__tree_balance_after_insertB8ue170006IPNS_16__tree_node_baseIPvEEEEvT_S5_, symObjAddr: 0x5A84, symBinAddr: 0x1000091CC, symSize: 0x32C }
  - { offsetInCU: 0xD1C0, offset: 0xD1C0, size: 0x8, addend: 0x0, symName: __ZNSt3__120__tree_is_left_childB8ue170006IPNS_16__tree_node_baseIPvEEEEbT_, symObjAddr: 0x5DF0, symBinAddr: 0x100009538, symSize: 0x2C }
  - { offsetInCU: 0xD1F5, offset: 0xD1F5, size: 0x8, addend: 0x0, symName: __ZNSt3__118__tree_left_rotateB8ue170006IPNS_16__tree_node_baseIPvEEEEvT_, symObjAddr: 0x5E1C, symBinAddr: 0x100009564, symSize: 0xD8 }
  - { offsetInCU: 0xD237, offset: 0xD237, size: 0x8, addend: 0x0, symName: __ZNSt3__119__tree_right_rotateB8ue170006IPNS_16__tree_node_baseIPvEEEEvT_, symObjAddr: 0x5EF4, symBinAddr: 0x10000963C, symSize: 0xCC }
  - { offsetInCU: 0xD2D0, offset: 0xD2D0, size: 0x8, addend: 0x0, symName: __ZNSt3__19push_heapB8ue170006INS_11__wrap_iterIPN5Utils16CompareContainerIdiEEEENS_7greaterIS4_EEEEvT_S9_T0_, symObjAddr: 0x6400, symBinAddr: 0x100009B48, symSize: 0x40 }
  - { offsetInCU: 0xD326, offset: 0xD326, size: 0x8, addend: 0x0, symName: __ZNSt3__13maxB8ue170006ImEERKT_S3_S3_, symObjAddr: 0x6A40, symBinAddr: 0x10000A188, symSize: 0x2C }
  - { offsetInCU: 0xD369, offset: 0xD369, size: 0x8, addend: 0x0, symName: __ZNSt3__13maxB8ue170006ImNS_6__lessIvvEEEERKT_S5_S5_T0_, symObjAddr: 0x6B04, symBinAddr: 0x10000A24C, symSize: 0x54 }
  - { offsetInCU: 0xD3C3, offset: 0xD3C3, size: 0x8, addend: 0x0, symName: __ZNSt3__119__allocate_at_leastB8ue170006INS_9allocatorIN5Utils16CompareContainerIdiEEEEEENS_19__allocation_resultINS_16allocator_traitsIT_E7pointerEEERS8_m, symObjAddr: 0x6C68, symBinAddr: 0x10000A3B0, symSize: 0x40 }
  - { offsetInCU: 0xD406, offset: 0xD406, size: 0x8, addend: 0x0, symName: __ZNSt3__142__uninitialized_allocator_move_if_noexceptB8ue170006INS_9allocatorIN5Utils16CompareContainerIdiEEEENS_16reverse_iteratorIPS4_EES8_S4_vEET1_RT_T0_SC_S9_, symObjAddr: 0x6E1C, symBinAddr: 0x10000A564, symSize: 0x78 }
  - { offsetInCU: 0xD483, offset: 0xD483, size: 0x8, addend: 0x0, symName: __ZNSt3__14swapB8ue170006IPN5Utils16CompareContainerIdiEEEENS_9enable_ifIXaasr21is_move_constructibleIT_EE5valuesr18is_move_assignableIS6_EE5valueEvE4typeERS6_S9_, symObjAddr: 0x6EE0, symBinAddr: 0x10000A628, symSize: 0x3C }
  - { offsetInCU: 0xD4D4, offset: 0xD4D4, size: 0x8, addend: 0x0, symName: __ZNSt3__14moveB8ue170006INS_16reverse_iteratorIPN5Utils16CompareContainerIdiEEEES6_EET0_T_S8_S7_, symObjAddr: 0x6FC8, symBinAddr: 0x10000A710, symSize: 0x78 }
  - { offsetInCU: 0xD52E, offset: 0xD52E, size: 0x8, addend: 0x0, symName: __ZNSt3__16__moveB8ue170006INS_17_ClassicAlgPolicyENS_16reverse_iteratorIPN5Utils16CompareContainerIdiEEEES7_S7_EENS_4pairIT0_T2_EES9_T1_SA_, symObjAddr: 0x7040, symBinAddr: 0x10000A788, symSize: 0x64 }
  - { offsetInCU: 0xD59A, offset: 0xD59A, size: 0x8, addend: 0x0, symName: __ZNSt3__123__dispatch_copy_or_moveB8ue170006INS_17_ClassicAlgPolicyENS_11__move_loopIS1_EENS_14__move_trivialENS_16reverse_iteratorIPN5Utils16CompareContainerIdiEEEESA_SA_EENS_4pairIT2_T4_EESC_T3_SD_, symObjAddr: 0x70A4, symBinAddr: 0x10000A7EC, symSize: 0x64 }
  - { offsetInCU: 0xD618, offset: 0xD618, size: 0x8, addend: 0x0, symName: __ZNSt3__121__unwrap_and_dispatchB8ue170006INS_10__overloadINS_11__move_loopINS_17_ClassicAlgPolicyEEENS_14__move_trivialEEENS_16reverse_iteratorIPN5Utils16CompareContainerIdiEEEESC_SC_Li0EEENS_4pairIT0_T2_EESE_T1_SF_, symObjAddr: 0x7108, symBinAddr: 0x10000A850, symSize: 0x12C }
  - { offsetInCU: 0xD6A8, offset: 0xD6A8, size: 0x8, addend: 0x0, symName: __ZNSt3__114__unwrap_rangeB8ue170006INS_16reverse_iteratorIPN5Utils16CompareContainerIdiEEEES6_EENS_4pairIT0_S8_EET_SA_, symObjAddr: 0x7234, symBinAddr: 0x10000A97C, symSize: 0x84 }
  - { offsetInCU: 0xD862, offset: 0xD862, size: 0x8, addend: 0x0, symName: __ZNSt3__113__unwrap_iterB8ue170006INS_16reverse_iteratorIPN5Utils16CompareContainerIdiEEEENS_18__unwrap_iter_implIS6_Lb0EEELi0EEEDTclsrT0_8__unwrapclsr3stdE7declvalIT_EEEESA_, symObjAddr: 0x7360, symBinAddr: 0x10000AAA8, symSize: 0x44 }
  - { offsetInCU: 0xD8A6, offset: 0xD8A6, size: 0x8, addend: 0x0, symName: __ZNSt3__19make_pairB8ue170006INS_16reverse_iteratorIPN5Utils16CompareContainerIdiEEEES6_EENS_4pairINS_18__unwrap_ref_decayIT_E4typeENS8_IT0_E4typeEEEOS9_OSC_, symObjAddr: 0x73A4, symBinAddr: 0x10000AAEC, symSize: 0x38 }
  - { offsetInCU: 0xD8F5, offset: 0xD8F5, size: 0x8, addend: 0x0, symName: __ZNSt3__114__rewrap_rangeB8ue170006INS_16reverse_iteratorIPN5Utils16CompareContainerIdiEEEES6_EET_S7_T0_, symObjAddr: 0x73DC, symBinAddr: 0x10000AB24, symSize: 0x5C }
  - { offsetInCU: 0xD941, offset: 0xD941, size: 0x8, addend: 0x0, symName: __ZNSt3__113__rewrap_iterB8ue170006INS_16reverse_iteratorIPN5Utils16CompareContainerIdiEEEES6_NS_18__unwrap_iter_implIS6_Lb0EEEEET_S9_T0_, symObjAddr: 0x7438, symBinAddr: 0x10000AB80, symSize: 0x74 }
  - { offsetInCU: 0xD996, offset: 0xD996, size: 0x8, addend: 0x0, symName: __ZNSt3__1neB8ue170006IPN5Utils16CompareContainerIdiEES4_EEbRKNS_16reverse_iteratorIT_EERKNS5_IT0_EE, symObjAddr: 0x74AC, symBinAddr: 0x10000ABF4, symSize: 0x48 }
  - { offsetInCU: 0xDB22, offset: 0xDB22, size: 0x8, addend: 0x0, symName: __ZNSt3__111__push_heapB8ue170006INS_17_ClassicAlgPolicyENS_11__wrap_iterIPN5Utils16CompareContainerIdiEEEENS_7greaterIS5_EEEEvT0_SA_RT1_, symObjAddr: 0x783C, symBinAddr: 0x10000AF84, symSize: 0x5C }
  - { offsetInCU: 0xDB8F, offset: 0xDB8F, size: 0x8, addend: 0x0, symName: __ZNSt3__1miB8ue170006IPN5Utils16CompareContainerIdiEES4_EEDTmicldtfp_4baseEcldtfp0_4baseEERKNS_11__wrap_iterIT_EERKNS6_IT0_EE, symObjAddr: 0x7898, symBinAddr: 0x10000AFE0, symSize: 0x48 }
  - { offsetInCU: 0xDBDB, offset: 0xDBDB, size: 0x8, addend: 0x0, symName: __ZNSt3__19__sift_upB8ue170006INS_17_ClassicAlgPolicyERNS_7greaterIN5Utils16CompareContainerIdiEEEENS_11__wrap_iterIPS5_EEEEvT1_SB_OT0_NS_15iterator_traitsISB_E15difference_typeE, symObjAddr: 0x78E0, symBinAddr: 0x10000B028, symSize: 0x170 }
  - { offsetInCU: 0xDC8B, offset: 0xDC8B, size: 0x8, addend: 0x0, symName: __ZNSt3__16fill_nB8ue170006IPdmdEET_S2_T0_RKT1_, symObjAddr: 0x7CD4, symBinAddr: 0x10000B41C, symSize: 0x44 }
  - { offsetInCU: 0xDCEE, offset: 0xDCEE, size: 0x8, addend: 0x0, symName: __ZNSt3__18__fill_nB8ue170006IPdmdEET_S2_T0_RKT1_, symObjAddr: 0x8028, symBinAddr: 0x10000B770, symSize: 0x64 }
  - { offsetInCU: 0xDD51, offset: 0xDD51, size: 0x8, addend: 0x0, symName: __ZNSt3__121__convert_to_integralB8ue170006Em, symObjAddr: 0x808C, symBinAddr: 0x10000B7D4, symSize: 0x14 }
  - { offsetInCU: 0xDD7D, offset: 0xDD7D, size: 0x8, addend: 0x0, symName: __ZNSt3__119__allocate_at_leastB8ue170006INS_9allocatorIdEEEENS_19__allocation_resultINS_16allocator_traitsIT_E7pointerEEERS5_m, symObjAddr: 0x839C, symBinAddr: 0x10000BAE4, symSize: 0x40 }
  - { offsetInCU: 0xDDC0, offset: 0xDDC0, size: 0x8, addend: 0x0, symName: __ZNSt3__18pop_heapB8ue170006INS_11__wrap_iterIPN5Utils16CompareContainerIdiEEEENS_7greaterIS4_EEEEvT_S9_T0_, symObjAddr: 0x862C, symBinAddr: 0x10000BD74, symSize: 0x58 }
  - { offsetInCU: 0xDE24, offset: 0xDE24, size: 0x8, addend: 0x0, symName: __ZNSt3__110__pop_heapB8ue170006INS_17_ClassicAlgPolicyENS_7greaterIN5Utils16CompareContainerIdiEEEENS_11__wrap_iterIPS5_EEEEvT1_SA_RT0_NS_15iterator_traitsISA_E15difference_typeE, symObjAddr: 0x86B0, symBinAddr: 0x10000BDF8, symSize: 0x14C }
  - { offsetInCU: 0xDED5, offset: 0xDED5, size: 0x8, addend: 0x0, symName: __ZNSt3__1eqB8ue170006IPN5Utils16CompareContainerIdiEEEEbRKNS_11__wrap_iterIT_EES9_, symObjAddr: 0x8950, symBinAddr: 0x10000C098, symSize: 0x48 }
  - { offsetInCU: 0xDF18, offset: 0xDF18, size: 0x8, addend: 0x0, symName: __ZNSt3__1neB8ue170006ERKNS_15__tree_iteratorINS_12__value_typeIi12DirectedEdgeEEPNS_11__tree_nodeIS3_PvEElEESA_, symObjAddr: 0x8DBC, symBinAddr: 0x10000C504, symSize: 0x34 }
  - { offsetInCU: 0xDF55, offset: 0xDF55, size: 0x8, addend: 0x0, symName: __ZNSt3__1eqB8ue170006ERKNS_15__tree_iteratorINS_12__value_typeIi12DirectedEdgeEEPNS_11__tree_nodeIS3_PvEElEESA_, symObjAddr: 0x8EA0, symBinAddr: 0x10000C5E8, symSize: 0x30 }
  - { offsetInCU: 0xDF92, offset: 0xDF92, size: 0x8, addend: 0x0, symName: __ZNSt3__142__uninitialized_allocator_move_if_noexceptB8ue170006INS_9allocatorI12DirectedEdgeEENS_16reverse_iteratorIPS2_EES6_S2_vEET1_RT_T0_SA_S7_, symObjAddr: 0x9514, symBinAddr: 0x10000CC5C, symSize: 0x78 }
  - { offsetInCU: 0xE00F, offset: 0xE00F, size: 0x8, addend: 0x0, symName: __ZNSt3__14swapB8ue170006IP12DirectedEdgeEENS_9enable_ifIXaasr21is_move_constructibleIT_EE5valuesr18is_move_assignableIS4_EE5valueEvE4typeERS4_S7_, symObjAddr: 0x95D8, symBinAddr: 0x10000CD20, symSize: 0x3C }
  - { offsetInCU: 0xE060, offset: 0xE060, size: 0x8, addend: 0x0, symName: __ZNSt3__14moveB8ue170006INS_16reverse_iteratorIP12DirectedEdgeEES4_EET0_T_S6_S5_, symObjAddr: 0x9614, symBinAddr: 0x10000CD5C, symSize: 0x78 }
  - { offsetInCU: 0xE0BA, offset: 0xE0BA, size: 0x8, addend: 0x0, symName: __ZNSt3__16__moveB8ue170006INS_17_ClassicAlgPolicyENS_16reverse_iteratorIP12DirectedEdgeEES5_S5_EENS_4pairIT0_T2_EES7_T1_S8_, symObjAddr: 0x968C, symBinAddr: 0x10000CDD4, symSize: 0x64 }
  - { offsetInCU: 0xE126, offset: 0xE126, size: 0x8, addend: 0x0, symName: __ZNSt3__123__dispatch_copy_or_moveB8ue170006INS_17_ClassicAlgPolicyENS_11__move_loopIS1_EENS_14__move_trivialENS_16reverse_iteratorIP12DirectedEdgeEES8_S8_EENS_4pairIT2_T4_EESA_T3_SB_, symObjAddr: 0x96F0, symBinAddr: 0x10000CE38, symSize: 0x64 }
  - { offsetInCU: 0xE1A4, offset: 0xE1A4, size: 0x8, addend: 0x0, symName: __ZNSt3__121__unwrap_and_dispatchB8ue170006INS_10__overloadINS_11__move_loopINS_17_ClassicAlgPolicyEEENS_14__move_trivialEEENS_16reverse_iteratorIP12DirectedEdgeEESA_SA_Li0EEENS_4pairIT0_T2_EESC_T1_SD_, symObjAddr: 0x9754, symBinAddr: 0x10000CE9C, symSize: 0x12C }
  - { offsetInCU: 0xE234, offset: 0xE234, size: 0x8, addend: 0x0, symName: __ZNSt3__114__unwrap_rangeB8ue170006INS_16reverse_iteratorIP12DirectedEdgeEES4_EENS_4pairIT0_S6_EET_S8_, symObjAddr: 0x9880, symBinAddr: 0x10000CFC8, symSize: 0x84 }
  - { offsetInCU: 0xE354, offset: 0xE354, size: 0x8, addend: 0x0, symName: __ZNSt3__113__unwrap_iterB8ue170006INS_16reverse_iteratorIP12DirectedEdgeEENS_18__unwrap_iter_implIS4_Lb0EEELi0EEEDTclsrT0_8__unwrapclsr3stdE7declvalIT_EEEES8_, symObjAddr: 0x99A4, symBinAddr: 0x10000D0EC, symSize: 0x44 }
  - { offsetInCU: 0xE398, offset: 0xE398, size: 0x8, addend: 0x0, symName: __ZNSt3__19make_pairB8ue170006INS_16reverse_iteratorIP12DirectedEdgeEES4_EENS_4pairINS_18__unwrap_ref_decayIT_E4typeENS6_IT0_E4typeEEEOS7_OSA_, symObjAddr: 0x99E8, symBinAddr: 0x10000D130, symSize: 0x38 }
  - { offsetInCU: 0xE3E7, offset: 0xE3E7, size: 0x8, addend: 0x0, symName: __ZNSt3__114__rewrap_rangeB8ue170006INS_16reverse_iteratorIP12DirectedEdgeEES4_EET_S5_T0_, symObjAddr: 0x9A20, symBinAddr: 0x10000D168, symSize: 0x5C }
  - { offsetInCU: 0xE433, offset: 0xE433, size: 0x8, addend: 0x0, symName: __ZNSt3__113__rewrap_iterB8ue170006INS_16reverse_iteratorIP12DirectedEdgeEES4_NS_18__unwrap_iter_implIS4_Lb0EEEEET_S7_T0_, symObjAddr: 0x9A7C, symBinAddr: 0x10000D1C4, symSize: 0x74 }
  - { offsetInCU: 0xE488, offset: 0xE488, size: 0x8, addend: 0x0, symName: __ZNSt3__1neB8ue170006IP12DirectedEdgeS2_EEbRKNS_16reverse_iteratorIT_EERKNS3_IT0_EE, symObjAddr: 0x9AF0, symBinAddr: 0x10000D238, symSize: 0x48 }
  - { offsetInCU: 0xE540, offset: 0xE540, size: 0x8, addend: 0x0, symName: __ZNSt3__19__reverseB8ue170006INS_17_ClassicAlgPolicyENS_11__wrap_iterIP12DirectedEdgeEES5_EEvT0_T1_, symObjAddr: 0x9E80, symBinAddr: 0x10000D5C8, symSize: 0x3C }
  - { offsetInCU: 0xE591, offset: 0xE591, size: 0x8, addend: 0x0, symName: __ZNSt3__114__reverse_implB8ue170006INS_17_ClassicAlgPolicyENS_11__wrap_iterIP12DirectedEdgeEEEEvT0_S6_NS_26random_access_iterator_tagE, symObjAddr: 0x9EBC, symBinAddr: 0x10000D604, symSize: 0x7C }
  - { offsetInCU: 0xE5E3, offset: 0xE5E3, size: 0x8, addend: 0x0, symName: __ZNSt3__1ltB8ue170006IP12DirectedEdgeEEbRKNS_11__wrap_iterIT_EES7_, symObjAddr: 0x9F38, symBinAddr: 0x10000D680, symSize: 0x48 }
  - { offsetInCU: 0xE626, offset: 0xE626, size: 0x8, addend: 0x0, symName: __ZNSt3__19iter_swapB8ue170006INS_11__wrap_iterIP12DirectedEdgeEES4_EEvT_T0_, symObjAddr: 0x9FE4, symBinAddr: 0x10000D72C, symSize: 0x50 }
  - { offsetInCU: 0xE66E, offset: 0xE66E, size: 0x8, addend: 0x0, symName: __ZNSt3__14swapB8ue170006I12DirectedEdgeEENS_9enable_ifIXaasr21is_move_constructibleIT_EE5valuesr18is_move_assignableIS3_EE5valueEvE4typeERS3_S6_, symObjAddr: 0xA034, symBinAddr: 0x10000D77C, symSize: 0x3C }
  - { offsetInCU: 0xEB6A, offset: 0xEB6A, size: 0x8, addend: 0x0, symName: __ZSt28__throw_bad_array_new_lengthB8ue170006v, symObjAddr: 0x1998, symBinAddr: 0x1000050E0, symSize: 0x34 }
  - { offsetInCU: 0xF9DF, offset: 0xF9DF, size: 0x8, addend: 0x0, symName: __ZNSt3__16vectorIN5Utils16CompareContainerIdiEENS_9allocatorIS3_EEE26__swap_out_circular_bufferERNS_14__split_bufferIS3_RS5_EE, symObjAddr: 0x6888, symBinAddr: 0x100009FD0, symSize: 0x110 }
  - { offsetInCU: 0xFA34, offset: 0xFA34, size: 0x8, addend: 0x0, symName: __ZNSt3__16vectorI12DirectedEdgeNS_9allocatorIS1_EEE26__swap_out_circular_bufferERNS_14__split_bufferIS1_RS3_EE, symObjAddr: 0x91AC, symBinAddr: 0x10000C8F4, symSize: 0x110 }
  - { offsetInCU: 0x11F59, offset: 0x11F59, size: 0x8, addend: 0x0, symName: __ZN10DijkstraSP5relaxE19EdgeWeightedDigraphi, symObjAddr: 0x0, symBinAddr: 0x100003748, symSize: 0x208 }
  - { offsetInCU: 0x12004, offset: 0x12004, size: 0x8, addend: 0x0, symName: __ZNSt3__16vectorI12DirectedEdgeNS_9allocatorIS1_EEE5beginB8ue170006Ev, symObjAddr: 0x208, symBinAddr: 0x100003950, symSize: 0x30 }
  - { offsetInCU: 0x1202A, offset: 0x1202A, size: 0x8, addend: 0x0, symName: __ZNSt3__16vectorI12DirectedEdgeNS_9allocatorIS1_EEE3endB8ue170006Ev, symObjAddr: 0x238, symBinAddr: 0x100003980, symSize: 0x30 }
  - { offsetInCU: 0x12051, offset: 0x12051, size: 0x8, addend: 0x0, symName: __ZNKSt3__111__wrap_iterIP12DirectedEdgeEdeB8ue170006Ev, symObjAddr: 0x29C, symBinAddr: 0x1000039E4, symSize: 0x18 }
  - { offsetInCU: 0x12076, offset: 0x12076, size: 0x8, addend: 0x0, symName: __ZNK12DirectedEdge2toEv, symObjAddr: 0x2B4, symBinAddr: 0x1000039FC, symSize: 0x18 }
  - { offsetInCU: 0x1209B, offset: 0x1209B, size: 0x8, addend: 0x0, symName: __ZNSt3__16vectorIdNS_9allocatorIdEEEixB8ue170006Em, symObjAddr: 0x2CC, symBinAddr: 0x100003A14, symSize: 0x24 }
  - { offsetInCU: 0x120D1, offset: 0x120D1, size: 0x8, addend: 0x0, symName: __ZNK12DirectedEdge6weightEv, symObjAddr: 0x2F0, symBinAddr: 0x100003A38, symSize: 0x18 }
  - { offsetInCU: 0x120F5, offset: 0x120F5, size: 0x8, addend: 0x0, symName: __ZNSt3__13mapIi12DirectedEdgeNS_4lessIiEENS_9allocatorINS_4pairIKiS1_EEEEEixERS6_, symObjAddr: 0x308, symBinAddr: 0x100003A50, symSize: 0x80 }
  - { offsetInCU: 0x1212B, offset: 0x1212B, size: 0x8, addend: 0x0, symName: __ZN5Utils13PriorityQueueIiE4pushEid, symObjAddr: 0x388, symBinAddr: 0x100003AD0, symSize: 0x4C }
  - { offsetInCU: 0x1216C, offset: 0x1216C, size: 0x8, addend: 0x0, symName: __ZNSt3__111__wrap_iterIP12DirectedEdgeEppB8ue170006Ev, symObjAddr: 0x3D4, symBinAddr: 0x100003B1C, symSize: 0x20 }
  - { offsetInCU: 0x12191, offset: 0x12191, size: 0x8, addend: 0x0, symName: __ZNSt3__16vectorI12DirectedEdgeNS_9allocatorIS1_EEED1B8ue170006Ev, symObjAddr: 0x3F4, symBinAddr: 0x100003B3C, symSize: 0x2C }
  - { offsetInCU: 0x121BA, offset: 0x121BA, size: 0x8, addend: 0x0, symName: __ZN10DijkstraSPC2E19EdgeWeightedDigraphi, symObjAddr: 0x420, symBinAddr: 0x100003B68, symSize: 0x1A0 }
  - { offsetInCU: 0x12217, offset: 0x12217, size: 0x8, addend: 0x0, symName: __ZNSt3__13mapIi12DirectedEdgeNS_4lessIiEENS_9allocatorINS_4pairIKiS1_EEEEEC1B8ue170006Ev, symObjAddr: 0x5C0, symBinAddr: 0x100003D08, symSize: 0x2C }
  - { offsetInCU: 0x12240, offset: 0x12240, size: 0x8, addend: 0x0, symName: __ZNSt3__16vectorIdNS_9allocatorIdEEEC1B8ue170006Ev, symObjAddr: 0x5EC, symBinAddr: 0x100003D34, symSize: 0x2C }
  - { offsetInCU: 0x12269, offset: 0x12269, size: 0x8, addend: 0x0, symName: __ZN5Utils13PriorityQueueIiEC1Ev, symObjAddr: 0x618, symBinAddr: 0x100003D60, symSize: 0x2C }
  - { offsetInCU: 0x12293, offset: 0x12293, size: 0x8, addend: 0x0, symName: __ZNSt3__16vectorIdNS_9allocatorIdEEE6assignEmRKd, symObjAddr: 0x644, symBinAddr: 0x100003D8C, symSize: 0x108 }
  - { offsetInCU: 0x122F5, offset: 0x122F5, size: 0x8, addend: 0x0, symName: __ZNSt3__114numeric_limitsIdE8infinityB8ue170006Ev, symObjAddr: 0x74C, symBinAddr: 0x100003E94, symSize: 0x14 }
  - { offsetInCU: 0x12309, offset: 0x12309, size: 0x8, addend: 0x0, symName: __ZNSt3__13mapIi12DirectedEdgeNS_4lessIiEENS_9allocatorINS_4pairIKiS1_EEEEE5clearB8ue170006Ev, symObjAddr: 0x760, symBinAddr: 0x100003EA8, symSize: 0x24 }
  - { offsetInCU: 0x1232E, offset: 0x1232E, size: 0x8, addend: 0x0, symName: __ZNKSt3__114priority_queueIN5Utils16CompareContainerIdiEENS_6vectorIS3_NS_9allocatorIS3_EEEENS_7greaterIS3_EEE5emptyB8ue170006Ev, symObjAddr: 0x784, symBinAddr: 0x100003ECC, symSize: 0x28 }
  - { offsetInCU: 0x12353, offset: 0x12353, size: 0x8, addend: 0x0, symName: __ZNKSt3__114priority_queueIN5Utils16CompareContainerIdiEENS_6vectorIS3_NS_9allocatorIS3_EEEENS_7greaterIS3_EEE3topB8ue170006Ev, symObjAddr: 0x7AC, symBinAddr: 0x100003EF4, symSize: 0x24 }
  - { offsetInCU: 0x12377, offset: 0x12377, size: 0x8, addend: 0x0, symName: __ZNSt3__114priority_queueIN5Utils16CompareContainerIdiEENS_6vectorIS3_NS_9allocatorIS3_EEEENS_7greaterIS3_EEE3popEv, symObjAddr: 0x7D0, symBinAddr: 0x100003F18, symSize: 0x50 }
  - { offsetInCU: 0x123A3, offset: 0x123A3, size: 0x8, addend: 0x0, symName: __ZN19EdgeWeightedDigraphC1ERKS_, symObjAddr: 0x820, symBinAddr: 0x100003F68, symSize: 0x34 }
  - { offsetInCU: 0x123D7, offset: 0x123D7, size: 0x8, addend: 0x0, symName: __ZN19EdgeWeightedDigraphD1Ev, symObjAddr: 0x854, symBinAddr: 0x100003F9C, symSize: 0x2C }
  - { offsetInCU: 0x12402, offset: 0x12402, size: 0x8, addend: 0x0, symName: __ZN5Utils13PriorityQueueIiED1Ev, symObjAddr: 0x880, symBinAddr: 0x100003FC8, symSize: 0x2C }
  - { offsetInCU: 0x1242D, offset: 0x1242D, size: 0x8, addend: 0x0, symName: __ZNSt3__16vectorIdNS_9allocatorIdEEED1B8ue170006Ev, symObjAddr: 0x8AC, symBinAddr: 0x100003FF4, symSize: 0x2C }
  - { offsetInCU: 0x12456, offset: 0x12456, size: 0x8, addend: 0x0, symName: __ZNSt3__13mapIi12DirectedEdgeNS_4lessIiEENS_9allocatorINS_4pairIKiS1_EEEEED1B8ue170006Ev, symObjAddr: 0x8D8, symBinAddr: 0x100004020, symSize: 0x2C }
  - { offsetInCU: 0x1247F, offset: 0x1247F, size: 0x8, addend: 0x0, symName: __ZN10DijkstraSPC1E19EdgeWeightedDigraphi, symObjAddr: 0x904, symBinAddr: 0x10000404C, symSize: 0x3C }
  - { offsetInCU: 0x124C7, offset: 0x124C7, size: 0x8, addend: 0x0, symName: __ZNK10DijkstraSP6distToEi, symObjAddr: 0x940, symBinAddr: 0x100004088, symSize: 0x34 }
  - { offsetInCU: 0x124FB, offset: 0x124FB, size: 0x8, addend: 0x0, symName: __ZNKSt3__16vectorIdNS_9allocatorIdEEEixB8ue170006Em, symObjAddr: 0x974, symBinAddr: 0x1000040BC, symSize: 0x24 }
  - { offsetInCU: 0x12531, offset: 0x12531, size: 0x8, addend: 0x0, symName: __ZNK10DijkstraSP9hasPathToEi, symObjAddr: 0x998, symBinAddr: 0x1000040E0, symSize: 0x50 }
  - { offsetInCU: 0x12565, offset: 0x12565, size: 0x8, addend: 0x0, symName: __ZN10DijkstraSP6pathToEi, symObjAddr: 0x9E8, symBinAddr: 0x100004130, symSize: 0x200 }
  - { offsetInCU: 0x125BD, offset: 0x125BD, size: 0x8, addend: 0x0, symName: __ZNSt3__16vectorI12DirectedEdgeNS_9allocatorIS1_EEEC1B8ue170006Ev, symObjAddr: 0xBE8, symBinAddr: 0x100004330, symSize: 0x2C }
  - { offsetInCU: 0x125E6, offset: 0x125E6, size: 0x8, addend: 0x0, symName: __ZNKSt3__16vectorI12DirectedEdgeNS_9allocatorIS1_EEE5emptyB8ue170006Ev, symObjAddr: 0xC14, symBinAddr: 0x10000435C, symSize: 0x28 }
  - { offsetInCU: 0x1260B, offset: 0x1260B, size: 0x8, addend: 0x0, symName: __ZNSt3__13mapIi12DirectedEdgeNS_4lessIiEENS_9allocatorINS_4pairIKiS1_EEEEE4findB8ue170006ERS6_, symObjAddr: 0xC6C, symBinAddr: 0x1000043B4, symSize: 0x40 }
  - { offsetInCU: 0x1263F, offset: 0x1263F, size: 0x8, addend: 0x0, symName: __ZNSt3__13mapIi12DirectedEdgeNS_4lessIiEENS_9allocatorINS_4pairIKiS1_EEEEE3endB8ue170006Ev, symObjAddr: 0xCAC, symBinAddr: 0x1000043F4, symSize: 0x38 }
  - { offsetInCU: 0x12663, offset: 0x12663, size: 0x8, addend: 0x0, symName: __ZNSt3__16vectorI12DirectedEdgeNS_9allocatorIS1_EEE9push_backB8ue170006ERKS1_, symObjAddr: 0xCE4, symBinAddr: 0x10000442C, symSize: 0x6C }
  - { offsetInCU: 0x12699, offset: 0x12699, size: 0x8, addend: 0x0, symName: __ZNK12DirectedEdge4fromEv, symObjAddr: 0xD50, symBinAddr: 0x100004498, symSize: 0x18 }
  - { offsetInCU: 0x126BE, offset: 0x126BE, size: 0x8, addend: 0x0, symName: __ZNKSt3__111__wrap_iterIP12DirectedEdgeE4baseB8ue170006Ev, symObjAddr: 0xDEC, symBinAddr: 0x100004534, symSize: 0x18 }
  - { offsetInCU: 0x126E3, offset: 0x126E3, size: 0x8, addend: 0x0, symName: __ZN5Utils13PriorityQueueIiEC2Ev, symObjAddr: 0xE04, symBinAddr: 0x10000454C, symSize: 0x2C }
  - { offsetInCU: 0x1270E, offset: 0x1270E, size: 0x8, addend: 0x0, symName: __ZNSt3__114priority_queueIN5Utils16CompareContainerIdiEENS_6vectorIS3_NS_9allocatorIS3_EEEENS_7greaterIS3_EEEC2B8ue170006Ev, symObjAddr: 0xE30, symBinAddr: 0x100004578, symSize: 0x2C }
  - { offsetInCU: 0x12737, offset: 0x12737, size: 0x8, addend: 0x0, symName: __ZNSt3__16vectorIN5Utils16CompareContainerIdiEENS_9allocatorIS3_EEEC1B8ue170006Ev, symObjAddr: 0xE5C, symBinAddr: 0x1000045A4, symSize: 0x2C }
  - { offsetInCU: 0x12760, offset: 0x12760, size: 0x8, addend: 0x0, symName: __ZNSt3__16vectorIN5Utils16CompareContainerIdiEENS_9allocatorIS3_EEEC2B8ue170006Ev, symObjAddr: 0xE88, symBinAddr: 0x1000045D0, symSize: 0x4C }
  - { offsetInCU: 0x12793, offset: 0x12793, size: 0x8, addend: 0x0, symName: __ZNSt3__117__compressed_pairIPN5Utils16CompareContainerIdiEENS_9allocatorIS3_EEEC1B8ue170006IDnNS_18__default_init_tagEEEOT_OT0_, symObjAddr: 0xED4, symBinAddr: 0x10000461C, symSize: 0x3C }
  - { offsetInCU: 0x127EA, offset: 0x127EA, size: 0x8, addend: 0x0, symName: __ZNSt3__117__compressed_pairIPN5Utils16CompareContainerIdiEENS_9allocatorIS3_EEEC2B8ue170006IDnNS_18__default_init_tagEEEOT_OT0_, symObjAddr: 0xF1C, symBinAddr: 0x100004664, symSize: 0x40 }
  - { offsetInCU: 0x12841, offset: 0x12841, size: 0x8, addend: 0x0, symName: __ZNSt3__122__compressed_pair_elemIPN5Utils16CompareContainerIdiEELi0ELb0EEC2B8ue170006IDnvEEOT_, symObjAddr: 0xF5C, symBinAddr: 0x1000046A4, symSize: 0x1C }
  - { offsetInCU: 0x12882, offset: 0x12882, size: 0x8, addend: 0x0, symName: __ZNSt3__122__compressed_pair_elemINS_9allocatorIN5Utils16CompareContainerIdiEEEELi1ELb1EEC2B8ue170006ENS_18__default_init_tagE, symObjAddr: 0xF78, symBinAddr: 0x1000046C0, symSize: 0x2C }
  - { offsetInCU: 0x128B5, offset: 0x128B5, size: 0x8, addend: 0x0, symName: __ZNSt3__19allocatorIN5Utils16CompareContainerIdiEEEC2B8ue170006Ev, symObjAddr: 0xFA4, symBinAddr: 0x1000046EC, symSize: 0x2C }
  - { offsetInCU: 0x128DE, offset: 0x128DE, size: 0x8, addend: 0x0, symName: __ZNSt3__116__non_trivial_ifILb1ENS_9allocatorIN5Utils16CompareContainerIdiEEEEEC2B8ue170006Ev, symObjAddr: 0xFD0, symBinAddr: 0x100004718, symSize: 0x14 }
  - { offsetInCU: 0x12907, offset: 0x12907, size: 0x8, addend: 0x0, symName: __ZNSt3__123__libcpp_numeric_limitsIdLb1EE8infinityB8ue170006Ev, symObjAddr: 0xFE4, symBinAddr: 0x10000472C, symSize: 0xC }
  - { offsetInCU: 0x1291B, offset: 0x1291B, size: 0x8, addend: 0x0, symName: __ZN19EdgeWeightedDigraphC2ERKS_, symObjAddr: 0xFF0, symBinAddr: 0x100004738, symSize: 0x48 }
  - { offsetInCU: 0x1294F, offset: 0x1294F, size: 0x8, addend: 0x0, symName: __ZNSt3__16vectorINS0_I12DirectedEdgeNS_9allocatorIS1_EEEENS2_IS4_EEEC1ERKS6_, symObjAddr: 0x1038, symBinAddr: 0x100004780, symSize: 0x34 }
  - { offsetInCU: 0x12989, offset: 0x12989, size: 0x8, addend: 0x0, symName: __ZNSt3__16vectorINS0_I12DirectedEdgeNS_9allocatorIS1_EEEENS2_IS4_EEEC2ERKS6_, symObjAddr: 0x106C, symBinAddr: 0x1000047B4, symSize: 0x94 }
  - { offsetInCU: 0x129CD, offset: 0x129CD, size: 0x8, addend: 0x0, symName: __ZNSt3__116allocator_traitsINS_9allocatorINS_6vectorI12DirectedEdgeNS1_IS3_EEEEEEE37select_on_container_copy_constructionB8ue170006IS6_vvEES6_RKS6_, symObjAddr: 0x1100, symBinAddr: 0x100004848, symSize: 0x10 }
  - { offsetInCU: 0x129FC, offset: 0x129FC, size: 0x8, addend: 0x0, symName: __ZNKSt3__16vectorINS0_I12DirectedEdgeNS_9allocatorIS1_EEEENS2_IS4_EEE7__allocB8ue170006Ev, symObjAddr: 0x1110, symBinAddr: 0x100004858, symSize: 0x28 }
  - { offsetInCU: 0x12A26, offset: 0x12A26, size: 0x8, addend: 0x0, symName: __ZNSt3__117__compressed_pairIPNS_6vectorI12DirectedEdgeNS_9allocatorIS2_EEEENS3_IS5_EEEC1B8ue170006IDnS7_EEOT_OT0_, symObjAddr: 0x1138, symBinAddr: 0x100004880, symSize: 0x3C }
  - { offsetInCU: 0x12A7D, offset: 0x12A7D, size: 0x8, addend: 0x0, symName: __ZNSt3__16vectorINS0_I12DirectedEdgeNS_9allocatorIS1_EEEENS2_IS4_EEE16__init_with_sizeB8ue170006IPS4_S8_EEvT_T0_m, symObjAddr: 0x1174, symBinAddr: 0x1000048BC, symSize: 0xB8 }
  - { offsetInCU: 0x12AF0, offset: 0x12AF0, size: 0x8, addend: 0x0, symName: __ZNKSt3__16vectorINS0_I12DirectedEdgeNS_9allocatorIS1_EEEENS2_IS4_EEE4sizeB8ue170006Ev, symObjAddr: 0x122C, symBinAddr: 0x100004974, symSize: 0x28 }
  - { offsetInCU: 0x12B15, offset: 0x12B15, size: 0x8, addend: 0x0, symName: __ZNKSt3__117__compressed_pairIPNS_6vectorI12DirectedEdgeNS_9allocatorIS2_EEEENS3_IS5_EEE6secondB8ue170006Ev, symObjAddr: 0x1254, symBinAddr: 0x10000499C, symSize: 0x24 }
  - { offsetInCU: 0x12B3A, offset: 0x12B3A, size: 0x8, addend: 0x0, symName: __ZNKSt3__122__compressed_pair_elemINS_9allocatorINS_6vectorI12DirectedEdgeNS1_IS3_EEEEEELi1ELb1EE5__getB8ue170006Ev, symObjAddr: 0x1278, symBinAddr: 0x1000049C0, symSize: 0x14 }
  - { offsetInCU: 0x12B5F, offset: 0x12B5F, size: 0x8, addend: 0x0, symName: __ZNSt3__117__compressed_pairIPNS_6vectorI12DirectedEdgeNS_9allocatorIS2_EEEENS3_IS5_EEEC2B8ue170006IDnS7_EEOT_OT0_, symObjAddr: 0x128C, symBinAddr: 0x1000049D4, symSize: 0x44 }
  - { offsetInCU: 0x12BB6, offset: 0x12BB6, size: 0x8, addend: 0x0, symName: __ZNSt3__122__compressed_pair_elemIPNS_6vectorI12DirectedEdgeNS_9allocatorIS2_EEEELi0ELb0EEC2B8ue170006IDnvEEOT_, symObjAddr: 0x12D0, symBinAddr: 0x100004A18, symSize: 0x1C }
  - { offsetInCU: 0x12BF7, offset: 0x12BF7, size: 0x8, addend: 0x0, symName: __ZNSt3__122__compressed_pair_elemINS_9allocatorINS_6vectorI12DirectedEdgeNS1_IS3_EEEEEELi1ELb1EEC2B8ue170006IS6_vEEOT_, symObjAddr: 0x12EC, symBinAddr: 0x100004A34, symSize: 0x18 }
  - { offsetInCU: 0x12C38, offset: 0x12C38, size: 0x8, addend: 0x0, symName: __ZNSt3__16vectorINS0_I12DirectedEdgeNS_9allocatorIS1_EEEENS2_IS4_EEE16__destroy_vectorC1B8ue170006ERS6_, symObjAddr: 0x1344, symBinAddr: 0x100004A8C, symSize: 0x34 }
  - { offsetInCU: 0x12C70, offset: 0x12C70, size: 0x8, addend: 0x0, symName: __ZNSt3__16vectorINS0_I12DirectedEdgeNS_9allocatorIS1_EEEENS2_IS4_EEE11__vallocateB8ue170006Em, symObjAddr: 0x1378, symBinAddr: 0x100004AC0, symSize: 0xB4 }
  - { offsetInCU: 0x12CB2, offset: 0x12CB2, size: 0x8, addend: 0x0, symName: __ZNSt3__16vectorINS0_I12DirectedEdgeNS_9allocatorIS1_EEEENS2_IS4_EEE18__construct_at_endIPS4_S8_EEvT_T0_m, symObjAddr: 0x142C, symBinAddr: 0x100004B74, symSize: 0x8C }
  - { offsetInCU: 0x12D27, offset: 0x12D27, size: 0x8, addend: 0x0, symName: __ZNSt3__128__exception_guard_exceptionsINS_6vectorINS1_I12DirectedEdgeNS_9allocatorIS2_EEEENS3_IS5_EEE16__destroy_vectorEE10__completeB8ue170006Ev, symObjAddr: 0x14B8, symBinAddr: 0x100004C00, symSize: 0x1C }
  - { offsetInCU: 0x12D4C, offset: 0x12D4C, size: 0x8, addend: 0x0, symName: __ZNSt3__128__exception_guard_exceptionsINS_6vectorINS1_I12DirectedEdgeNS_9allocatorIS2_EEEENS3_IS5_EEE16__destroy_vectorEED1B8ue170006Ev, symObjAddr: 0x14D4, symBinAddr: 0x100004C1C, symSize: 0x2C }
  - { offsetInCU: 0x12D75, offset: 0x12D75, size: 0x8, addend: 0x0, symName: __ZNSt3__128__exception_guard_exceptionsINS_6vectorINS1_I12DirectedEdgeNS_9allocatorIS2_EEEENS3_IS5_EEE16__destroy_vectorEEC1B8ue170006ES8_, symObjAddr: 0x1500, symBinAddr: 0x100004C48, symSize: 0x34 }
  - { offsetInCU: 0x12DAC, offset: 0x12DAC, size: 0x8, addend: 0x0, symName: __ZNSt3__128__exception_guard_exceptionsINS_6vectorINS1_I12DirectedEdgeNS_9allocatorIS2_EEEENS3_IS5_EEE16__destroy_vectorEEC2B8ue170006ES8_, symObjAddr: 0x1534, symBinAddr: 0x100004C7C, symSize: 0x24 }
  - { offsetInCU: 0x12DE3, offset: 0x12DE3, size: 0x8, addend: 0x0, symName: __ZNSt3__16vectorINS0_I12DirectedEdgeNS_9allocatorIS1_EEEENS2_IS4_EEE16__destroy_vectorC2B8ue170006ERS6_, symObjAddr: 0x1558, symBinAddr: 0x100004CA0, symSize: 0x20 }
  - { offsetInCU: 0x12E1A, offset: 0x12E1A, size: 0x8, addend: 0x0, symName: __ZNKSt3__16vectorINS0_I12DirectedEdgeNS_9allocatorIS1_EEEENS2_IS4_EEE8max_sizeEv, symObjAddr: 0x1578, symBinAddr: 0x100004CC0, symSize: 0x60 }
  - { offsetInCU: 0x12E41, offset: 0x12E41, size: 0x8, addend: 0x0, symName: __ZNKSt3__16vectorINS0_I12DirectedEdgeNS_9allocatorIS1_EEEENS2_IS4_EEE20__throw_length_errorB8ue170006Ev, symObjAddr: 0x15D8, symBinAddr: 0x100004D20, symSize: 0x1C }
  - { offsetInCU: 0x12E66, offset: 0x12E66, size: 0x8, addend: 0x0, symName: __ZNSt3__16vectorINS0_I12DirectedEdgeNS_9allocatorIS1_EEEENS2_IS4_EEE7__allocB8ue170006Ev, symObjAddr: 0x1634, symBinAddr: 0x100004D7C, symSize: 0x28 }
  - { offsetInCU: 0x12E8B, offset: 0x12E8B, size: 0x8, addend: 0x0, symName: __ZNSt3__16vectorINS0_I12DirectedEdgeNS_9allocatorIS1_EEEENS2_IS4_EEE9__end_capB8ue170006Ev, symObjAddr: 0x165C, symBinAddr: 0x100004DA4, symSize: 0x28 }
  - { offsetInCU: 0x12EB0, offset: 0x12EB0, size: 0x8, addend: 0x0, symName: __ZNKSt3__16vectorINS0_I12DirectedEdgeNS_9allocatorIS1_EEEENS2_IS4_EEE14__annotate_newB8ue170006Em, symObjAddr: 0x1684, symBinAddr: 0x100004DCC, symSize: 0xC8 }
  - { offsetInCU: 0x12EE4, offset: 0x12EE4, size: 0x8, addend: 0x0, symName: __ZNSt3__116allocator_traitsINS_9allocatorINS_6vectorI12DirectedEdgeNS1_IS3_EEEEEEE8max_sizeB8ue170006IS6_vEEmRKS6_, symObjAddr: 0x1778, symBinAddr: 0x100004EC0, symSize: 0x24 }
  - { offsetInCU: 0x12F12, offset: 0x12F12, size: 0x8, addend: 0x0, symName: __ZNSt3__114numeric_limitsIlE3maxB8ue170006Ev, symObjAddr: 0x179C, symBinAddr: 0x100004EE4, symSize: 0x14 }
  - { offsetInCU: 0x12F30, offset: 0x12F30, size: 0x8, addend: 0x0, symName: __ZNKSt3__16__lessIvvEclB8ue170006ImmEEbRKT_RKT0_, symObjAddr: 0x1804, symBinAddr: 0x100004F4C, symSize: 0x34 }
  - { offsetInCU: 0x12F83, offset: 0x12F83, size: 0x8, addend: 0x0, symName: __ZNKSt3__19allocatorINS_6vectorI12DirectedEdgeNS0_IS2_EEEEE8max_sizeB8ue170006Ev, symObjAddr: 0x1838, symBinAddr: 0x100004F80, symSize: 0x18 }
  - { offsetInCU: 0x12FA8, offset: 0x12FA8, size: 0x8, addend: 0x0, symName: __ZNSt3__123__libcpp_numeric_limitsIlLb1EE3maxB8ue170006Ev, symObjAddr: 0x1850, symBinAddr: 0x100004F98, symSize: 0x8 }
  - { offsetInCU: 0x12FBC, offset: 0x12FBC, size: 0x8, addend: 0x0, symName: __ZNSt12length_errorC1B8ue170006EPKc, symObjAddr: 0x18BC, symBinAddr: 0x100005004, symSize: 0x34 }
  - { offsetInCU: 0x12FF3, offset: 0x12FF3, size: 0x8, addend: 0x0, symName: __ZNSt12length_errorC2B8ue170006EPKc, symObjAddr: 0x18F0, symBinAddr: 0x100005038, symSize: 0x4C }
  - { offsetInCU: 0x1302A, offset: 0x1302A, size: 0x8, addend: 0x0, symName: __ZNSt3__19allocatorINS_6vectorI12DirectedEdgeNS0_IS2_EEEEE8allocateB8ue170006Em, symObjAddr: 0x193C, symBinAddr: 0x100005084, symSize: 0x5C }
  - { offsetInCU: 0x1305D, offset: 0x1305D, size: 0x8, addend: 0x0, symName: __ZNSt3__117__compressed_pairIPNS_6vectorI12DirectedEdgeNS_9allocatorIS2_EEEENS3_IS5_EEE6secondB8ue170006Ev, symObjAddr: 0x1A18, symBinAddr: 0x100005160, symSize: 0x24 }
  - { offsetInCU: 0x13082, offset: 0x13082, size: 0x8, addend: 0x0, symName: __ZNSt3__122__compressed_pair_elemINS_9allocatorINS_6vectorI12DirectedEdgeNS1_IS3_EEEEEELi1ELb1EE5__getB8ue170006Ev, symObjAddr: 0x1A3C, symBinAddr: 0x100005184, symSize: 0x14 }
  - { offsetInCU: 0x130A7, offset: 0x130A7, size: 0x8, addend: 0x0, symName: __ZNSt3__117__compressed_pairIPNS_6vectorI12DirectedEdgeNS_9allocatorIS2_EEEENS3_IS5_EEE5firstB8ue170006Ev, symObjAddr: 0x1A50, symBinAddr: 0x100005198, symSize: 0x24 }
  - { offsetInCU: 0x130CC, offset: 0x130CC, size: 0x8, addend: 0x0, symName: __ZNSt3__122__compressed_pair_elemIPNS_6vectorI12DirectedEdgeNS_9allocatorIS2_EEEELi0ELb0EE5__getB8ue170006Ev, symObjAddr: 0x1A74, symBinAddr: 0x1000051BC, symSize: 0x14 }
  - { offsetInCU: 0x130F1, offset: 0x130F1, size: 0x8, addend: 0x0, symName: __ZNKSt3__16vectorINS0_I12DirectedEdgeNS_9allocatorIS1_EEEENS2_IS4_EEE31__annotate_contiguous_containerB8ue170006EPKvS8_S8_S8_, symObjAddr: 0x1A88, symBinAddr: 0x1000051D0, symSize: 0x20 }
  - { offsetInCU: 0x13142, offset: 0x13142, size: 0x8, addend: 0x0, symName: __ZNKSt3__16vectorINS0_I12DirectedEdgeNS_9allocatorIS1_EEEENS2_IS4_EEE4dataB8ue170006Ev, symObjAddr: 0x1AA8, symBinAddr: 0x1000051F0, symSize: 0x28 }
  - { offsetInCU: 0x13167, offset: 0x13167, size: 0x8, addend: 0x0, symName: __ZNKSt3__16vectorINS0_I12DirectedEdgeNS_9allocatorIS1_EEEENS2_IS4_EEE8capacityB8ue170006Ev, symObjAddr: 0x1AD0, symBinAddr: 0x100005218, symSize: 0x40 }
  - { offsetInCU: 0x1318C, offset: 0x1318C, size: 0x8, addend: 0x0, symName: __ZNKSt3__16vectorINS0_I12DirectedEdgeNS_9allocatorIS1_EEEENS2_IS4_EEE9__end_capB8ue170006Ev, symObjAddr: 0x1B24, symBinAddr: 0x10000526C, symSize: 0x28 }
  - { offsetInCU: 0x131B1, offset: 0x131B1, size: 0x8, addend: 0x0, symName: __ZNKSt3__117__compressed_pairIPNS_6vectorI12DirectedEdgeNS_9allocatorIS2_EEEENS3_IS5_EEE5firstB8ue170006Ev, symObjAddr: 0x1B4C, symBinAddr: 0x100005294, symSize: 0x24 }
  - { offsetInCU: 0x131D6, offset: 0x131D6, size: 0x8, addend: 0x0, symName: __ZNKSt3__122__compressed_pair_elemIPNS_6vectorI12DirectedEdgeNS_9allocatorIS2_EEEELi0ELb0EE5__getB8ue170006Ev, symObjAddr: 0x1B70, symBinAddr: 0x1000052B8, symSize: 0x14 }
  - { offsetInCU: 0x13214, offset: 0x13214, size: 0x8, addend: 0x0, symName: __ZNSt3__16vectorINS0_I12DirectedEdgeNS_9allocatorIS1_EEEENS2_IS4_EEE21_ConstructTransactionC1B8ue170006ERS6_m, symObjAddr: 0x1B84, symBinAddr: 0x1000052CC, symSize: 0x3C }
  - { offsetInCU: 0x1325B, offset: 0x1325B, size: 0x8, addend: 0x0, symName: __ZNSt3__16vectorINS0_I12DirectedEdgeNS_9allocatorIS1_EEEENS2_IS4_EEE21_ConstructTransactionD1B8ue170006Ev, symObjAddr: 0x1C40, symBinAddr: 0x100005388, symSize: 0x2C }
  - { offsetInCU: 0x13284, offset: 0x13284, size: 0x8, addend: 0x0, symName: __ZNSt3__16vectorINS0_I12DirectedEdgeNS_9allocatorIS1_EEEENS2_IS4_EEE21_ConstructTransactionC2B8ue170006ERS6_m, symObjAddr: 0x1C6C, symBinAddr: 0x1000053B4, symSize: 0x4C }
  - { offsetInCU: 0x132E9, offset: 0x132E9, size: 0x8, addend: 0x0, symName: __ZNSt3__14pairIPNS_6vectorI12DirectedEdgeNS_9allocatorIS2_EEEES6_EC1B8ue170006IS6_S6_LPv0EEEOT_OT0_, symObjAddr: 0x1EA4, symBinAddr: 0x1000055EC, symSize: 0x3C }
  - { offsetInCU: 0x13346, offset: 0x13346, size: 0x8, addend: 0x0, symName: __ZNSt3__14pairIPNS_6vectorI12DirectedEdgeNS_9allocatorIS2_EEEES6_EC2B8ue170006IS6_S6_LPv0EEEOT_OT0_, symObjAddr: 0x1EE0, symBinAddr: 0x100005628, symSize: 0x34 }
  - { offsetInCU: 0x133A3, offset: 0x133A3, size: 0x8, addend: 0x0, symName: __ZNSt3__129_AllocatorDestroyRangeReverseINS_9allocatorINS_6vectorI12DirectedEdgeNS1_IS3_EEEEEEPS5_EC1B8ue170006ERS6_RS7_SA_, symObjAddr: 0x1F60, symBinAddr: 0x1000056A8, symSize: 0x44 }
  - { offsetInCU: 0x133F9, offset: 0x133F9, size: 0x8, addend: 0x0, symName: __ZNSt3__116allocator_traitsINS_9allocatorINS_6vectorI12DirectedEdgeNS1_IS3_EEEEEEE9constructB8ue170006IS5_JRS5_EvEEvRS6_PT_DpOT0_, symObjAddr: 0x1FA4, symBinAddr: 0x1000056EC, symSize: 0x34 }
  - { offsetInCU: 0x13450, offset: 0x13450, size: 0x8, addend: 0x0, symName: __ZNSt3__128__exception_guard_exceptionsINS_29_AllocatorDestroyRangeReverseINS_9allocatorINS_6vectorI12DirectedEdgeNS2_IS4_EEEEEEPS6_EEE10__completeB8ue170006Ev, symObjAddr: 0x1FD8, symBinAddr: 0x100005720, symSize: 0x1C }
  - { offsetInCU: 0x13475, offset: 0x13475, size: 0x8, addend: 0x0, symName: __ZNSt3__128__exception_guard_exceptionsINS_29_AllocatorDestroyRangeReverseINS_9allocatorINS_6vectorI12DirectedEdgeNS2_IS4_EEEEEEPS6_EEED1B8ue170006Ev, symObjAddr: 0x1FF4, symBinAddr: 0x10000573C, symSize: 0x2C }
  - { offsetInCU: 0x1349E, offset: 0x1349E, size: 0x8, addend: 0x0, symName: __ZNSt3__128__exception_guard_exceptionsINS_29_AllocatorDestroyRangeReverseINS_9allocatorINS_6vectorI12DirectedEdgeNS2_IS4_EEEEEEPS6_EEEC1B8ue170006ES9_, symObjAddr: 0x2020, symBinAddr: 0x100005768, symSize: 0x34 }
  - { offsetInCU: 0x134D6, offset: 0x134D6, size: 0x8, addend: 0x0, symName: __ZNSt3__128__exception_guard_exceptionsINS_29_AllocatorDestroyRangeReverseINS_9allocatorINS_6vectorI12DirectedEdgeNS2_IS4_EEEEEEPS6_EEEC2B8ue170006ES9_, symObjAddr: 0x2054, symBinAddr: 0x10000579C, symSize: 0x30 }
  - { offsetInCU: 0x1350E, offset: 0x1350E, size: 0x8, addend: 0x0, symName: __ZNSt3__129_AllocatorDestroyRangeReverseINS_9allocatorINS_6vectorI12DirectedEdgeNS1_IS3_EEEEEEPS5_EC2B8ue170006ERS6_RS7_SA_, symObjAddr: 0x2084, symBinAddr: 0x1000057CC, symSize: 0x38 }
  - { offsetInCU: 0x13564, offset: 0x13564, size: 0x8, addend: 0x0, symName: __ZNSt3__19allocatorINS_6vectorI12DirectedEdgeNS0_IS2_EEEEE9constructB8ue170006IS4_JRS4_EEEvPT_DpOT0_, symObjAddr: 0x20BC, symBinAddr: 0x100005804, symSize: 0x30 }
  - { offsetInCU: 0x135B9, offset: 0x135B9, size: 0x8, addend: 0x0, symName: __ZNSt3__16vectorI12DirectedEdgeNS_9allocatorIS1_EEEC1ERKS4_, symObjAddr: 0x20EC, symBinAddr: 0x100005834, symSize: 0x34 }
  - { offsetInCU: 0x135F3, offset: 0x135F3, size: 0x8, addend: 0x0, symName: __ZNSt3__16vectorI12DirectedEdgeNS_9allocatorIS1_EEEC2ERKS4_, symObjAddr: 0x2120, symBinAddr: 0x100005868, symSize: 0x94 }
  - { offsetInCU: 0x13637, offset: 0x13637, size: 0x8, addend: 0x0, symName: __ZNSt3__116allocator_traitsINS_9allocatorI12DirectedEdgeEEE37select_on_container_copy_constructionB8ue170006IS3_vvEES3_RKS3_, symObjAddr: 0x21B4, symBinAddr: 0x1000058FC, symSize: 0x10 }
  - { offsetInCU: 0x13666, offset: 0x13666, size: 0x8, addend: 0x0, symName: __ZNKSt3__16vectorI12DirectedEdgeNS_9allocatorIS1_EEE7__allocB8ue170006Ev, symObjAddr: 0x21C4, symBinAddr: 0x10000590C, symSize: 0x28 }
  - { offsetInCU: 0x13690, offset: 0x13690, size: 0x8, addend: 0x0, symName: __ZNSt3__117__compressed_pairIP12DirectedEdgeNS_9allocatorIS1_EEEC1B8ue170006IDnS4_EEOT_OT0_, symObjAddr: 0x21EC, symBinAddr: 0x100005934, symSize: 0x3C }
  - { offsetInCU: 0x136E7, offset: 0x136E7, size: 0x8, addend: 0x0, symName: __ZNSt3__16vectorI12DirectedEdgeNS_9allocatorIS1_EEE16__init_with_sizeB8ue170006IPS1_S6_EEvT_T0_m, symObjAddr: 0x2228, symBinAddr: 0x100005970, symSize: 0xB8 }
  - { offsetInCU: 0x1375A, offset: 0x1375A, size: 0x8, addend: 0x0, symName: __ZNKSt3__16vectorI12DirectedEdgeNS_9allocatorIS1_EEE4sizeB8ue170006Ev, symObjAddr: 0x22E0, symBinAddr: 0x100005A28, symSize: 0x28 }
  - { offsetInCU: 0x1377F, offset: 0x1377F, size: 0x8, addend: 0x0, symName: __ZNKSt3__117__compressed_pairIP12DirectedEdgeNS_9allocatorIS1_EEE6secondB8ue170006Ev, symObjAddr: 0x2308, symBinAddr: 0x100005A50, symSize: 0x24 }
  - { offsetInCU: 0x137A4, offset: 0x137A4, size: 0x8, addend: 0x0, symName: __ZNKSt3__122__compressed_pair_elemINS_9allocatorI12DirectedEdgeEELi1ELb1EE5__getB8ue170006Ev, symObjAddr: 0x232C, symBinAddr: 0x100005A74, symSize: 0x14 }
  - { offsetInCU: 0x137C9, offset: 0x137C9, size: 0x8, addend: 0x0, symName: __ZNSt3__117__compressed_pairIP12DirectedEdgeNS_9allocatorIS1_EEEC2B8ue170006IDnS4_EEOT_OT0_, symObjAddr: 0x2340, symBinAddr: 0x100005A88, symSize: 0x44 }
  - { offsetInCU: 0x13820, offset: 0x13820, size: 0x8, addend: 0x0, symName: __ZNSt3__122__compressed_pair_elemIP12DirectedEdgeLi0ELb0EEC2B8ue170006IDnvEEOT_, symObjAddr: 0x2384, symBinAddr: 0x100005ACC, symSize: 0x1C }
  - { offsetInCU: 0x13861, offset: 0x13861, size: 0x8, addend: 0x0, symName: __ZNSt3__122__compressed_pair_elemINS_9allocatorI12DirectedEdgeEELi1ELb1EEC2B8ue170006IS3_vEEOT_, symObjAddr: 0x23A0, symBinAddr: 0x100005AE8, symSize: 0x18 }
  - { offsetInCU: 0x138A2, offset: 0x138A2, size: 0x8, addend: 0x0, symName: __ZNSt3__16vectorI12DirectedEdgeNS_9allocatorIS1_EEE16__destroy_vectorC1B8ue170006ERS4_, symObjAddr: 0x23F8, symBinAddr: 0x100005B40, symSize: 0x34 }
  - { offsetInCU: 0x138DA, offset: 0x138DA, size: 0x8, addend: 0x0, symName: __ZNSt3__16vectorI12DirectedEdgeNS_9allocatorIS1_EEE11__vallocateB8ue170006Em, symObjAddr: 0x242C, symBinAddr: 0x100005B74, symSize: 0xAC }
  - { offsetInCU: 0x1391C, offset: 0x1391C, size: 0x8, addend: 0x0, symName: __ZNSt3__16vectorI12DirectedEdgeNS_9allocatorIS1_EEE18__construct_at_endIPS1_S6_EEvT_T0_m, symObjAddr: 0x24D8, symBinAddr: 0x100005C20, symSize: 0x8C }
  - { offsetInCU: 0x13991, offset: 0x13991, size: 0x8, addend: 0x0, symName: __ZNSt3__128__exception_guard_exceptionsINS_6vectorI12DirectedEdgeNS_9allocatorIS2_EEE16__destroy_vectorEE10__completeB8ue170006Ev, symObjAddr: 0x2564, symBinAddr: 0x100005CAC, symSize: 0x1C }
  - { offsetInCU: 0x139B6, offset: 0x139B6, size: 0x8, addend: 0x0, symName: __ZNSt3__128__exception_guard_exceptionsINS_6vectorI12DirectedEdgeNS_9allocatorIS2_EEE16__destroy_vectorEED1B8ue170006Ev, symObjAddr: 0x2580, symBinAddr: 0x100005CC8, symSize: 0x2C }
  - { offsetInCU: 0x139DF, offset: 0x139DF, size: 0x8, addend: 0x0, symName: __ZNSt3__128__exception_guard_exceptionsINS_6vectorI12DirectedEdgeNS_9allocatorIS2_EEE16__destroy_vectorEEC1B8ue170006ES6_, symObjAddr: 0x25AC, symBinAddr: 0x100005CF4, symSize: 0x34 }
  - { offsetInCU: 0x13A16, offset: 0x13A16, size: 0x8, addend: 0x0, symName: __ZNSt3__128__exception_guard_exceptionsINS_6vectorI12DirectedEdgeNS_9allocatorIS2_EEE16__destroy_vectorEEC2B8ue170006ES6_, symObjAddr: 0x25E0, symBinAddr: 0x100005D28, symSize: 0x24 }
  - { offsetInCU: 0x13A4D, offset: 0x13A4D, size: 0x8, addend: 0x0, symName: __ZNSt3__16vectorI12DirectedEdgeNS_9allocatorIS1_EEE16__destroy_vectorC2B8ue170006ERS4_, symObjAddr: 0x2604, symBinAddr: 0x100005D4C, symSize: 0x20 }
  - { offsetInCU: 0x13A84, offset: 0x13A84, size: 0x8, addend: 0x0, symName: __ZNKSt3__16vectorI12DirectedEdgeNS_9allocatorIS1_EEE8max_sizeEv, symObjAddr: 0x2624, symBinAddr: 0x100005D6C, symSize: 0x60 }
  - { offsetInCU: 0x13AAB, offset: 0x13AAB, size: 0x8, addend: 0x0, symName: __ZNKSt3__16vectorI12DirectedEdgeNS_9allocatorIS1_EEE20__throw_length_errorB8ue170006Ev, symObjAddr: 0x2684, symBinAddr: 0x100005DCC, symSize: 0x1C }
  - { offsetInCU: 0x13AD0, offset: 0x13AD0, size: 0x8, addend: 0x0, symName: __ZNSt3__16vectorI12DirectedEdgeNS_9allocatorIS1_EEE7__allocB8ue170006Ev, symObjAddr: 0x26E0, symBinAddr: 0x100005E28, symSize: 0x28 }
  - { offsetInCU: 0x13AF5, offset: 0x13AF5, size: 0x8, addend: 0x0, symName: __ZNSt3__16vectorI12DirectedEdgeNS_9allocatorIS1_EEE9__end_capB8ue170006Ev, symObjAddr: 0x2708, symBinAddr: 0x100005E50, symSize: 0x28 }
  - { offsetInCU: 0x13B1A, offset: 0x13B1A, size: 0x8, addend: 0x0, symName: __ZNKSt3__16vectorI12DirectedEdgeNS_9allocatorIS1_EEE14__annotate_newB8ue170006Em, symObjAddr: 0x2730, symBinAddr: 0x100005E78, symSize: 0xAC }
  - { offsetInCU: 0x13B4E, offset: 0x13B4E, size: 0x8, addend: 0x0, symName: __ZNSt3__116allocator_traitsINS_9allocatorI12DirectedEdgeEEE8max_sizeB8ue170006IS3_vEEmRKS3_, symObjAddr: 0x27DC, symBinAddr: 0x100005F24, symSize: 0x24 }
  - { offsetInCU: 0x13B7C, offset: 0x13B7C, size: 0x8, addend: 0x0, symName: __ZNKSt3__19allocatorI12DirectedEdgeE8max_sizeB8ue170006Ev, symObjAddr: 0x2800, symBinAddr: 0x100005F48, symSize: 0x14 }
  - { offsetInCU: 0x13BA1, offset: 0x13BA1, size: 0x8, addend: 0x0, symName: __ZNSt3__19allocatorI12DirectedEdgeE8allocateB8ue170006Em, symObjAddr: 0x2814, symBinAddr: 0x100005F5C, symSize: 0x58 }
  - { offsetInCU: 0x13BD4, offset: 0x13BD4, size: 0x8, addend: 0x0, symName: __ZNSt3__117__compressed_pairIP12DirectedEdgeNS_9allocatorIS1_EEE6secondB8ue170006Ev, symObjAddr: 0x286C, symBinAddr: 0x100005FB4, symSize: 0x24 }
  - { offsetInCU: 0x13BF9, offset: 0x13BF9, size: 0x8, addend: 0x0, symName: __ZNSt3__122__compressed_pair_elemINS_9allocatorI12DirectedEdgeEELi1ELb1EE5__getB8ue170006Ev, symObjAddr: 0x2890, symBinAddr: 0x100005FD8, symSize: 0x14 }
  - { offsetInCU: 0x13C1E, offset: 0x13C1E, size: 0x8, addend: 0x0, symName: __ZNSt3__117__compressed_pairIP12DirectedEdgeNS_9allocatorIS1_EEE5firstB8ue170006Ev, symObjAddr: 0x28A4, symBinAddr: 0x100005FEC, symSize: 0x24 }
  - { offsetInCU: 0x13C43, offset: 0x13C43, size: 0x8, addend: 0x0, symName: __ZNSt3__122__compressed_pair_elemIP12DirectedEdgeLi0ELb0EE5__getB8ue170006Ev, symObjAddr: 0x28C8, symBinAddr: 0x100006010, symSize: 0x14 }
  - { offsetInCU: 0x13C68, offset: 0x13C68, size: 0x8, addend: 0x0, symName: __ZNKSt3__16vectorI12DirectedEdgeNS_9allocatorIS1_EEE31__annotate_contiguous_containerB8ue170006EPKvS6_S6_S6_, symObjAddr: 0x28DC, symBinAddr: 0x100006024, symSize: 0x20 }
  - { offsetInCU: 0x13CB9, offset: 0x13CB9, size: 0x8, addend: 0x0, symName: __ZNKSt3__16vectorI12DirectedEdgeNS_9allocatorIS1_EEE4dataB8ue170006Ev, symObjAddr: 0x28FC, symBinAddr: 0x100006044, symSize: 0x28 }
  - { offsetInCU: 0x13CDE, offset: 0x13CDE, size: 0x8, addend: 0x0, symName: __ZNKSt3__16vectorI12DirectedEdgeNS_9allocatorIS1_EEE8capacityB8ue170006Ev, symObjAddr: 0x2924, symBinAddr: 0x10000606C, symSize: 0x40 }
  - { offsetInCU: 0x13D03, offset: 0x13D03, size: 0x8, addend: 0x0, symName: __ZNKSt3__16vectorI12DirectedEdgeNS_9allocatorIS1_EEE9__end_capB8ue170006Ev, symObjAddr: 0x2978, symBinAddr: 0x1000060C0, symSize: 0x28 }
  - { offsetInCU: 0x13D28, offset: 0x13D28, size: 0x8, addend: 0x0, symName: __ZNKSt3__117__compressed_pairIP12DirectedEdgeNS_9allocatorIS1_EEE5firstB8ue170006Ev, symObjAddr: 0x29A0, symBinAddr: 0x1000060E8, symSize: 0x24 }
  - { offsetInCU: 0x13D4D, offset: 0x13D4D, size: 0x8, addend: 0x0, symName: __ZNKSt3__122__compressed_pair_elemIP12DirectedEdgeLi0ELb0EE5__getB8ue170006Ev, symObjAddr: 0x29C4, symBinAddr: 0x10000610C, symSize: 0x14 }
  - { offsetInCU: 0x13D8B, offset: 0x13D8B, size: 0x8, addend: 0x0, symName: __ZNSt3__16vectorI12DirectedEdgeNS_9allocatorIS1_EEE21_ConstructTransactionC1B8ue170006ERS4_m, symObjAddr: 0x29D8, symBinAddr: 0x100006120, symSize: 0x3C }
  - { offsetInCU: 0x13DD2, offset: 0x13DD2, size: 0x8, addend: 0x0, symName: __ZNSt3__16vectorI12DirectedEdgeNS_9allocatorIS1_EEE21_ConstructTransactionD1B8ue170006Ev, symObjAddr: 0x2A94, symBinAddr: 0x1000061DC, symSize: 0x2C }
  - { offsetInCU: 0x13DFB, offset: 0x13DFB, size: 0x8, addend: 0x0, symName: __ZNSt3__16vectorI12DirectedEdgeNS_9allocatorIS1_EEE21_ConstructTransactionC2B8ue170006ERS4_m, symObjAddr: 0x2AC0, symBinAddr: 0x100006208, symSize: 0x44 }
  - { offsetInCU: 0x13E60, offset: 0x13E60, size: 0x8, addend: 0x0, symName: __ZNSt3__14pairIP12DirectedEdgeS2_EC1B8ue170006IS2_S2_LPv0EEEOT_OT0_, symObjAddr: 0x2C34, symBinAddr: 0x10000637C, symSize: 0x3C }
  - { offsetInCU: 0x13EBD, offset: 0x13EBD, size: 0x8, addend: 0x0, symName: __ZNSt3__14pairIP12DirectedEdgeS2_EC2B8ue170006IS2_S2_LPv0EEEOT_OT0_, symObjAddr: 0x2C70, symBinAddr: 0x1000063B8, symSize: 0x34 }
  - { offsetInCU: 0x13F24, offset: 0x13F24, size: 0x8, addend: 0x0, symName: __ZNKSt3__114__copy_trivialclB8ue170006I12DirectedEdgeS2_Li0EEENS_4pairIPT_PT0_EES5_S5_S7_, symObjAddr: 0x2E20, symBinAddr: 0x100006568, symSize: 0x48 }
  - { offsetInCU: 0x13F8B, offset: 0x13F8B, size: 0x8, addend: 0x0, symName: __ZNSt3__14pairIP12DirectedEdgeS2_EC1B8ue170006IRS2_S2_LPv0EEEOT_OT0_, symObjAddr: 0x2FB0, symBinAddr: 0x1000066F8, symSize: 0x3C }
  - { offsetInCU: 0x13FE8, offset: 0x13FE8, size: 0x8, addend: 0x0, symName: __ZNSt3__14pairIP12DirectedEdgeS2_EC2B8ue170006IRS2_S2_LPv0EEEOT_OT0_, symObjAddr: 0x2FEC, symBinAddr: 0x100006734, symSize: 0x34 }
  - { offsetInCU: 0x14045, offset: 0x14045, size: 0x8, addend: 0x0, symName: __ZNSt3__118__unwrap_iter_implIP12DirectedEdgeLb1EE8__unwrapB8ue170006ES2_, symObjAddr: 0x3020, symBinAddr: 0x100006768, symSize: 0x24 }
  - { offsetInCU: 0x14068, offset: 0x14068, size: 0x8, addend: 0x0, symName: __ZNSt3__118__unwrap_iter_implIP12DirectedEdgeLb1EE8__rewrapB8ue170006ES2_S2_, symObjAddr: 0x3044, symBinAddr: 0x10000678C, symSize: 0x50 }
  - { offsetInCU: 0x14099, offset: 0x14099, size: 0x8, addend: 0x0, symName: __ZNSt3__16vectorI12DirectedEdgeNS_9allocatorIS1_EEE21_ConstructTransactionD2B8ue170006Ev, symObjAddr: 0x3094, symBinAddr: 0x1000067DC, symSize: 0x20 }
  - { offsetInCU: 0x140C2, offset: 0x140C2, size: 0x8, addend: 0x0, symName: __ZNSt3__128__exception_guard_exceptionsINS_6vectorI12DirectedEdgeNS_9allocatorIS2_EEE16__destroy_vectorEED2B8ue170006Ev, symObjAddr: 0x30B4, symBinAddr: 0x1000067FC, symSize: 0x50 }
  - { offsetInCU: 0x140EB, offset: 0x140EB, size: 0x8, addend: 0x0, symName: __ZNSt3__16vectorI12DirectedEdgeNS_9allocatorIS1_EEE16__destroy_vectorclB8ue170006Ev, symObjAddr: 0x3104, symBinAddr: 0x10000684C, symSize: 0x90 }
  - { offsetInCU: 0x14110, offset: 0x14110, size: 0x8, addend: 0x0, symName: __ZNSt3__16vectorI12DirectedEdgeNS_9allocatorIS1_EEE7__clearB8ue170006Ev, symObjAddr: 0x3194, symBinAddr: 0x1000068DC, symSize: 0x28 }
  - { offsetInCU: 0x14135, offset: 0x14135, size: 0x8, addend: 0x0, symName: __ZNKSt3__16vectorI12DirectedEdgeNS_9allocatorIS1_EEE17__annotate_deleteB8ue170006Ev, symObjAddr: 0x31BC, symBinAddr: 0x100006904, symSize: 0xB8 }
  - { offsetInCU: 0x1415A, offset: 0x1415A, size: 0x8, addend: 0x0, symName: __ZNSt3__116allocator_traitsINS_9allocatorI12DirectedEdgeEEE10deallocateB8ue170006ERS3_PS2_m, symObjAddr: 0x3274, symBinAddr: 0x1000069BC, symSize: 0x34 }
  - { offsetInCU: 0x1419C, offset: 0x1419C, size: 0x8, addend: 0x0, symName: __ZNSt3__16vectorI12DirectedEdgeNS_9allocatorIS1_EEE22__base_destruct_at_endB8ue170006EPS1_, symObjAddr: 0x32A8, symBinAddr: 0x1000069F0, symSize: 0x8C }
  - { offsetInCU: 0x141DF, offset: 0x141DF, size: 0x8, addend: 0x0, symName: __ZNSt3__116allocator_traitsINS_9allocatorI12DirectedEdgeEEE7destroyB8ue170006IS2_vEEvRS3_PT_, symObjAddr: 0x3334, symBinAddr: 0x100006A7C, symSize: 0x2C }
  - { offsetInCU: 0x1421C, offset: 0x1421C, size: 0x8, addend: 0x0, symName: __ZNSt3__19allocatorI12DirectedEdgeE7destroyB8ue170006EPS1_, symObjAddr: 0x3360, symBinAddr: 0x100006AA8, symSize: 0x14 }
  - { offsetInCU: 0x1424F, offset: 0x1424F, size: 0x8, addend: 0x0, symName: __ZNSt3__19allocatorI12DirectedEdgeE10deallocateB8ue170006EPS1_m, symObjAddr: 0x3374, symBinAddr: 0x100006ABC, symSize: 0x40 }
  - { offsetInCU: 0x14290, offset: 0x14290, size: 0x8, addend: 0x0, symName: __ZNSt3__128__exception_guard_exceptionsINS_29_AllocatorDestroyRangeReverseINS_9allocatorINS_6vectorI12DirectedEdgeNS2_IS4_EEEEEEPS6_EEED2B8ue170006Ev, symObjAddr: 0x3430, symBinAddr: 0x100006B78, symSize: 0x50 }
  - { offsetInCU: 0x142B9, offset: 0x142B9, size: 0x8, addend: 0x0, symName: __ZNKSt3__129_AllocatorDestroyRangeReverseINS_9allocatorINS_6vectorI12DirectedEdgeNS1_IS3_EEEEEEPS5_EclB8ue170006Ev, symObjAddr: 0x3480, symBinAddr: 0x100006BC8, symSize: 0x68 }
  - { offsetInCU: 0x142DE, offset: 0x142DE, size: 0x8, addend: 0x0, symName: __ZNSt3__116reverse_iteratorIPNS_6vectorI12DirectedEdgeNS_9allocatorIS2_EEEEEC1B8ue170006ES6_, symObjAddr: 0x3558, symBinAddr: 0x100006CA0, symSize: 0x34 }
  - { offsetInCU: 0x14315, offset: 0x14315, size: 0x8, addend: 0x0, symName: __ZNSt3__116allocator_traitsINS_9allocatorINS_6vectorI12DirectedEdgeNS1_IS3_EEEEEEE7destroyB8ue170006IS5_vEEvRS6_PT_, symObjAddr: 0x35D4, symBinAddr: 0x100006D1C, symSize: 0x2C }
  - { offsetInCU: 0x14352, offset: 0x14352, size: 0x8, addend: 0x0, symName: __ZNSt3__116reverse_iteratorIPNS_6vectorI12DirectedEdgeNS_9allocatorIS2_EEEEEppB8ue170006Ev, symObjAddr: 0x3624, symBinAddr: 0x100006D6C, symSize: 0x20 }
  - { offsetInCU: 0x14377, offset: 0x14377, size: 0x8, addend: 0x0, symName: __ZNKSt3__116reverse_iteratorIPNS_6vectorI12DirectedEdgeNS_9allocatorIS2_EEEEE4baseB8ue170006Ev, symObjAddr: 0x3644, symBinAddr: 0x100006D8C, symSize: 0x18 }
  - { offsetInCU: 0x1439C, offset: 0x1439C, size: 0x8, addend: 0x0, symName: __ZNSt3__19allocatorINS_6vectorI12DirectedEdgeNS0_IS2_EEEEE7destroyB8ue170006EPS4_, symObjAddr: 0x365C, symBinAddr: 0x100006DA4, symSize: 0x28 }
  - { offsetInCU: 0x143D4, offset: 0x143D4, size: 0x8, addend: 0x0, symName: __ZNSt3__119__to_address_helperINS_16reverse_iteratorIPNS_6vectorI12DirectedEdgeNS_9allocatorIS3_EEEEEEvE6__callB8ue170006ERKS8_, symObjAddr: 0x3684, symBinAddr: 0x100006DCC, symSize: 0x38 }
  - { offsetInCU: 0x143F7, offset: 0x143F7, size: 0x8, addend: 0x0, symName: __ZNKSt3__116reverse_iteratorIPNS_6vectorI12DirectedEdgeNS_9allocatorIS2_EEEEEptB8ue170006Ev, symObjAddr: 0x36BC, symBinAddr: 0x100006E04, symSize: 0x24 }
  - { offsetInCU: 0x1441C, offset: 0x1441C, size: 0x8, addend: 0x0, symName: __ZNKSt3__116reverse_iteratorIPNS_6vectorI12DirectedEdgeNS_9allocatorIS2_EEEEEdeB8ue170006Ev, symObjAddr: 0x36E0, symBinAddr: 0x100006E28, symSize: 0x28 }
  - { offsetInCU: 0x1444F, offset: 0x1444F, size: 0x8, addend: 0x0, symName: __ZNSt3__116reverse_iteratorIPNS_6vectorI12DirectedEdgeNS_9allocatorIS2_EEEEEC2B8ue170006ES6_, symObjAddr: 0x3708, symBinAddr: 0x100006E50, symSize: 0x28 }
  - { offsetInCU: 0x14486, offset: 0x14486, size: 0x8, addend: 0x0, symName: __ZNSt3__118__unwrap_iter_implIPNS_6vectorI12DirectedEdgeNS_9allocatorIS2_EEEELb1EE8__unwrapB8ue170006ES6_, symObjAddr: 0x3730, symBinAddr: 0x100006E78, symSize: 0x24 }
  - { offsetInCU: 0x144A9, offset: 0x144A9, size: 0x8, addend: 0x0, symName: __ZNSt3__118__unwrap_iter_implIPNS_6vectorI12DirectedEdgeNS_9allocatorIS2_EEEELb1EE8__rewrapB8ue170006ES6_S6_, symObjAddr: 0x3754, symBinAddr: 0x100006E9C, symSize: 0x58 }
  - { offsetInCU: 0x144DA, offset: 0x144DA, size: 0x8, addend: 0x0, symName: __ZNSt3__16vectorINS0_I12DirectedEdgeNS_9allocatorIS1_EEEENS2_IS4_EEE21_ConstructTransactionD2B8ue170006Ev, symObjAddr: 0x37AC, symBinAddr: 0x100006EF4, symSize: 0x20 }
  - { offsetInCU: 0x14503, offset: 0x14503, size: 0x8, addend: 0x0, symName: __ZNSt3__128__exception_guard_exceptionsINS_6vectorINS1_I12DirectedEdgeNS_9allocatorIS2_EEEENS3_IS5_EEE16__destroy_vectorEED2B8ue170006Ev, symObjAddr: 0x37CC, symBinAddr: 0x100006F14, symSize: 0x50 }
  - { offsetInCU: 0x1452C, offset: 0x1452C, size: 0x8, addend: 0x0, symName: __ZNSt3__16vectorINS0_I12DirectedEdgeNS_9allocatorIS1_EEEENS2_IS4_EEE16__destroy_vectorclB8ue170006Ev, symObjAddr: 0x381C, symBinAddr: 0x100006F64, symSize: 0x90 }
  - { offsetInCU: 0x14551, offset: 0x14551, size: 0x8, addend: 0x0, symName: __ZNSt3__16vectorINS0_I12DirectedEdgeNS_9allocatorIS1_EEEENS2_IS4_EEE7__clearB8ue170006Ev, symObjAddr: 0x38AC, symBinAddr: 0x100006FF4, symSize: 0x28 }
  - { offsetInCU: 0x14576, offset: 0x14576, size: 0x8, addend: 0x0, symName: __ZNKSt3__16vectorINS0_I12DirectedEdgeNS_9allocatorIS1_EEEENS2_IS4_EEE17__annotate_deleteB8ue170006Ev, symObjAddr: 0x38D4, symBinAddr: 0x10000701C, symSize: 0xD4 }
  - { offsetInCU: 0x1459B, offset: 0x1459B, size: 0x8, addend: 0x0, symName: __ZNSt3__116allocator_traitsINS_9allocatorINS_6vectorI12DirectedEdgeNS1_IS3_EEEEEEE10deallocateB8ue170006ERS6_PS5_m, symObjAddr: 0x39A8, symBinAddr: 0x1000070F0, symSize: 0x34 }
  - { offsetInCU: 0x145DD, offset: 0x145DD, size: 0x8, addend: 0x0, symName: __ZNSt3__16vectorINS0_I12DirectedEdgeNS_9allocatorIS1_EEEENS2_IS4_EEE22__base_destruct_at_endB8ue170006EPS4_, symObjAddr: 0x39DC, symBinAddr: 0x100007124, symSize: 0x8C }
  - { offsetInCU: 0x14620, offset: 0x14620, size: 0x8, addend: 0x0, symName: __ZNSt3__19allocatorINS_6vectorI12DirectedEdgeNS0_IS2_EEEEE10deallocateB8ue170006EPS4_m, symObjAddr: 0x3A68, symBinAddr: 0x1000071B0, symSize: 0x44 }
  - { offsetInCU: 0x14661, offset: 0x14661, size: 0x8, addend: 0x0, symName: __ZN19EdgeWeightedDigraphD2Ev, symObjAddr: 0x3AAC, symBinAddr: 0x1000071F4, symSize: 0x30 }
  - { offsetInCU: 0x1468C, offset: 0x1468C, size: 0x8, addend: 0x0, symName: __ZNSt3__16vectorINS0_I12DirectedEdgeNS_9allocatorIS1_EEEENS2_IS4_EEED1B8ue170006Ev, symObjAddr: 0x3ADC, symBinAddr: 0x100007224, symSize: 0x2C }
  - { offsetInCU: 0x146B5, offset: 0x146B5, size: 0x8, addend: 0x0, symName: __ZNSt3__16vectorINS0_I12DirectedEdgeNS_9allocatorIS1_EEEENS2_IS4_EEED2B8ue170006Ev, symObjAddr: 0x3B08, symBinAddr: 0x100007250, symSize: 0x40 }
  - { offsetInCU: 0x146DE, offset: 0x146DE, size: 0x8, addend: 0x0, symName: __ZN5Utils13PriorityQueueIiED2Ev, symObjAddr: 0x3B48, symBinAddr: 0x100007290, symSize: 0x2C }
  - { offsetInCU: 0x14709, offset: 0x14709, size: 0x8, addend: 0x0, symName: __ZNSt3__114priority_queueIN5Utils16CompareContainerIdiEENS_6vectorIS3_NS_9allocatorIS3_EEEENS_7greaterIS3_EEED2Ev, symObjAddr: 0x3B74, symBinAddr: 0x1000072BC, symSize: 0x2C }
  - { offsetInCU: 0x14735, offset: 0x14735, size: 0x8, addend: 0x0, symName: __ZNSt3__16vectorIN5Utils16CompareContainerIdiEENS_9allocatorIS3_EEED1B8ue170006Ev, symObjAddr: 0x3BA0, symBinAddr: 0x1000072E8, symSize: 0x2C }
  - { offsetInCU: 0x1475E, offset: 0x1475E, size: 0x8, addend: 0x0, symName: __ZNSt3__16vectorIN5Utils16CompareContainerIdiEENS_9allocatorIS3_EEED2B8ue170006Ev, symObjAddr: 0x3BCC, symBinAddr: 0x100007314, symSize: 0x44 }
  - { offsetInCU: 0x14787, offset: 0x14787, size: 0x8, addend: 0x0, symName: __ZNSt3__16vectorIN5Utils16CompareContainerIdiEENS_9allocatorIS3_EEE16__destroy_vectorC1B8ue170006ERS6_, symObjAddr: 0x3C10, symBinAddr: 0x100007358, symSize: 0x34 }
  - { offsetInCU: 0x147BF, offset: 0x147BF, size: 0x8, addend: 0x0, symName: __ZNSt3__16vectorIN5Utils16CompareContainerIdiEENS_9allocatorIS3_EEE16__destroy_vectorclB8ue170006Ev, symObjAddr: 0x3C44, symBinAddr: 0x10000738C, symSize: 0x90 }
  - { offsetInCU: 0x147E4, offset: 0x147E4, size: 0x8, addend: 0x0, symName: __ZNSt3__16vectorIN5Utils16CompareContainerIdiEENS_9allocatorIS3_EEE16__destroy_vectorC2B8ue170006ERS6_, symObjAddr: 0x3CD4, symBinAddr: 0x10000741C, symSize: 0x20 }
  - { offsetInCU: 0x1481C, offset: 0x1481C, size: 0x8, addend: 0x0, symName: __ZNSt3__16vectorIN5Utils16CompareContainerIdiEENS_9allocatorIS3_EEE7__clearB8ue170006Ev, symObjAddr: 0x3CF4, symBinAddr: 0x10000743C, symSize: 0x28 }
  - { offsetInCU: 0x14841, offset: 0x14841, size: 0x8, addend: 0x0, symName: __ZNKSt3__16vectorIN5Utils16CompareContainerIdiEENS_9allocatorIS3_EEE17__annotate_deleteB8ue170006Ev, symObjAddr: 0x3D1C, symBinAddr: 0x100007464, symSize: 0xB8 }
  - { offsetInCU: 0x14866, offset: 0x14866, size: 0x8, addend: 0x0, symName: __ZNSt3__116allocator_traitsINS_9allocatorIN5Utils16CompareContainerIdiEEEEE10deallocateB8ue170006ERS5_PS4_m, symObjAddr: 0x3DD4, symBinAddr: 0x10000751C, symSize: 0x34 }
  - { offsetInCU: 0x148A8, offset: 0x148A8, size: 0x8, addend: 0x0, symName: __ZNSt3__16vectorIN5Utils16CompareContainerIdiEENS_9allocatorIS3_EEE7__allocB8ue170006Ev, symObjAddr: 0x3E08, symBinAddr: 0x100007550, symSize: 0x28 }
  - { offsetInCU: 0x148CD, offset: 0x148CD, size: 0x8, addend: 0x0, symName: __ZNKSt3__16vectorIN5Utils16CompareContainerIdiEENS_9allocatorIS3_EEE8capacityB8ue170006Ev, symObjAddr: 0x3E30, symBinAddr: 0x100007578, symSize: 0x40 }
  - { offsetInCU: 0x148F2, offset: 0x148F2, size: 0x8, addend: 0x0, symName: __ZNSt3__16vectorIN5Utils16CompareContainerIdiEENS_9allocatorIS3_EEE22__base_destruct_at_endB8ue170006EPS3_, symObjAddr: 0x3E70, symBinAddr: 0x1000075B8, symSize: 0x8C }
  - { offsetInCU: 0x14935, offset: 0x14935, size: 0x8, addend: 0x0, symName: __ZNSt3__116allocator_traitsINS_9allocatorIN5Utils16CompareContainerIdiEEEEE7destroyB8ue170006IS4_vEEvRS5_PT_, symObjAddr: 0x3EFC, symBinAddr: 0x100007644, symSize: 0x2C }
  - { offsetInCU: 0x14972, offset: 0x14972, size: 0x8, addend: 0x0, symName: __ZNSt3__19allocatorIN5Utils16CompareContainerIdiEEE7destroyB8ue170006EPS3_, symObjAddr: 0x3F3C, symBinAddr: 0x100007684, symSize: 0x14 }
  - { offsetInCU: 0x149A5, offset: 0x149A5, size: 0x8, addend: 0x0, symName: __ZNKSt3__16vectorIN5Utils16CompareContainerIdiEENS_9allocatorIS3_EEE31__annotate_contiguous_containerB8ue170006EPKvS8_S8_S8_, symObjAddr: 0x3F50, symBinAddr: 0x100007698, symSize: 0x20 }
  - { offsetInCU: 0x149F6, offset: 0x149F6, size: 0x8, addend: 0x0, symName: __ZNKSt3__16vectorIN5Utils16CompareContainerIdiEENS_9allocatorIS3_EEE4dataB8ue170006Ev, symObjAddr: 0x3F70, symBinAddr: 0x1000076B8, symSize: 0x28 }
  - { offsetInCU: 0x14A1B, offset: 0x14A1B, size: 0x8, addend: 0x0, symName: __ZNKSt3__16vectorIN5Utils16CompareContainerIdiEENS_9allocatorIS3_EEE4sizeB8ue170006Ev, symObjAddr: 0x3F98, symBinAddr: 0x1000076E0, symSize: 0x28 }
  - { offsetInCU: 0x14A40, offset: 0x14A40, size: 0x8, addend: 0x0, symName: __ZNSt3__19allocatorIN5Utils16CompareContainerIdiEEE10deallocateB8ue170006EPS3_m, symObjAddr: 0x3FC0, symBinAddr: 0x100007708, symSize: 0x40 }
  - { offsetInCU: 0x14A81, offset: 0x14A81, size: 0x8, addend: 0x0, symName: __ZNSt3__117__compressed_pairIPN5Utils16CompareContainerIdiEENS_9allocatorIS3_EEE6secondB8ue170006Ev, symObjAddr: 0x4000, symBinAddr: 0x100007748, symSize: 0x24 }
  - { offsetInCU: 0x14AA6, offset: 0x14AA6, size: 0x8, addend: 0x0, symName: __ZNSt3__122__compressed_pair_elemINS_9allocatorIN5Utils16CompareContainerIdiEEEELi1ELb1EE5__getB8ue170006Ev, symObjAddr: 0x4024, symBinAddr: 0x10000776C, symSize: 0x14 }
  - { offsetInCU: 0x14ACB, offset: 0x14ACB, size: 0x8, addend: 0x0, symName: __ZNKSt3__16vectorIN5Utils16CompareContainerIdiEENS_9allocatorIS3_EEE9__end_capB8ue170006Ev, symObjAddr: 0x4038, symBinAddr: 0x100007780, symSize: 0x28 }
  - { offsetInCU: 0x14AF0, offset: 0x14AF0, size: 0x8, addend: 0x0, symName: __ZNKSt3__117__compressed_pairIPN5Utils16CompareContainerIdiEENS_9allocatorIS3_EEE5firstB8ue170006Ev, symObjAddr: 0x4060, symBinAddr: 0x1000077A8, symSize: 0x24 }
  - { offsetInCU: 0x14B15, offset: 0x14B15, size: 0x8, addend: 0x0, symName: __ZNKSt3__122__compressed_pair_elemIPN5Utils16CompareContainerIdiEELi0ELb0EE5__getB8ue170006Ev, symObjAddr: 0x4084, symBinAddr: 0x1000077CC, symSize: 0x14 }
  - { offsetInCU: 0x14B3A, offset: 0x14B3A, size: 0x8, addend: 0x0, symName: __ZNSt3__13mapIi12DirectedEdgeNS_4lessIiEENS_9allocatorINS_4pairIKiS1_EEEEEC2B8ue170006Ev, symObjAddr: 0x4098, symBinAddr: 0x1000077E0, symSize: 0x40 }
  - { offsetInCU: 0x14B63, offset: 0x14B63, size: 0x8, addend: 0x0, symName: __ZNSt3__119__map_value_compareIiNS_12__value_typeIi12DirectedEdgeEENS_4lessIiEELb1EEC1B8ue170006ES5_, symObjAddr: 0x40D8, symBinAddr: 0x100007820, symSize: 0x2C }
  - { offsetInCU: 0x14B9B, offset: 0x14B9B, size: 0x8, addend: 0x0, symName: __ZNSt3__16__treeINS_12__value_typeIi12DirectedEdgeEENS_19__map_value_compareIiS3_NS_4lessIiEELb1EEENS_9allocatorIS3_EEEC1ERKS7_, symObjAddr: 0x4104, symBinAddr: 0x10000784C, symSize: 0x34 }
  - { offsetInCU: 0x14BD5, offset: 0x14BD5, size: 0x8, addend: 0x0, symName: __ZNSt3__119__map_value_compareIiNS_12__value_typeIi12DirectedEdgeEENS_4lessIiEELb1EEC2B8ue170006ES5_, symObjAddr: 0x4138, symBinAddr: 0x100007880, symSize: 0x14 }
  - { offsetInCU: 0x14C0D, offset: 0x14C0D, size: 0x8, addend: 0x0, symName: __ZNSt3__16__treeINS_12__value_typeIi12DirectedEdgeEENS_19__map_value_compareIiS3_NS_4lessIiEELb1EEENS_9allocatorIS3_EEEC2ERKS7_, symObjAddr: 0x414C, symBinAddr: 0x100007894, symSize: 0x7C }
  - { offsetInCU: 0x14C47, offset: 0x14C47, size: 0x8, addend: 0x0, symName: __ZNSt3__117__compressed_pairINS_15__tree_end_nodeIPNS_16__tree_node_baseIPvEEEENS_9allocatorINS_11__tree_nodeINS_12__value_typeIi12DirectedEdgeEES3_EEEEEC1B8ue170006ILb1EvEEv, symObjAddr: 0x41C8, symBinAddr: 0x100007910, symSize: 0x2C }
  - { offsetInCU: 0x14C80, offset: 0x14C80, size: 0x8, addend: 0x0, symName: __ZNSt3__117__compressed_pairImNS_19__map_value_compareIiNS_12__value_typeIi12DirectedEdgeEENS_4lessIiEELb1EEEEC1B8ue170006IiRKS7_EEOT_OT0_, symObjAddr: 0x41F4, symBinAddr: 0x10000793C, symSize: 0x3C }
  - { offsetInCU: 0x14CD7, offset: 0x14CD7, size: 0x8, addend: 0x0, symName: __ZNSt3__16__treeINS_12__value_typeIi12DirectedEdgeEENS_19__map_value_compareIiS3_NS_4lessIiEELb1EEENS_9allocatorIS3_EEE10__end_nodeB8ue170006Ev, symObjAddr: 0x4230, symBinAddr: 0x100007978, symSize: 0x2C }
  - { offsetInCU: 0x14CFC, offset: 0x14CFC, size: 0x8, addend: 0x0, symName: __ZNSt3__16__treeINS_12__value_typeIi12DirectedEdgeEENS_19__map_value_compareIiS3_NS_4lessIiEELb1EEENS_9allocatorIS3_EEE12__begin_nodeB8ue170006Ev, symObjAddr: 0x425C, symBinAddr: 0x1000079A4, symSize: 0x14 }
  - { offsetInCU: 0x14D21, offset: 0x14D21, size: 0x8, addend: 0x0, symName: __ZNSt3__117__compressed_pairINS_15__tree_end_nodeIPNS_16__tree_node_baseIPvEEEENS_9allocatorINS_11__tree_nodeINS_12__value_typeIi12DirectedEdgeEES3_EEEEEC2B8ue170006ILb1EvEEv, symObjAddr: 0x4270, symBinAddr: 0x1000079B8, symSize: 0x34 }
  - { offsetInCU: 0x14D55, offset: 0x14D55, size: 0x8, addend: 0x0, symName: __ZNSt3__122__compressed_pair_elemINS_15__tree_end_nodeIPNS_16__tree_node_baseIPvEEEELi0ELb0EEC2B8ue170006ENS_16__value_init_tagE, symObjAddr: 0x42A4, symBinAddr: 0x1000079EC, symSize: 0x2C }
  - { offsetInCU: 0x14D88, offset: 0x14D88, size: 0x8, addend: 0x0, symName: __ZNSt3__122__compressed_pair_elemINS_9allocatorINS_11__tree_nodeINS_12__value_typeIi12DirectedEdgeEEPvEEEELi1ELb1EEC2B8ue170006ENS_16__value_init_tagE, symObjAddr: 0x42D0, symBinAddr: 0x100007A18, symSize: 0x2C }
  - { offsetInCU: 0x14DBB, offset: 0x14DBB, size: 0x8, addend: 0x0, symName: __ZNSt3__115__tree_end_nodeIPNS_16__tree_node_baseIPvEEEC1B8ue170006Ev, symObjAddr: 0x42FC, symBinAddr: 0x100007A44, symSize: 0x2C }
  - { offsetInCU: 0x14DE4, offset: 0x14DE4, size: 0x8, addend: 0x0, symName: __ZNSt3__115__tree_end_nodeIPNS_16__tree_node_baseIPvEEEC2B8ue170006Ev, symObjAddr: 0x4328, symBinAddr: 0x100007A70, symSize: 0x18 }
  - { offsetInCU: 0x14E0D, offset: 0x14E0D, size: 0x8, addend: 0x0, symName: __ZNSt3__19allocatorINS_11__tree_nodeINS_12__value_typeIi12DirectedEdgeEEPvEEEC2B8ue170006Ev, symObjAddr: 0x4340, symBinAddr: 0x100007A88, symSize: 0x2C }
  - { offsetInCU: 0x14E36, offset: 0x14E36, size: 0x8, addend: 0x0, symName: __ZNSt3__116__non_trivial_ifILb1ENS_9allocatorINS_11__tree_nodeINS_12__value_typeIi12DirectedEdgeEEPvEEEEEC2B8ue170006Ev, symObjAddr: 0x436C, symBinAddr: 0x100007AB4, symSize: 0x14 }
  - { offsetInCU: 0x14E5F, offset: 0x14E5F, size: 0x8, addend: 0x0, symName: __ZNSt3__117__compressed_pairImNS_19__map_value_compareIiNS_12__value_typeIi12DirectedEdgeEENS_4lessIiEELb1EEEEC2B8ue170006IiRKS7_EEOT_OT0_, symObjAddr: 0x4380, symBinAddr: 0x100007AC8, symSize: 0x44 }
  - { offsetInCU: 0x14EB6, offset: 0x14EB6, size: 0x8, addend: 0x0, symName: __ZNSt3__122__compressed_pair_elemImLi0ELb0EEC2B8ue170006IivEEOT_, symObjAddr: 0x43C4, symBinAddr: 0x100007B0C, symSize: 0x24 }
  - { offsetInCU: 0x14EF7, offset: 0x14EF7, size: 0x8, addend: 0x0, symName: __ZNSt3__122__compressed_pair_elemINS_19__map_value_compareIiNS_12__value_typeIi12DirectedEdgeEENS_4lessIiEELb1EEELi1ELb1EEC2B8ue170006IRKS7_vEEOT_, symObjAddr: 0x43E8, symBinAddr: 0x100007B30, symSize: 0x18 }
  - { offsetInCU: 0x14F38, offset: 0x14F38, size: 0x8, addend: 0x0, symName: __ZNSt3__114pointer_traitsIPNS_15__tree_end_nodeIPNS_16__tree_node_baseIPvEEEEE10pointer_toB8ue170006ERS6_, symObjAddr: 0x4400, symBinAddr: 0x100007B48, symSize: 0x14 }
  - { offsetInCU: 0x14F5B, offset: 0x14F5B, size: 0x8, addend: 0x0, symName: __ZNSt3__117__compressed_pairINS_15__tree_end_nodeIPNS_16__tree_node_baseIPvEEEENS_9allocatorINS_11__tree_nodeINS_12__value_typeIi12DirectedEdgeEES3_EEEEE5firstB8ue170006Ev, symObjAddr: 0x4414, symBinAddr: 0x100007B5C, symSize: 0x24 }
  - { offsetInCU: 0x14F80, offset: 0x14F80, size: 0x8, addend: 0x0, symName: __ZNSt3__122__compressed_pair_elemINS_15__tree_end_nodeIPNS_16__tree_node_baseIPvEEEELi0ELb0EE5__getB8ue170006Ev, symObjAddr: 0x4438, symBinAddr: 0x100007B80, symSize: 0x14 }
  - { offsetInCU: 0x14FA5, offset: 0x14FA5, size: 0x8, addend: 0x0, symName: __ZNSt3__16vectorIdNS_9allocatorIdEEEC2B8ue170006Ev, symObjAddr: 0x444C, symBinAddr: 0x100007B94, symSize: 0x4C }
  - { offsetInCU: 0x14FCE, offset: 0x14FCE, size: 0x8, addend: 0x0, symName: __ZNSt3__117__compressed_pairIPdNS_9allocatorIdEEEC1B8ue170006IDnNS_18__default_init_tagEEEOT_OT0_, symObjAddr: 0x4498, symBinAddr: 0x100007BE0, symSize: 0x3C }
  - { offsetInCU: 0x15025, offset: 0x15025, size: 0x8, addend: 0x0, symName: __ZNSt3__117__compressed_pairIPdNS_9allocatorIdEEEC2B8ue170006IDnNS_18__default_init_tagEEEOT_OT0_, symObjAddr: 0x44D4, symBinAddr: 0x100007C1C, symSize: 0x40 }
  - { offsetInCU: 0x1507C, offset: 0x1507C, size: 0x8, addend: 0x0, symName: __ZNSt3__122__compressed_pair_elemIPdLi0ELb0EEC2B8ue170006IDnvEEOT_, symObjAddr: 0x4514, symBinAddr: 0x100007C5C, symSize: 0x1C }
  - { offsetInCU: 0x150BD, offset: 0x150BD, size: 0x8, addend: 0x0, symName: __ZNSt3__122__compressed_pair_elemINS_9allocatorIdEELi1ELb1EEC2B8ue170006ENS_18__default_init_tagE, symObjAddr: 0x4530, symBinAddr: 0x100007C78, symSize: 0x2C }
  - { offsetInCU: 0x150F0, offset: 0x150F0, size: 0x8, addend: 0x0, symName: __ZNSt3__19allocatorIdEC2B8ue170006Ev, symObjAddr: 0x455C, symBinAddr: 0x100007CA4, symSize: 0x2C }
  - { offsetInCU: 0x15119, offset: 0x15119, size: 0x8, addend: 0x0, symName: __ZNSt3__116__non_trivial_ifILb1ENS_9allocatorIdEEEC2B8ue170006Ev, symObjAddr: 0x4588, symBinAddr: 0x100007CD0, symSize: 0x14 }
  - { offsetInCU: 0x15142, offset: 0x15142, size: 0x8, addend: 0x0, symName: __ZNSt3__13mapIi12DirectedEdgeNS_4lessIiEENS_9allocatorINS_4pairIKiS1_EEEEED2B8ue170006Ev, symObjAddr: 0x459C, symBinAddr: 0x100007CE4, symSize: 0x2C }
  - { offsetInCU: 0x1516B, offset: 0x1516B, size: 0x8, addend: 0x0, symName: __ZNSt3__16__treeINS_12__value_typeIi12DirectedEdgeEENS_19__map_value_compareIiS3_NS_4lessIiEELb1EEENS_9allocatorIS3_EEED1Ev, symObjAddr: 0x45C8, symBinAddr: 0x100007D10, symSize: 0x2C }
  - { offsetInCU: 0x15196, offset: 0x15196, size: 0x8, addend: 0x0, symName: __ZNSt3__16__treeINS_12__value_typeIi12DirectedEdgeEENS_19__map_value_compareIiS3_NS_4lessIiEELb1EEENS_9allocatorIS3_EEED2Ev, symObjAddr: 0x45F4, symBinAddr: 0x100007D3C, symSize: 0x38 }
  - { offsetInCU: 0x151C0, offset: 0x151C0, size: 0x8, addend: 0x0, symName: __ZNSt3__16__treeINS_12__value_typeIi12DirectedEdgeEENS_19__map_value_compareIiS3_NS_4lessIiEELb1EEENS_9allocatorIS3_EEE7destroyEPNS_11__tree_nodeIS3_PvEE, symObjAddr: 0x462C, symBinAddr: 0x100007D74, symSize: 0xAC }
  - { offsetInCU: 0x1520C, offset: 0x1520C, size: 0x8, addend: 0x0, symName: __ZNKSt3__16__treeINS_12__value_typeIi12DirectedEdgeEENS_19__map_value_compareIiS3_NS_4lessIiEELb1EEENS_9allocatorIS3_EEE6__rootB8ue170006Ev, symObjAddr: 0x46D8, symBinAddr: 0x100007E20, symSize: 0x28 }
  - { offsetInCU: 0x15231, offset: 0x15231, size: 0x8, addend: 0x0, symName: __ZNSt3__16__treeINS_12__value_typeIi12DirectedEdgeEENS_19__map_value_compareIiS3_NS_4lessIiEELb1EEENS_9allocatorIS3_EEE12__node_allocB8ue170006Ev, symObjAddr: 0x4700, symBinAddr: 0x100007E48, symSize: 0x28 }
  - { offsetInCU: 0x15256, offset: 0x15256, size: 0x8, addend: 0x0, symName: __ZNSt3__116allocator_traitsINS_9allocatorINS_11__tree_nodeINS_12__value_typeIi12DirectedEdgeEEPvEEEEE7destroyB8ue170006INS_4pairIKiS4_EEvvEEvRS8_PT_, symObjAddr: 0x4728, symBinAddr: 0x100007E70, symSize: 0x14 }
  - { offsetInCU: 0x15290, offset: 0x15290, size: 0x8, addend: 0x0, symName: __ZNSt3__122__tree_key_value_typesINS_12__value_typeIi12DirectedEdgeEEE9__get_ptrB8ue170006ERS3_, symObjAddr: 0x473C, symBinAddr: 0x100007E84, symSize: 0x24 }
  - { offsetInCU: 0x152B4, offset: 0x152B4, size: 0x8, addend: 0x0, symName: __ZNSt3__116allocator_traitsINS_9allocatorINS_11__tree_nodeINS_12__value_typeIi12DirectedEdgeEEPvEEEEE10deallocateB8ue170006ERS8_PS7_m, symObjAddr: 0x4760, symBinAddr: 0x100007EA8, symSize: 0x34 }
  - { offsetInCU: 0x152F6, offset: 0x152F6, size: 0x8, addend: 0x0, symName: __ZNSt3__117__compressed_pairINS_15__tree_end_nodeIPNS_16__tree_node_baseIPvEEEENS_9allocatorINS_11__tree_nodeINS_12__value_typeIi12DirectedEdgeEES3_EEEEE6secondB8ue170006Ev, symObjAddr: 0x4794, symBinAddr: 0x100007EDC, symSize: 0x24 }
  - { offsetInCU: 0x1531B, offset: 0x1531B, size: 0x8, addend: 0x0, symName: __ZNSt3__122__compressed_pair_elemINS_9allocatorINS_11__tree_nodeINS_12__value_typeIi12DirectedEdgeEEPvEEEELi1ELb1EE5__getB8ue170006Ev, symObjAddr: 0x47B8, symBinAddr: 0x100007F00, symSize: 0x14 }
  - { offsetInCU: 0x15340, offset: 0x15340, size: 0x8, addend: 0x0, symName: __ZNSt3__112__value_typeIi12DirectedEdgeE11__get_valueB8ue170006Ev, symObjAddr: 0x47CC, symBinAddr: 0x100007F14, symSize: 0x14 }
  - { offsetInCU: 0x15365, offset: 0x15365, size: 0x8, addend: 0x0, symName: __ZNSt3__19allocatorINS_11__tree_nodeINS_12__value_typeIi12DirectedEdgeEEPvEEE10deallocateB8ue170006EPS6_m, symObjAddr: 0x47E0, symBinAddr: 0x100007F28, symSize: 0x44 }
  - { offsetInCU: 0x153A6, offset: 0x153A6, size: 0x8, addend: 0x0, symName: __ZNKSt3__16__treeINS_12__value_typeIi12DirectedEdgeEENS_19__map_value_compareIiS3_NS_4lessIiEELb1EEENS_9allocatorIS3_EEE10__end_nodeB8ue170006Ev, symObjAddr: 0x4824, symBinAddr: 0x100007F6C, symSize: 0x2C }
  - { offsetInCU: 0x153CB, offset: 0x153CB, size: 0x8, addend: 0x0, symName: __ZNKSt3__117__compressed_pairINS_15__tree_end_nodeIPNS_16__tree_node_baseIPvEEEENS_9allocatorINS_11__tree_nodeINS_12__value_typeIi12DirectedEdgeEES3_EEEEE5firstB8ue170006Ev, symObjAddr: 0x4850, symBinAddr: 0x100007F98, symSize: 0x24 }
  - { offsetInCU: 0x153F0, offset: 0x153F0, size: 0x8, addend: 0x0, symName: __ZNKSt3__122__compressed_pair_elemINS_15__tree_end_nodeIPNS_16__tree_node_baseIPvEEEELi0ELb0EE5__getB8ue170006Ev, symObjAddr: 0x4874, symBinAddr: 0x100007FBC, symSize: 0x14 }
  - { offsetInCU: 0x15415, offset: 0x15415, size: 0x8, addend: 0x0, symName: __ZNSt3__16vectorIdNS_9allocatorIdEEED2B8ue170006Ev, symObjAddr: 0x4888, symBinAddr: 0x100007FD0, symSize: 0x44 }
  - { offsetInCU: 0x1543E, offset: 0x1543E, size: 0x8, addend: 0x0, symName: __ZNSt3__16vectorIdNS_9allocatorIdEEE16__destroy_vectorC1B8ue170006ERS3_, symObjAddr: 0x48CC, symBinAddr: 0x100008014, symSize: 0x34 }
  - { offsetInCU: 0x15476, offset: 0x15476, size: 0x8, addend: 0x0, symName: __ZNSt3__16vectorIdNS_9allocatorIdEEE16__destroy_vectorclB8ue170006Ev, symObjAddr: 0x4900, symBinAddr: 0x100008048, symSize: 0x90 }
  - { offsetInCU: 0x1549B, offset: 0x1549B, size: 0x8, addend: 0x0, symName: __ZNSt3__16vectorIdNS_9allocatorIdEEE16__destroy_vectorC2B8ue170006ERS3_, symObjAddr: 0x4990, symBinAddr: 0x1000080D8, symSize: 0x20 }
  - { offsetInCU: 0x154D3, offset: 0x154D3, size: 0x8, addend: 0x0, symName: __ZNSt3__16vectorIdNS_9allocatorIdEEE7__clearB8ue170006Ev, symObjAddr: 0x49B0, symBinAddr: 0x1000080F8, symSize: 0x28 }
  - { offsetInCU: 0x154F8, offset: 0x154F8, size: 0x8, addend: 0x0, symName: __ZNKSt3__16vectorIdNS_9allocatorIdEEE17__annotate_deleteB8ue170006Ev, symObjAddr: 0x49D8, symBinAddr: 0x100008120, symSize: 0xB8 }
  - { offsetInCU: 0x1551D, offset: 0x1551D, size: 0x8, addend: 0x0, symName: __ZNSt3__116allocator_traitsINS_9allocatorIdEEE10deallocateB8ue170006ERS2_Pdm, symObjAddr: 0x4A90, symBinAddr: 0x1000081D8, symSize: 0x34 }
  - { offsetInCU: 0x1555F, offset: 0x1555F, size: 0x8, addend: 0x0, symName: __ZNSt3__16vectorIdNS_9allocatorIdEEE7__allocB8ue170006Ev, symObjAddr: 0x4AC4, symBinAddr: 0x10000820C, symSize: 0x28 }
  - { offsetInCU: 0x15584, offset: 0x15584, size: 0x8, addend: 0x0, symName: __ZNKSt3__16vectorIdNS_9allocatorIdEEE8capacityB8ue170006Ev, symObjAddr: 0x4AEC, symBinAddr: 0x100008234, symSize: 0x40 }
  - { offsetInCU: 0x155A9, offset: 0x155A9, size: 0x8, addend: 0x0, symName: __ZNSt3__16vectorIdNS_9allocatorIdEEE22__base_destruct_at_endB8ue170006EPd, symObjAddr: 0x4B2C, symBinAddr: 0x100008274, symSize: 0x8C }
  - { offsetInCU: 0x155EC, offset: 0x155EC, size: 0x8, addend: 0x0, symName: __ZNSt3__116allocator_traitsINS_9allocatorIdEEE7destroyB8ue170006IdvEEvRS2_PT_, symObjAddr: 0x4BB8, symBinAddr: 0x100008300, symSize: 0x2C }
  - { offsetInCU: 0x15629, offset: 0x15629, size: 0x8, addend: 0x0, symName: __ZNSt3__19allocatorIdE7destroyB8ue170006EPd, symObjAddr: 0x4BF8, symBinAddr: 0x100008340, symSize: 0x14 }
  - { offsetInCU: 0x1565C, offset: 0x1565C, size: 0x8, addend: 0x0, symName: __ZNKSt3__16vectorIdNS_9allocatorIdEEE31__annotate_contiguous_containerB8ue170006EPKvS5_S5_S5_, symObjAddr: 0x4C0C, symBinAddr: 0x100008354, symSize: 0x20 }
  - { offsetInCU: 0x156AD, offset: 0x156AD, size: 0x8, addend: 0x0, symName: __ZNKSt3__16vectorIdNS_9allocatorIdEEE4dataB8ue170006Ev, symObjAddr: 0x4C2C, symBinAddr: 0x100008374, symSize: 0x28 }
  - { offsetInCU: 0x156D2, offset: 0x156D2, size: 0x8, addend: 0x0, symName: __ZNKSt3__16vectorIdNS_9allocatorIdEEE4sizeB8ue170006Ev, symObjAddr: 0x4C54, symBinAddr: 0x10000839C, symSize: 0x28 }
  - { offsetInCU: 0x156F7, offset: 0x156F7, size: 0x8, addend: 0x0, symName: __ZNSt3__19allocatorIdE10deallocateB8ue170006EPdm, symObjAddr: 0x4C7C, symBinAddr: 0x1000083C4, symSize: 0x40 }
  - { offsetInCU: 0x15738, offset: 0x15738, size: 0x8, addend: 0x0, symName: __ZNSt3__117__compressed_pairIPdNS_9allocatorIdEEE6secondB8ue170006Ev, symObjAddr: 0x4CBC, symBinAddr: 0x100008404, symSize: 0x24 }
  - { offsetInCU: 0x1575D, offset: 0x1575D, size: 0x8, addend: 0x0, symName: __ZNSt3__122__compressed_pair_elemINS_9allocatorIdEELi1ELb1EE5__getB8ue170006Ev, symObjAddr: 0x4CE0, symBinAddr: 0x100008428, symSize: 0x14 }
  - { offsetInCU: 0x15782, offset: 0x15782, size: 0x8, addend: 0x0, symName: __ZNKSt3__16vectorIdNS_9allocatorIdEEE9__end_capB8ue170006Ev, symObjAddr: 0x4CF4, symBinAddr: 0x10000843C, symSize: 0x28 }
  - { offsetInCU: 0x157A7, offset: 0x157A7, size: 0x8, addend: 0x0, symName: __ZNKSt3__117__compressed_pairIPdNS_9allocatorIdEEE5firstB8ue170006Ev, symObjAddr: 0x4D1C, symBinAddr: 0x100008464, symSize: 0x24 }
  - { offsetInCU: 0x157CC, offset: 0x157CC, size: 0x8, addend: 0x0, symName: __ZNKSt3__122__compressed_pair_elemIPdLi0ELb0EE5__getB8ue170006Ev, symObjAddr: 0x4D40, symBinAddr: 0x100008488, symSize: 0x14 }
  - { offsetInCU: 0x157F1, offset: 0x157F1, size: 0x8, addend: 0x0, symName: __ZNSt3__16vectorI12DirectedEdgeNS_9allocatorIS1_EEED2B8ue170006Ev, symObjAddr: 0x4D54, symBinAddr: 0x10000849C, symSize: 0x40 }
  - { offsetInCU: 0x1581A, offset: 0x1581A, size: 0x8, addend: 0x0, symName: __ZNSt3__16vectorI12DirectedEdgeNS_9allocatorIS1_EEE11__make_iterB8ue170006EPS1_, symObjAddr: 0x4D94, symBinAddr: 0x1000084DC, symSize: 0x30 }
  - { offsetInCU: 0x1584E, offset: 0x1584E, size: 0x8, addend: 0x0, symName: __ZNSt3__111__wrap_iterIP12DirectedEdgeEC1B8ue170006ES2_, symObjAddr: 0x4DC4, symBinAddr: 0x10000850C, symSize: 0x34 }
  - { offsetInCU: 0x15885, offset: 0x15885, size: 0x8, addend: 0x0, symName: __ZNSt3__111__wrap_iterIP12DirectedEdgeEC2B8ue170006ES2_, symObjAddr: 0x4DF8, symBinAddr: 0x100008540, symSize: 0x20 }
  - { offsetInCU: 0x158CF, offset: 0x158CF, size: 0x8, addend: 0x0, symName: __ZNSt3__16__treeINS_12__value_typeIi12DirectedEdgeEENS_19__map_value_compareIiS3_NS_4lessIiEELb1EEENS_9allocatorIS3_EEE25__emplace_unique_key_argsIiJRKNS_21piecewise_construct_tENS_5tupleIJRKiEEENSF_IJEEEEEENS_4pairINS_15__tree_iteratorIS3_PNS_11__tree_nodeIS3_PvEElEEbEERKT_DpOT0_, symObjAddr: 0x4E18, symBinAddr: 0x100008560, symSize: 0x100 }
  - { offsetInCU: 0x159A5, offset: 0x159A5, size: 0x8, addend: 0x0, symName: __ZNKSt3__115__tree_iteratorINS_12__value_typeIi12DirectedEdgeEEPNS_11__tree_nodeIS3_PvEElEptB8ue170006Ev, symObjAddr: 0x4F48, symBinAddr: 0x100008690, symSize: 0x2C }
  - { offsetInCU: 0x159C9, offset: 0x159C9, size: 0x8, addend: 0x0, symName: __ZNSt3__16__treeINS_12__value_typeIi12DirectedEdgeEENS_19__map_value_compareIiS3_NS_4lessIiEELb1EEENS_9allocatorIS3_EEE12__find_equalIiEERPNS_16__tree_node_baseIPvEERPNS_15__tree_end_nodeISF_EERKT_, symObjAddr: 0x4F74, symBinAddr: 0x1000086BC, symSize: 0x184 }
  - { offsetInCU: 0x15A34, offset: 0x15A34, size: 0x8, addend: 0x0, symName: __ZNSt3__16__treeINS_12__value_typeIi12DirectedEdgeEENS_19__map_value_compareIiS3_NS_4lessIiEELb1EEENS_9allocatorIS3_EEE16__construct_nodeIJRKNS_21piecewise_construct_tENS_5tupleIJRKiEEENSF_IJEEEEEENS_10unique_ptrINS_11__tree_nodeIS3_PvEENS_22__tree_node_destructorINS8_ISN_EEEEEEDpOT_, symObjAddr: 0x50F8, symBinAddr: 0x100008840, symSize: 0x120 }
  - { offsetInCU: 0x15ABB, offset: 0x15ABB, size: 0x8, addend: 0x0, symName: __ZNSt3__16__treeINS_12__value_typeIi12DirectedEdgeEENS_19__map_value_compareIiS3_NS_4lessIiEELb1EEENS_9allocatorIS3_EEE16__insert_node_atEPNS_15__tree_end_nodeIPNS_16__tree_node_baseIPvEEEERSF_SF_, symObjAddr: 0x5218, symBinAddr: 0x100008960, symSize: 0xCC }
  - { offsetInCU: 0x15B0F, offset: 0x15B0F, size: 0x8, addend: 0x0, symName: __ZNKSt3__110unique_ptrINS_11__tree_nodeINS_12__value_typeIi12DirectedEdgeEEPvEENS_22__tree_node_destructorINS_9allocatorIS6_EEEEE3getB8ue170006Ev, symObjAddr: 0x52E4, symBinAddr: 0x100008A2C, symSize: 0x28 }
  - { offsetInCU: 0x15B34, offset: 0x15B34, size: 0x8, addend: 0x0, symName: __ZNSt3__110unique_ptrINS_11__tree_nodeINS_12__value_typeIi12DirectedEdgeEEPvEENS_22__tree_node_destructorINS_9allocatorIS6_EEEEE7releaseB8ue170006Ev, symObjAddr: 0x530C, symBinAddr: 0x100008A54, symSize: 0x44 }
  - { offsetInCU: 0x15B68, offset: 0x15B68, size: 0x8, addend: 0x0, symName: __ZNSt3__110unique_ptrINS_11__tree_nodeINS_12__value_typeIi12DirectedEdgeEEPvEENS_22__tree_node_destructorINS_9allocatorIS6_EEEEED1B8ue170006Ev, symObjAddr: 0x5350, symBinAddr: 0x100008A98, symSize: 0x2C }
  - { offsetInCU: 0x15B91, offset: 0x15B91, size: 0x8, addend: 0x0, symName: __ZNSt3__115__tree_iteratorINS_12__value_typeIi12DirectedEdgeEEPNS_11__tree_nodeIS3_PvEElEC1B8ue170006ES7_, symObjAddr: 0x537C, symBinAddr: 0x100008AC4, symSize: 0x34 }
  - { offsetInCU: 0x15BD3, offset: 0x15BD3, size: 0x8, addend: 0x0, symName: __ZNSt3__14pairINS_15__tree_iteratorINS_12__value_typeIi12DirectedEdgeEEPNS_11__tree_nodeIS4_PvEElEEbEC1B8ue170006IS9_RbLS6_0EEEOT_OT0_, symObjAddr: 0x53B0, symBinAddr: 0x100008AF8, symSize: 0x3C }
  - { offsetInCU: 0x15C30, offset: 0x15C30, size: 0x8, addend: 0x0, symName: __ZNKSt3__16__treeINS_12__value_typeIi12DirectedEdgeEENS_19__map_value_compareIiS3_NS_4lessIiEELb1EEENS_9allocatorIS3_EEE10__root_ptrB8ue170006Ev, symObjAddr: 0x53EC, symBinAddr: 0x100008B34, symSize: 0x24 }
  - { offsetInCU: 0x15C55, offset: 0x15C55, size: 0x8, addend: 0x0, symName: __ZNSt3__16__treeINS_12__value_typeIi12DirectedEdgeEENS_19__map_value_compareIiS3_NS_4lessIiEELb1EEENS_9allocatorIS3_EEE10value_compB8ue170006Ev, symObjAddr: 0x5410, symBinAddr: 0x100008B58, symSize: 0x28 }
  - { offsetInCU: 0x15C7A, offset: 0x15C7A, size: 0x8, addend: 0x0, symName: __ZNKSt3__119__map_value_compareIiNS_12__value_typeIi12DirectedEdgeEENS_4lessIiEELb1EEclB8ue170006ERKiRKS3_, symObjAddr: 0x5438, symBinAddr: 0x100008B80, symSize: 0x50 }
  - { offsetInCU: 0x15CBD, offset: 0x15CBD, size: 0x8, addend: 0x0, symName: __ZNKSt3__119__map_value_compareIiNS_12__value_typeIi12DirectedEdgeEENS_4lessIiEELb1EEclB8ue170006ERKS3_RKi, symObjAddr: 0x5488, symBinAddr: 0x100008BD0, symSize: 0x48 }
  - { offsetInCU: 0x15D00, offset: 0x15D00, size: 0x8, addend: 0x0, symName: __ZNSt3__117__compressed_pairImNS_19__map_value_compareIiNS_12__value_typeIi12DirectedEdgeEENS_4lessIiEELb1EEEE6secondB8ue170006Ev, symObjAddr: 0x54D0, symBinAddr: 0x100008C18, symSize: 0x24 }
  - { offsetInCU: 0x15D25, offset: 0x15D25, size: 0x8, addend: 0x0, symName: __ZNSt3__122__compressed_pair_elemINS_19__map_value_compareIiNS_12__value_typeIi12DirectedEdgeEENS_4lessIiEELb1EEELi1ELb1EE5__getB8ue170006Ev, symObjAddr: 0x54F4, symBinAddr: 0x100008C3C, symSize: 0x14 }
  - { offsetInCU: 0x15D4A, offset: 0x15D4A, size: 0x8, addend: 0x0, symName: __ZNKSt3__14lessIiEclB8ue170006ERKiS3_, symObjAddr: 0x5508, symBinAddr: 0x100008C50, symSize: 0x34 }
  - { offsetInCU: 0x15D8D, offset: 0x15D8D, size: 0x8, addend: 0x0, symName: __ZNKSt3__112__value_typeIi12DirectedEdgeE11__get_valueB8ue170006Ev, symObjAddr: 0x553C, symBinAddr: 0x100008C84, symSize: 0x14 }
  - { offsetInCU: 0x15DB2, offset: 0x15DB2, size: 0x8, addend: 0x0, symName: __ZNSt3__116allocator_traitsINS_9allocatorINS_11__tree_nodeINS_12__value_typeIi12DirectedEdgeEEPvEEEEE8allocateB8ue170006ERS8_m, symObjAddr: 0x5550, symBinAddr: 0x100008C98, symSize: 0x2C }
  - { offsetInCU: 0x15DE5, offset: 0x15DE5, size: 0x8, addend: 0x0, symName: __ZNSt3__122__tree_node_destructorINS_9allocatorINS_11__tree_nodeINS_12__value_typeIi12DirectedEdgeEEPvEEEEEC1B8ue170006ERS8_b, symObjAddr: 0x557C, symBinAddr: 0x100008CC4, symSize: 0x48 }
  - { offsetInCU: 0x15E31, offset: 0x15E31, size: 0x8, addend: 0x0, symName: __ZNSt3__110unique_ptrINS_11__tree_nodeINS_12__value_typeIi12DirectedEdgeEEPvEENS_22__tree_node_destructorINS_9allocatorIS6_EEEEEC1B8ue170006ILb1EvEEPS6_NS_16__dependent_typeINS_27__unique_ptr_deleter_sfinaeISA_EEXT_EE20__good_rval_ref_typeE, symObjAddr: 0x55C4, symBinAddr: 0x100008D0C, symSize: 0x3C }
  - { offsetInCU: 0x15E81, offset: 0x15E81, size: 0x8, addend: 0x0, symName: __ZNSt3__116allocator_traitsINS_9allocatorINS_11__tree_nodeINS_12__value_typeIi12DirectedEdgeEEPvEEEEE9constructB8ue170006INS_4pairIKiS4_EEJRKNS_21piecewise_construct_tENS_5tupleIJRSC_EEENSH_IJEEEEvEEvRS8_PT_DpOT0_, symObjAddr: 0x5600, symBinAddr: 0x100008D48, symSize: 0x44 }
  - { offsetInCU: 0x15F00, offset: 0x15F00, size: 0x8, addend: 0x0, symName: __ZNKSt3__110unique_ptrINS_11__tree_nodeINS_12__value_typeIi12DirectedEdgeEEPvEENS_22__tree_node_destructorINS_9allocatorIS6_EEEEEptB8ue170006Ev, symObjAddr: 0x5644, symBinAddr: 0x100008D8C, symSize: 0x28 }
  - { offsetInCU: 0x15F25, offset: 0x15F25, size: 0x8, addend: 0x0, symName: __ZNSt3__110unique_ptrINS_11__tree_nodeINS_12__value_typeIi12DirectedEdgeEEPvEENS_22__tree_node_destructorINS_9allocatorIS6_EEEEE11get_deleterB8ue170006Ev, symObjAddr: 0x566C, symBinAddr: 0x100008DB4, symSize: 0x24 }
  - { offsetInCU: 0x15F4A, offset: 0x15F4A, size: 0x8, addend: 0x0, symName: __ZNSt3__19allocatorINS_11__tree_nodeINS_12__value_typeIi12DirectedEdgeEEPvEEE8allocateB8ue170006Em, symObjAddr: 0x5690, symBinAddr: 0x100008DD8, symSize: 0x5C }
  - { offsetInCU: 0x15F87, offset: 0x15F87, size: 0x8, addend: 0x0, symName: __ZNSt3__116allocator_traitsINS_9allocatorINS_11__tree_nodeINS_12__value_typeIi12DirectedEdgeEEPvEEEEE8max_sizeB8ue170006IS8_vEEmRKS8_, symObjAddr: 0x56EC, symBinAddr: 0x100008E34, symSize: 0x24 }
  - { offsetInCU: 0x15FB5, offset: 0x15FB5, size: 0x8, addend: 0x0, symName: __ZNKSt3__19allocatorINS_11__tree_nodeINS_12__value_typeIi12DirectedEdgeEEPvEEE8max_sizeB8ue170006Ev, symObjAddr: 0x5710, symBinAddr: 0x100008E58, symSize: 0x20 }
  - { offsetInCU: 0x15FDA, offset: 0x15FDA, size: 0x8, addend: 0x0, symName: __ZNSt3__122__tree_node_destructorINS_9allocatorINS_11__tree_nodeINS_12__value_typeIi12DirectedEdgeEEPvEEEEEC2B8ue170006ERS8_b, symObjAddr: 0x5730, symBinAddr: 0x100008E78, symSize: 0x38 }
  - { offsetInCU: 0x16021, offset: 0x16021, size: 0x8, addend: 0x0, symName: __ZNSt3__110unique_ptrINS_11__tree_nodeINS_12__value_typeIi12DirectedEdgeEEPvEENS_22__tree_node_destructorINS_9allocatorIS6_EEEEEC2B8ue170006ILb1EvEEPS6_NS_16__dependent_typeINS_27__unique_ptr_deleter_sfinaeISA_EEXT_EE20__good_rval_ref_typeE, symObjAddr: 0x5768, symBinAddr: 0x100008EB0, symSize: 0x48 }
  - { offsetInCU: 0x16071, offset: 0x16071, size: 0x8, addend: 0x0, symName: __ZNSt3__117__compressed_pairIPNS_11__tree_nodeINS_12__value_typeIi12DirectedEdgeEEPvEENS_22__tree_node_destructorINS_9allocatorIS6_EEEEEC1B8ue170006IRS7_SB_EEOT_OT0_, symObjAddr: 0x57B0, symBinAddr: 0x100008EF8, symSize: 0x3C }
  - { offsetInCU: 0x160C8, offset: 0x160C8, size: 0x8, addend: 0x0, symName: __ZNSt3__117__compressed_pairIPNS_11__tree_nodeINS_12__value_typeIi12DirectedEdgeEEPvEENS_22__tree_node_destructorINS_9allocatorIS6_EEEEEC2B8ue170006IRS7_SB_EEOT_OT0_, symObjAddr: 0x57EC, symBinAddr: 0x100008F34, symSize: 0x48 }
  - { offsetInCU: 0x1611F, offset: 0x1611F, size: 0x8, addend: 0x0, symName: __ZNSt3__122__compressed_pair_elemIPNS_11__tree_nodeINS_12__value_typeIi12DirectedEdgeEEPvEELi0ELb0EEC2B8ue170006IRS7_vEEOT_, symObjAddr: 0x5834, symBinAddr: 0x100008F7C, symSize: 0x24 }
  - { offsetInCU: 0x16160, offset: 0x16160, size: 0x8, addend: 0x0, symName: __ZNSt3__122__compressed_pair_elemINS_22__tree_node_destructorINS_9allocatorINS_11__tree_nodeINS_12__value_typeIi12DirectedEdgeEEPvEEEEEELi1ELb0EEC2B8ue170006ISA_vEEOT_, symObjAddr: 0x5858, symBinAddr: 0x100008FA0, symSize: 0x24 }
  - { offsetInCU: 0x161A1, offset: 0x161A1, size: 0x8, addend: 0x0, symName: __ZNSt3__19allocatorINS_11__tree_nodeINS_12__value_typeIi12DirectedEdgeEEPvEEE9constructB8ue170006INS_4pairIKiS3_EEJRKNS_21piecewise_construct_tENS_5tupleIJRSA_EEENSF_IJEEEEEEvPT_DpOT0_, symObjAddr: 0x587C, symBinAddr: 0x100008FC4, symSize: 0x44 }
  - { offsetInCU: 0x1621C, offset: 0x1621C, size: 0x8, addend: 0x0, symName: __ZNSt3__14pairIKi12DirectedEdgeEC1B8ue170006IJRS1_EJEEENS_21piecewise_construct_tENS_5tupleIJDpT_EEENS7_IJDpT0_EEE, symObjAddr: 0x58C0, symBinAddr: 0x100009008, symSize: 0x3C }
  - { offsetInCU: 0x16282, offset: 0x16282, size: 0x8, addend: 0x0, symName: __ZNSt3__14pairIKi12DirectedEdgeEC1B8ue170006IJRS1_EJEJLm0EEJEEENS_21piecewise_construct_tERNS_5tupleIJDpT_EEERNS7_IJDpT0_EEENS_15__tuple_indicesIJXspT1_EEEENSG_IJXspT2_EEEE, symObjAddr: 0x58FC, symBinAddr: 0x100009044, symSize: 0x3C }
  - { offsetInCU: 0x1630E, offset: 0x1630E, size: 0x8, addend: 0x0, symName: __ZNSt3__14pairIKi12DirectedEdgeEC2B8ue170006IJRS1_EJEJLm0EEJEEENS_21piecewise_construct_tERNS_5tupleIJDpT_EEERNS7_IJDpT0_EEENS_15__tuple_indicesIJXspT1_EEEENSG_IJXspT2_EEEE, symObjAddr: 0x5938, symBinAddr: 0x100009080, symSize: 0x4C }
  - { offsetInCU: 0x1639A, offset: 0x1639A, size: 0x8, addend: 0x0, symName: __ZN12DirectedEdgeC1Ev, symObjAddr: 0x59A8, symBinAddr: 0x1000090F0, symSize: 0x2C }
  - { offsetInCU: 0x163C3, offset: 0x163C3, size: 0x8, addend: 0x0, symName: __ZNSt3__112__tuple_leafILm0ERKiLb0EE3getB8ue170006Ev, symObjAddr: 0x59D4, symBinAddr: 0x10000911C, symSize: 0x18 }
  - { offsetInCU: 0x163E8, offset: 0x163E8, size: 0x8, addend: 0x0, symName: __ZN12DirectedEdgeC2Ev, symObjAddr: 0x59EC, symBinAddr: 0x100009134, symSize: 0x24 }
  - { offsetInCU: 0x16411, offset: 0x16411, size: 0x8, addend: 0x0, symName: __ZNKSt3__117__compressed_pairIPNS_11__tree_nodeINS_12__value_typeIi12DirectedEdgeEEPvEENS_22__tree_node_destructorINS_9allocatorIS6_EEEEE5firstB8ue170006Ev, symObjAddr: 0x5A10, symBinAddr: 0x100009158, symSize: 0x24 }
  - { offsetInCU: 0x16436, offset: 0x16436, size: 0x8, addend: 0x0, symName: __ZNKSt3__122__compressed_pair_elemIPNS_11__tree_nodeINS_12__value_typeIi12DirectedEdgeEEPvEELi0ELb0EE5__getB8ue170006Ev, symObjAddr: 0x5A34, symBinAddr: 0x10000917C, symSize: 0x14 }
  - { offsetInCU: 0x1645B, offset: 0x1645B, size: 0x8, addend: 0x0, symName: __ZNSt3__117__compressed_pairIPNS_11__tree_nodeINS_12__value_typeIi12DirectedEdgeEEPvEENS_22__tree_node_destructorINS_9allocatorIS6_EEEEE6secondB8ue170006Ev, symObjAddr: 0x5A48, symBinAddr: 0x100009190, symSize: 0x28 }
  - { offsetInCU: 0x16480, offset: 0x16480, size: 0x8, addend: 0x0, symName: __ZNSt3__122__compressed_pair_elemINS_22__tree_node_destructorINS_9allocatorINS_11__tree_nodeINS_12__value_typeIi12DirectedEdgeEEPvEEEEEELi1ELb0EE5__getB8ue170006Ev, symObjAddr: 0x5A70, symBinAddr: 0x1000091B8, symSize: 0x14 }
  - { offsetInCU: 0x164A5, offset: 0x164A5, size: 0x8, addend: 0x0, symName: __ZNSt3__16__treeINS_12__value_typeIi12DirectedEdgeEENS_19__map_value_compareIiS3_NS_4lessIiEELb1EEENS_9allocatorIS3_EEE4sizeB8ue170006Ev, symObjAddr: 0x5DB0, symBinAddr: 0x1000094F8, symSize: 0x28 }
  - { offsetInCU: 0x164CA, offset: 0x164CA, size: 0x8, addend: 0x0, symName: __ZNKSt3__116__tree_node_baseIPvE15__parent_unsafeB8ue170006Ev, symObjAddr: 0x5DD8, symBinAddr: 0x100009520, symSize: 0x18 }
  - { offsetInCU: 0x164EF, offset: 0x164EF, size: 0x8, addend: 0x0, symName: __ZNSt3__116__tree_node_baseIPvE12__set_parentB8ue170006EPS2_, symObjAddr: 0x5FC0, symBinAddr: 0x100009708, symSize: 0x20 }
  - { offsetInCU: 0x16523, offset: 0x16523, size: 0x8, addend: 0x0, symName: __ZNSt3__117__compressed_pairImNS_19__map_value_compareIiNS_12__value_typeIi12DirectedEdgeEENS_4lessIiEELb1EEEE5firstB8ue170006Ev, symObjAddr: 0x5FE0, symBinAddr: 0x100009728, symSize: 0x24 }
  - { offsetInCU: 0x16548, offset: 0x16548, size: 0x8, addend: 0x0, symName: __ZNSt3__122__compressed_pair_elemImLi0ELb0EE5__getB8ue170006Ev, symObjAddr: 0x6004, symBinAddr: 0x10000974C, symSize: 0x14 }
  - { offsetInCU: 0x1656D, offset: 0x1656D, size: 0x8, addend: 0x0, symName: __ZNSt3__117__compressed_pairIPNS_11__tree_nodeINS_12__value_typeIi12DirectedEdgeEEPvEENS_22__tree_node_destructorINS_9allocatorIS6_EEEEE5firstB8ue170006Ev, symObjAddr: 0x6018, symBinAddr: 0x100009760, symSize: 0x24 }
  - { offsetInCU: 0x16592, offset: 0x16592, size: 0x8, addend: 0x0, symName: __ZNSt3__122__compressed_pair_elemIPNS_11__tree_nodeINS_12__value_typeIi12DirectedEdgeEEPvEELi0ELb0EE5__getB8ue170006Ev, symObjAddr: 0x603C, symBinAddr: 0x100009784, symSize: 0x14 }
  - { offsetInCU: 0x165B7, offset: 0x165B7, size: 0x8, addend: 0x0, symName: __ZNSt3__110unique_ptrINS_11__tree_nodeINS_12__value_typeIi12DirectedEdgeEEPvEENS_22__tree_node_destructorINS_9allocatorIS6_EEEEED2B8ue170006Ev, symObjAddr: 0x6050, symBinAddr: 0x100009798, symSize: 0x30 }
  - { offsetInCU: 0x165E0, offset: 0x165E0, size: 0x8, addend: 0x0, symName: __ZNSt3__110unique_ptrINS_11__tree_nodeINS_12__value_typeIi12DirectedEdgeEEPvEENS_22__tree_node_destructorINS_9allocatorIS6_EEEEE5resetB8ue170006EPS6_, symObjAddr: 0x6080, symBinAddr: 0x1000097C8, symSize: 0x78 }
  - { offsetInCU: 0x16623, offset: 0x16623, size: 0x8, addend: 0x0, symName: __ZNSt3__122__tree_node_destructorINS_9allocatorINS_11__tree_nodeINS_12__value_typeIi12DirectedEdgeEEPvEEEEEclB8ue170006EPS7_, symObjAddr: 0x60F8, symBinAddr: 0x100009840, symSize: 0x94 }
  - { offsetInCU: 0x16657, offset: 0x16657, size: 0x8, addend: 0x0, symName: __ZNSt3__115__tree_iteratorINS_12__value_typeIi12DirectedEdgeEEPNS_11__tree_nodeIS3_PvEElEC2B8ue170006ES7_, symObjAddr: 0x618C, symBinAddr: 0x1000098D4, symSize: 0x20 }
  - { offsetInCU: 0x1668F, offset: 0x1668F, size: 0x8, addend: 0x0, symName: __ZNSt3__14pairINS_15__tree_iteratorINS_12__value_typeIi12DirectedEdgeEEPNS_11__tree_nodeIS4_PvEElEEbEC2B8ue170006IS9_RbLS6_0EEEOT_OT0_, symObjAddr: 0x61AC, symBinAddr: 0x1000098F4, symSize: 0x38 }
  - { offsetInCU: 0x166EC, offset: 0x166EC, size: 0x8, addend: 0x0, symName: __ZNSt3__15tupleIJRKiEEC1B8ue170006INS_4_AndELi0EEES2_, symObjAddr: 0x61E4, symBinAddr: 0x10000992C, symSize: 0x34 }
  - { offsetInCU: 0x16733, offset: 0x16733, size: 0x8, addend: 0x0, symName: __ZNSt3__15tupleIJRKiEEC2B8ue170006INS_4_AndELi0EEES2_, symObjAddr: 0x6218, symBinAddr: 0x100009960, symSize: 0x34 }
  - { offsetInCU: 0x1677A, offset: 0x1677A, size: 0x8, addend: 0x0, symName: __ZNSt3__112__tuple_implINS_15__tuple_indicesIJLm0EEEEJRKiEEC1B8ue170006IJLm0EEJS4_EJEJEJS4_EEENS1_IJXspT_EEEENS_13__tuple_typesIJDpT0_EEENS1_IJXspT1_EEEENS8_IJDpT2_EEEDpOT3_, symObjAddr: 0x624C, symBinAddr: 0x100009994, symSize: 0x34 }
  - { offsetInCU: 0x1680A, offset: 0x1680A, size: 0x8, addend: 0x0, symName: __ZNSt3__112__tuple_implINS_15__tuple_indicesIJLm0EEEEJRKiEEC2B8ue170006IJLm0EEJS4_EJEJEJS4_EEENS1_IJXspT_EEEENS_13__tuple_typesIJDpT0_EEENS1_IJXspT1_EEEENS8_IJDpT2_EEEDpOT3_, symObjAddr: 0x6280, symBinAddr: 0x1000099C8, symSize: 0x34 }
  - { offsetInCU: 0x1689A, offset: 0x1689A, size: 0x8, addend: 0x0, symName: __ZNSt3__112__tuple_leafILm0ERKiLb0EEC2B8ue170006IS2_vEEOT_, symObjAddr: 0x62B4, symBinAddr: 0x1000099FC, symSize: 0x20 }
  - { offsetInCU: 0x168DC, offset: 0x168DC, size: 0x8, addend: 0x0, symName: __ZNSt3__114pointer_traitsIPNS_12__value_typeIi12DirectedEdgeEEE10pointer_toB8ue170006ERS3_, symObjAddr: 0x62D4, symBinAddr: 0x100009A1C, symSize: 0x14 }
  - { offsetInCU: 0x168FF, offset: 0x168FF, size: 0x8, addend: 0x0, symName: __ZNKSt3__115__tree_iteratorINS_12__value_typeIi12DirectedEdgeEEPNS_11__tree_nodeIS3_PvEElE8__get_npB8ue170006Ev, symObjAddr: 0x62E8, symBinAddr: 0x100009A30, symSize: 0x18 }
  - { offsetInCU: 0x16923, offset: 0x16923, size: 0x8, addend: 0x0, symName: __ZNSt3__114priority_queueIN5Utils16CompareContainerIdiEENS_6vectorIS3_NS_9allocatorIS3_EEEENS_7greaterIS3_EEE4pushEOS3_, symObjAddr: 0x6300, symBinAddr: 0x100009A48, symSize: 0x58 }
  - { offsetInCU: 0x16959, offset: 0x16959, size: 0x8, addend: 0x0, symName: __ZN5Utils16CompareContainerIdiEC1Edi, symObjAddr: 0x6358, symBinAddr: 0x100009AA0, symSize: 0x3C }
  - { offsetInCU: 0x1699D, offset: 0x1699D, size: 0x8, addend: 0x0, symName: __ZNSt3__16vectorIN5Utils16CompareContainerIdiEENS_9allocatorIS3_EEE9push_backB8ue170006EOS3_, symObjAddr: 0x6394, symBinAddr: 0x100009ADC, symSize: 0x6C }
  - { offsetInCU: 0x169D2, offset: 0x169D2, size: 0x8, addend: 0x0, symName: __ZNSt3__16vectorIN5Utils16CompareContainerIdiEENS_9allocatorIS3_EEE5beginB8ue170006Ev, symObjAddr: 0x6440, symBinAddr: 0x100009B88, symSize: 0x30 }
  - { offsetInCU: 0x169F8, offset: 0x169F8, size: 0x8, addend: 0x0, symName: __ZNSt3__16vectorIN5Utils16CompareContainerIdiEENS_9allocatorIS3_EEE3endB8ue170006Ev, symObjAddr: 0x6470, symBinAddr: 0x100009BB8, symSize: 0x30 }
  - { offsetInCU: 0x16A1F, offset: 0x16A1F, size: 0x8, addend: 0x0, symName: __ZNSt3__16vectorIN5Utils16CompareContainerIdiEENS_9allocatorIS3_EEE9__end_capB8ue170006Ev, symObjAddr: 0x64A0, symBinAddr: 0x100009BE8, symSize: 0x28 }
  - { offsetInCU: 0x16A49, offset: 0x16A49, size: 0x8, addend: 0x0, symName: __ZNSt3__16vectorIN5Utils16CompareContainerIdiEENS_9allocatorIS3_EEE22__construct_one_at_endB8ue170006IJS3_EEEvDpOT_, symObjAddr: 0x64C8, symBinAddr: 0x100009C10, symSize: 0x90 }
  - { offsetInCU: 0x16A96, offset: 0x16A96, size: 0x8, addend: 0x0, symName: __ZNSt3__16vectorIN5Utils16CompareContainerIdiEENS_9allocatorIS3_EEE21__push_back_slow_pathIS3_EEvOT_, symObjAddr: 0x6558, symBinAddr: 0x100009CA0, symSize: 0xD8 }
  - { offsetInCU: 0x16AF3, offset: 0x16AF3, size: 0x8, addend: 0x0, symName: __ZNSt3__117__compressed_pairIPN5Utils16CompareContainerIdiEENS_9allocatorIS3_EEE5firstB8ue170006Ev, symObjAddr: 0x6630, symBinAddr: 0x100009D78, symSize: 0x24 }
  - { offsetInCU: 0x16B18, offset: 0x16B18, size: 0x8, addend: 0x0, symName: __ZNSt3__122__compressed_pair_elemIPN5Utils16CompareContainerIdiEELi0ELb0EE5__getB8ue170006Ev, symObjAddr: 0x6654, symBinAddr: 0x100009D9C, symSize: 0x14 }
  - { offsetInCU: 0x16B56, offset: 0x16B56, size: 0x8, addend: 0x0, symName: __ZNSt3__16vectorIN5Utils16CompareContainerIdiEENS_9allocatorIS3_EEE21_ConstructTransactionC1B8ue170006ERS6_m, symObjAddr: 0x6668, symBinAddr: 0x100009DB0, symSize: 0x3C }
  - { offsetInCU: 0x16B9D, offset: 0x16B9D, size: 0x8, addend: 0x0, symName: __ZNSt3__116allocator_traitsINS_9allocatorIN5Utils16CompareContainerIdiEEEEE9constructB8ue170006IS4_JS4_EvEEvRS5_PT_DpOT0_, symObjAddr: 0x66A4, symBinAddr: 0x100009DEC, symSize: 0x34 }
  - { offsetInCU: 0x16BF4, offset: 0x16BF4, size: 0x8, addend: 0x0, symName: __ZNSt3__16vectorIN5Utils16CompareContainerIdiEENS_9allocatorIS3_EEE21_ConstructTransactionD1B8ue170006Ev, symObjAddr: 0x66D8, symBinAddr: 0x100009E20, symSize: 0x2C }
  - { offsetInCU: 0x16C1D, offset: 0x16C1D, size: 0x8, addend: 0x0, symName: __ZNSt3__16vectorIN5Utils16CompareContainerIdiEENS_9allocatorIS3_EEE21_ConstructTransactionC2B8ue170006ERS6_m, symObjAddr: 0x6704, symBinAddr: 0x100009E4C, symSize: 0x44 }
  - { offsetInCU: 0x16C64, offset: 0x16C64, size: 0x8, addend: 0x0, symName: __ZNSt3__19allocatorIN5Utils16CompareContainerIdiEEE9constructB8ue170006IS3_JS3_EEEvPT_DpOT0_, symObjAddr: 0x6748, symBinAddr: 0x100009E90, symSize: 0x28 }
  - { offsetInCU: 0x16CB9, offset: 0x16CB9, size: 0x8, addend: 0x0, symName: __ZNSt3__16vectorIN5Utils16CompareContainerIdiEENS_9allocatorIS3_EEE21_ConstructTransactionD2B8ue170006Ev, symObjAddr: 0x6770, symBinAddr: 0x100009EB8, symSize: 0x20 }
  - { offsetInCU: 0x16CE1, offset: 0x16CE1, size: 0x8, addend: 0x0, symName: __ZNKSt3__16vectorIN5Utils16CompareContainerIdiEENS_9allocatorIS3_EEE11__recommendB8ue170006Em, symObjAddr: 0x6790, symBinAddr: 0x100009ED8, symSize: 0xB4 }
  - { offsetInCU: 0x16D35, offset: 0x16D35, size: 0x8, addend: 0x0, symName: __ZNSt3__114__split_bufferIN5Utils16CompareContainerIdiEERNS_9allocatorIS3_EEEC1EmmS6_, symObjAddr: 0x6844, symBinAddr: 0x100009F8C, symSize: 0x44 }
  - { offsetInCU: 0x16D8A, offset: 0x16D8A, size: 0x8, addend: 0x0, symName: __ZNSt3__114__split_bufferIN5Utils16CompareContainerIdiEERNS_9allocatorIS3_EEED1Ev, symObjAddr: 0x6998, symBinAddr: 0x10000A0E0, symSize: 0x2C }
  - { offsetInCU: 0x16DB4, offset: 0x16DB4, size: 0x8, addend: 0x0, symName: __ZNKSt3__16vectorIN5Utils16CompareContainerIdiEENS_9allocatorIS3_EEE8max_sizeEv, symObjAddr: 0x69C4, symBinAddr: 0x10000A10C, symSize: 0x60 }
  - { offsetInCU: 0x16DDB, offset: 0x16DDB, size: 0x8, addend: 0x0, symName: __ZNKSt3__16vectorIN5Utils16CompareContainerIdiEENS_9allocatorIS3_EEE20__throw_length_errorB8ue170006Ev, symObjAddr: 0x6A24, symBinAddr: 0x10000A16C, symSize: 0x1C }
  - { offsetInCU: 0x16E0A, offset: 0x16E0A, size: 0x8, addend: 0x0, symName: __ZNSt3__116allocator_traitsINS_9allocatorIN5Utils16CompareContainerIdiEEEEE8max_sizeB8ue170006IS5_vEEmRKS5_, symObjAddr: 0x6A6C, symBinAddr: 0x10000A1B4, symSize: 0x24 }
  - { offsetInCU: 0x16E38, offset: 0x16E38, size: 0x8, addend: 0x0, symName: __ZNKSt3__16vectorIN5Utils16CompareContainerIdiEENS_9allocatorIS3_EEE7__allocB8ue170006Ev, symObjAddr: 0x6A90, symBinAddr: 0x10000A1D8, symSize: 0x28 }
  - { offsetInCU: 0x16E5D, offset: 0x16E5D, size: 0x8, addend: 0x0, symName: __ZNKSt3__19allocatorIN5Utils16CompareContainerIdiEEE8max_sizeB8ue170006Ev, symObjAddr: 0x6AB8, symBinAddr: 0x10000A200, symSize: 0x14 }
  - { offsetInCU: 0x16E82, offset: 0x16E82, size: 0x8, addend: 0x0, symName: __ZNKSt3__117__compressed_pairIPN5Utils16CompareContainerIdiEENS_9allocatorIS3_EEE6secondB8ue170006Ev, symObjAddr: 0x6ACC, symBinAddr: 0x10000A214, symSize: 0x24 }
  - { offsetInCU: 0x16EA7, offset: 0x16EA7, size: 0x8, addend: 0x0, symName: __ZNKSt3__122__compressed_pair_elemINS_9allocatorIN5Utils16CompareContainerIdiEEEELi1ELb1EE5__getB8ue170006Ev, symObjAddr: 0x6AF0, symBinAddr: 0x10000A238, symSize: 0x14 }
  - { offsetInCU: 0x16ECC, offset: 0x16ECC, size: 0x8, addend: 0x0, symName: __ZNSt3__114__split_bufferIN5Utils16CompareContainerIdiEERNS_9allocatorIS3_EEEC2EmmS6_, symObjAddr: 0x6B58, symBinAddr: 0x10000A2A0, symSize: 0xD4 }
  - { offsetInCU: 0x16F3E, offset: 0x16F3E, size: 0x8, addend: 0x0, symName: __ZNSt3__117__compressed_pairIPN5Utils16CompareContainerIdiEERNS_9allocatorIS3_EEEC1B8ue170006IDnS7_EEOT_OT0_, symObjAddr: 0x6C2C, symBinAddr: 0x10000A374, symSize: 0x3C }
  - { offsetInCU: 0x16F95, offset: 0x16F95, size: 0x8, addend: 0x0, symName: __ZNSt3__114__split_bufferIN5Utils16CompareContainerIdiEERNS_9allocatorIS3_EEE7__allocB8ue170006Ev, symObjAddr: 0x6CA8, symBinAddr: 0x10000A3F0, symSize: 0x28 }
  - { offsetInCU: 0x16FBA, offset: 0x16FBA, size: 0x8, addend: 0x0, symName: __ZNSt3__114__split_bufferIN5Utils16CompareContainerIdiEERNS_9allocatorIS3_EEE9__end_capB8ue170006Ev, symObjAddr: 0x6CD0, symBinAddr: 0x10000A418, symSize: 0x28 }
  - { offsetInCU: 0x16FDF, offset: 0x16FDF, size: 0x8, addend: 0x0, symName: __ZNSt3__117__compressed_pairIPN5Utils16CompareContainerIdiEERNS_9allocatorIS3_EEEC2B8ue170006IDnS7_EEOT_OT0_, symObjAddr: 0x6CF8, symBinAddr: 0x10000A440, symSize: 0x48 }
  - { offsetInCU: 0x17036, offset: 0x17036, size: 0x8, addend: 0x0, symName: __ZNSt3__122__compressed_pair_elemIRNS_9allocatorIN5Utils16CompareContainerIdiEEEELi1ELb0EEC2B8ue170006IS6_vEEOT_, symObjAddr: 0x6D40, symBinAddr: 0x10000A488, symSize: 0x20 }
  - { offsetInCU: 0x17077, offset: 0x17077, size: 0x8, addend: 0x0, symName: __ZNSt3__19allocatorIN5Utils16CompareContainerIdiEEE8allocateB8ue170006Em, symObjAddr: 0x6D60, symBinAddr: 0x10000A4A8, symSize: 0x58 }
  - { offsetInCU: 0x170AA, offset: 0x170AA, size: 0x8, addend: 0x0, symName: __ZNSt3__117__compressed_pairIPN5Utils16CompareContainerIdiEERNS_9allocatorIS3_EEE6secondB8ue170006Ev, symObjAddr: 0x6DB8, symBinAddr: 0x10000A500, symSize: 0x28 }
  - { offsetInCU: 0x170CF, offset: 0x170CF, size: 0x8, addend: 0x0, symName: __ZNSt3__122__compressed_pair_elemIRNS_9allocatorIN5Utils16CompareContainerIdiEEEELi1ELb0EE5__getB8ue170006Ev, symObjAddr: 0x6DE0, symBinAddr: 0x10000A528, symSize: 0x18 }
  - { offsetInCU: 0x170F4, offset: 0x170F4, size: 0x8, addend: 0x0, symName: __ZNSt3__117__compressed_pairIPN5Utils16CompareContainerIdiEERNS_9allocatorIS3_EEE5firstB8ue170006Ev, symObjAddr: 0x6DF8, symBinAddr: 0x10000A540, symSize: 0x24 }
  - { offsetInCU: 0x17119, offset: 0x17119, size: 0x8, addend: 0x0, symName: __ZNSt3__116reverse_iteratorIPN5Utils16CompareContainerIdiEEEC1B8ue170006ES4_, symObjAddr: 0x6E94, symBinAddr: 0x10000A5DC, symSize: 0x34 }
  - { offsetInCU: 0x17150, offset: 0x17150, size: 0x8, addend: 0x0, symName: __ZNKSt3__116reverse_iteratorIPN5Utils16CompareContainerIdiEEE4baseB8ue170006Ev, symObjAddr: 0x6EC8, symBinAddr: 0x10000A610, symSize: 0x18 }
  - { offsetInCU: 0x17175, offset: 0x17175, size: 0x8, addend: 0x0, symName: __ZNKSt3__16vectorIN5Utils16CompareContainerIdiEENS_9allocatorIS3_EEE14__annotate_newB8ue170006Em, symObjAddr: 0x6F1C, symBinAddr: 0x10000A664, symSize: 0xAC }
  - { offsetInCU: 0x171CC, offset: 0x171CC, size: 0x8, addend: 0x0, symName: __ZNKSt3__111__move_loopINS_17_ClassicAlgPolicyEEclB8ue170006INS_16reverse_iteratorIPN5Utils16CompareContainerIdiEEEES9_S9_EENS_4pairIT_T1_EESB_T0_SC_, symObjAddr: 0x72B8, symBinAddr: 0x10000AA00, symSize: 0xA8 }
  - { offsetInCU: 0x17236, offset: 0x17236, size: 0x8, addend: 0x0, symName: __ZNSt3__18_IterOpsINS_17_ClassicAlgPolicyEE11__iter_moveB8ue170006IRNS_16reverse_iteratorIPN5Utils16CompareContainerIdiEEEEEENS_9enable_ifIXsr12is_referenceIDTdeclsr3stdE7declvalIRT_EEEEE5valueEDTclsr3stdE4movedeclsr3stdE7declvalISD_EEEEE4typeEOSC_, symObjAddr: 0x74F4, symBinAddr: 0x10000AC3C, symSize: 0x28 }
  - { offsetInCU: 0x17262, offset: 0x17262, size: 0x8, addend: 0x0, symName: __ZNKSt3__116reverse_iteratorIPN5Utils16CompareContainerIdiEEEdeB8ue170006Ev, symObjAddr: 0x751C, symBinAddr: 0x10000AC64, symSize: 0x28 }
  - { offsetInCU: 0x17295, offset: 0x17295, size: 0x8, addend: 0x0, symName: __ZNSt3__116reverse_iteratorIPN5Utils16CompareContainerIdiEEEppB8ue170006Ev, symObjAddr: 0x7544, symBinAddr: 0x10000AC8C, symSize: 0x20 }
  - { offsetInCU: 0x172BA, offset: 0x172BA, size: 0x8, addend: 0x0, symName: __ZNSt3__18_IterOpsINS_17_ClassicAlgPolicyEE25__validate_iter_referenceB8ue170006IRNS_16reverse_iteratorIPN5Utils16CompareContainerIdiEEEEEEvv, symObjAddr: 0x7564, symBinAddr: 0x10000ACAC, symSize: 0x4 }
  - { offsetInCU: 0x172D8, offset: 0x172D8, size: 0x8, addend: 0x0, symName: __ZNSt3__118__unwrap_iter_implINS_16reverse_iteratorIPN5Utils16CompareContainerIdiEEEELb0EE8__unwrapB8ue170006ES6_, symObjAddr: 0x7568, symBinAddr: 0x10000ACB0, symSize: 0x24 }
  - { offsetInCU: 0x17300, offset: 0x17300, size: 0x8, addend: 0x0, symName: __ZNSt3__14pairINS_16reverse_iteratorIPN5Utils16CompareContainerIdiEEEES6_EC1B8ue170006IS6_S6_LPv0EEEOT_OT0_, symObjAddr: 0x758C, symBinAddr: 0x10000ACD4, symSize: 0x3C }
  - { offsetInCU: 0x1735D, offset: 0x1735D, size: 0x8, addend: 0x0, symName: __ZNSt3__14pairINS_16reverse_iteratorIPN5Utils16CompareContainerIdiEEEES6_EC2B8ue170006IS6_S6_LPv0EEEOT_OT0_, symObjAddr: 0x75C8, symBinAddr: 0x10000AD10, symSize: 0x34 }
  - { offsetInCU: 0x173BA, offset: 0x173BA, size: 0x8, addend: 0x0, symName: __ZNSt3__118__unwrap_iter_implINS_16reverse_iteratorIPN5Utils16CompareContainerIdiEEEELb0EE8__rewrapB8ue170006ES6_S6_, symObjAddr: 0x75FC, symBinAddr: 0x10000AD44, symSize: 0x2C }
  - { offsetInCU: 0x173E7, offset: 0x173E7, size: 0x8, addend: 0x0, symName: __ZNSt3__116reverse_iteratorIPN5Utils16CompareContainerIdiEEEC2B8ue170006ES4_, symObjAddr: 0x7628, symBinAddr: 0x10000AD70, symSize: 0x28 }
  - { offsetInCU: 0x1741E, offset: 0x1741E, size: 0x8, addend: 0x0, symName: __ZNSt3__114__split_bufferIN5Utils16CompareContainerIdiEERNS_9allocatorIS3_EEED2Ev, symObjAddr: 0x7650, symBinAddr: 0x10000AD98, symSize: 0x8C }
  - { offsetInCU: 0x17449, offset: 0x17449, size: 0x8, addend: 0x0, symName: __ZNSt3__114__split_bufferIN5Utils16CompareContainerIdiEERNS_9allocatorIS3_EEE5clearB8ue170006Ev, symObjAddr: 0x76DC, symBinAddr: 0x10000AE24, symSize: 0x28 }
  - { offsetInCU: 0x1746E, offset: 0x1746E, size: 0x8, addend: 0x0, symName: __ZNKSt3__114__split_bufferIN5Utils16CompareContainerIdiEERNS_9allocatorIS3_EEE8capacityB8ue170006Ev, symObjAddr: 0x7704, symBinAddr: 0x10000AE4C, symSize: 0x40 }
  - { offsetInCU: 0x17493, offset: 0x17493, size: 0x8, addend: 0x0, symName: __ZNSt3__114__split_bufferIN5Utils16CompareContainerIdiEERNS_9allocatorIS3_EEE17__destruct_at_endB8ue170006EPS3_, symObjAddr: 0x7744, symBinAddr: 0x10000AE8C, symSize: 0x2C }
  - { offsetInCU: 0x174C5, offset: 0x174C5, size: 0x8, addend: 0x0, symName: __ZNSt3__114__split_bufferIN5Utils16CompareContainerIdiEERNS_9allocatorIS3_EEE17__destruct_at_endB8ue170006EPS3_NS_17integral_constantIbLb0EEE, symObjAddr: 0x7770, symBinAddr: 0x10000AEB8, symSize: 0x80 }
  - { offsetInCU: 0x17504, offset: 0x17504, size: 0x8, addend: 0x0, symName: __ZNKSt3__114__split_bufferIN5Utils16CompareContainerIdiEERNS_9allocatorIS3_EEE9__end_capB8ue170006Ev, symObjAddr: 0x77F0, symBinAddr: 0x10000AF38, symSize: 0x28 }
  - { offsetInCU: 0x17529, offset: 0x17529, size: 0x8, addend: 0x0, symName: __ZNKSt3__117__compressed_pairIPN5Utils16CompareContainerIdiEERNS_9allocatorIS3_EEE5firstB8ue170006Ev, symObjAddr: 0x7818, symBinAddr: 0x10000AF60, symSize: 0x24 }
  - { offsetInCU: 0x1754E, offset: 0x1754E, size: 0x8, addend: 0x0, symName: __ZNKSt3__111__wrap_iterIPN5Utils16CompareContainerIdiEEE4baseB8ue170006Ev, symObjAddr: 0x7A50, symBinAddr: 0x10000B198, symSize: 0x18 }
  - { offsetInCU: 0x17573, offset: 0x17573, size: 0x8, addend: 0x0, symName: __ZNKSt3__111__wrap_iterIPN5Utils16CompareContainerIdiEEEplB8ue170006El, symObjAddr: 0x7A68, symBinAddr: 0x10000B1B0, symSize: 0x3C }
  - { offsetInCU: 0x175B4, offset: 0x175B4, size: 0x8, addend: 0x0, symName: __ZNKSt3__17greaterIN5Utils16CompareContainerIdiEEEclB8ue170006ERKS3_S6_, symObjAddr: 0x7AA4, symBinAddr: 0x10000B1EC, symSize: 0x34 }
  - { offsetInCU: 0x175F7, offset: 0x175F7, size: 0x8, addend: 0x0, symName: __ZNKSt3__111__wrap_iterIPN5Utils16CompareContainerIdiEEEdeB8ue170006Ev, symObjAddr: 0x7AD8, symBinAddr: 0x10000B220, symSize: 0x18 }
  - { offsetInCU: 0x1761C, offset: 0x1761C, size: 0x8, addend: 0x0, symName: __ZNSt3__111__wrap_iterIPN5Utils16CompareContainerIdiEEEmmB8ue170006Ev, symObjAddr: 0x7AF0, symBinAddr: 0x10000B238, symSize: 0x20 }
  - { offsetInCU: 0x17641, offset: 0x17641, size: 0x8, addend: 0x0, symName: __ZNSt3__18_IterOpsINS_17_ClassicAlgPolicyEE11__iter_moveB8ue170006IRNS_11__wrap_iterIPN5Utils16CompareContainerIdiEEEEEENS_9enable_ifIXsr12is_referenceIDTdeclsr3stdE7declvalIRT_EEEEE5valueEDTclsr3stdE4movedeclsr3stdE7declvalISD_EEEEE4typeEOSC_, symObjAddr: 0x7B10, symBinAddr: 0x10000B258, symSize: 0x28 }
  - { offsetInCU: 0x1766D, offset: 0x1766D, size: 0x8, addend: 0x0, symName: __ZNSt3__111__wrap_iterIPN5Utils16CompareContainerIdiEEEpLB8ue170006El, symObjAddr: 0x7B38, symBinAddr: 0x10000B280, symSize: 0x28 }
  - { offsetInCU: 0x176A0, offset: 0x176A0, size: 0x8, addend: 0x0, symName: __ZNK5Utils16CompareContainerIdiEgtERKS1_, symObjAddr: 0x7B60, symBinAddr: 0x10000B2A8, symSize: 0x60 }
  - { offsetInCU: 0x176D3, offset: 0x176D3, size: 0x8, addend: 0x0, symName: __ZNK5Utils16CompareContainerIdiEltERKS1_, symObjAddr: 0x7BC0, symBinAddr: 0x10000B308, symSize: 0x30 }
  - { offsetInCU: 0x17706, offset: 0x17706, size: 0x8, addend: 0x0, symName: __ZNK5Utils16CompareContainerIdiEeqERKS1_, symObjAddr: 0x7BF0, symBinAddr: 0x10000B338, symSize: 0x30 }
  - { offsetInCU: 0x17739, offset: 0x17739, size: 0x8, addend: 0x0, symName: __ZNSt3__18_IterOpsINS_17_ClassicAlgPolicyEE25__validate_iter_referenceB8ue170006IRNS_11__wrap_iterIPN5Utils16CompareContainerIdiEEEEEEvv, symObjAddr: 0x7C20, symBinAddr: 0x10000B368, symSize: 0x4 }
  - { offsetInCU: 0x17757, offset: 0x17757, size: 0x8, addend: 0x0, symName: __ZNSt3__16vectorIN5Utils16CompareContainerIdiEENS_9allocatorIS3_EEE11__make_iterB8ue170006EPS3_, symObjAddr: 0x7C24, symBinAddr: 0x10000B36C, symSize: 0x30 }
  - { offsetInCU: 0x1778B, offset: 0x1778B, size: 0x8, addend: 0x0, symName: __ZNSt3__111__wrap_iterIPN5Utils16CompareContainerIdiEEEC1B8ue170006ES4_, symObjAddr: 0x7C54, symBinAddr: 0x10000B39C, symSize: 0x34 }
  - { offsetInCU: 0x177C2, offset: 0x177C2, size: 0x8, addend: 0x0, symName: __ZNSt3__111__wrap_iterIPN5Utils16CompareContainerIdiEEEC2B8ue170006ES4_, symObjAddr: 0x7C88, symBinAddr: 0x10000B3D0, symSize: 0x20 }
  - { offsetInCU: 0x177F9, offset: 0x177F9, size: 0x8, addend: 0x0, symName: __ZN5Utils16CompareContainerIdiEC2Edi, symObjAddr: 0x7CA8, symBinAddr: 0x10000B3F0, symSize: 0x2C }
  - { offsetInCU: 0x1783D, offset: 0x1783D, size: 0x8, addend: 0x0, symName: __ZNSt3__16vectorIdNS_9allocatorIdEEE18__construct_at_endEmRKd, symObjAddr: 0x7D18, symBinAddr: 0x10000B460, symSize: 0xD0 }
  - { offsetInCU: 0x178BD, offset: 0x178BD, size: 0x8, addend: 0x0, symName: __ZNSt3__16vectorIdNS_9allocatorIdEEE17__destruct_at_endB8ue170006EPd, symObjAddr: 0x7DE8, symBinAddr: 0x10000B530, symSize: 0x4C }
  - { offsetInCU: 0x178FF, offset: 0x178FF, size: 0x8, addend: 0x0, symName: __ZNSt3__16vectorIdNS_9allocatorIdEEE13__vdeallocateEv, symObjAddr: 0x7E34, symBinAddr: 0x10000B57C, symSize: 0x94 }
  - { offsetInCU: 0x17926, offset: 0x17926, size: 0x8, addend: 0x0, symName: __ZNSt3__16vectorIdNS_9allocatorIdEEE11__vallocateB8ue170006Em, symObjAddr: 0x7EC8, symBinAddr: 0x10000B610, symSize: 0xAC }
  - { offsetInCU: 0x17968, offset: 0x17968, size: 0x8, addend: 0x0, symName: __ZNKSt3__16vectorIdNS_9allocatorIdEEE11__recommendB8ue170006Em, symObjAddr: 0x7F74, symBinAddr: 0x10000B6BC, symSize: 0xB4 }
  - { offsetInCU: 0x179D5, offset: 0x179D5, size: 0x8, addend: 0x0, symName: __ZNSt3__16vectorIdNS_9allocatorIdEEE21_ConstructTransactionC1B8ue170006ERS3_m, symObjAddr: 0x80A0, symBinAddr: 0x10000B7E8, symSize: 0x3C }
  - { offsetInCU: 0x17A1C, offset: 0x17A1C, size: 0x8, addend: 0x0, symName: __ZNSt3__116allocator_traitsINS_9allocatorIdEEE9constructB8ue170006IdJRKdEvEEvRS2_PT_DpOT0_, symObjAddr: 0x80DC, symBinAddr: 0x10000B824, symSize: 0x34 }
  - { offsetInCU: 0x17A73, offset: 0x17A73, size: 0x8, addend: 0x0, symName: __ZNSt3__16vectorIdNS_9allocatorIdEEE21_ConstructTransactionD1B8ue170006Ev, symObjAddr: 0x8110, symBinAddr: 0x10000B858, symSize: 0x2C }
  - { offsetInCU: 0x17A9C, offset: 0x17A9C, size: 0x8, addend: 0x0, symName: __ZNSt3__16vectorIdNS_9allocatorIdEEE21_ConstructTransactionC2B8ue170006ERS3_m, symObjAddr: 0x813C, symBinAddr: 0x10000B884, symSize: 0x44 }
  - { offsetInCU: 0x17AE3, offset: 0x17AE3, size: 0x8, addend: 0x0, symName: __ZNSt3__19allocatorIdE9constructB8ue170006IdJRKdEEEvPT_DpOT0_, symObjAddr: 0x8180, symBinAddr: 0x10000B8C8, symSize: 0x28 }
  - { offsetInCU: 0x17B38, offset: 0x17B38, size: 0x8, addend: 0x0, symName: __ZNSt3__16vectorIdNS_9allocatorIdEEE21_ConstructTransactionD2B8ue170006Ev, symObjAddr: 0x81A8, symBinAddr: 0x10000B8F0, symSize: 0x20 }
  - { offsetInCU: 0x17B61, offset: 0x17B61, size: 0x8, addend: 0x0, symName: __ZNKSt3__16vectorIdNS_9allocatorIdEEE17__annotate_shrinkB8ue170006Em, symObjAddr: 0x81C8, symBinAddr: 0x10000B910, symSize: 0xB4 }
  - { offsetInCU: 0x17B95, offset: 0x17B95, size: 0x8, addend: 0x0, symName: __ZNSt3__16vectorIdNS_9allocatorIdEEE5clearB8ue170006Ev, symObjAddr: 0x827C, symBinAddr: 0x10000B9C4, symSize: 0x44 }
  - { offsetInCU: 0x17BC9, offset: 0x17BC9, size: 0x8, addend: 0x0, symName: __ZNSt3__16vectorIdNS_9allocatorIdEEE9__end_capB8ue170006Ev, symObjAddr: 0x82C0, symBinAddr: 0x10000BA08, symSize: 0x28 }
  - { offsetInCU: 0x17BEE, offset: 0x17BEE, size: 0x8, addend: 0x0, symName: __ZNSt3__117__compressed_pairIPdNS_9allocatorIdEEE5firstB8ue170006Ev, symObjAddr: 0x82E8, symBinAddr: 0x10000BA30, symSize: 0x24 }
  - { offsetInCU: 0x17C13, offset: 0x17C13, size: 0x8, addend: 0x0, symName: __ZNSt3__122__compressed_pair_elemIPdLi0ELb0EE5__getB8ue170006Ev, symObjAddr: 0x830C, symBinAddr: 0x10000BA54, symSize: 0x14 }
  - { offsetInCU: 0x17C37, offset: 0x17C37, size: 0x8, addend: 0x0, symName: __ZNKSt3__16vectorIdNS_9allocatorIdEEE8max_sizeEv, symObjAddr: 0x8320, symBinAddr: 0x10000BA68, symSize: 0x60 }
  - { offsetInCU: 0x17C5E, offset: 0x17C5E, size: 0x8, addend: 0x0, symName: __ZNKSt3__16vectorIdNS_9allocatorIdEEE20__throw_length_errorB8ue170006Ev, symObjAddr: 0x8380, symBinAddr: 0x10000BAC8, symSize: 0x1C }
  - { offsetInCU: 0x17C83, offset: 0x17C83, size: 0x8, addend: 0x0, symName: __ZNKSt3__16vectorIdNS_9allocatorIdEEE14__annotate_newB8ue170006Em, symObjAddr: 0x83DC, symBinAddr: 0x10000BB24, symSize: 0xAC }
  - { offsetInCU: 0x17CC1, offset: 0x17CC1, size: 0x8, addend: 0x0, symName: __ZNSt3__116allocator_traitsINS_9allocatorIdEEE8max_sizeB8ue170006IS2_vEEmRKS2_, symObjAddr: 0x8488, symBinAddr: 0x10000BBD0, symSize: 0x24 }
  - { offsetInCU: 0x17CEF, offset: 0x17CEF, size: 0x8, addend: 0x0, symName: __ZNKSt3__16vectorIdNS_9allocatorIdEEE7__allocB8ue170006Ev, symObjAddr: 0x84AC, symBinAddr: 0x10000BBF4, symSize: 0x28 }
  - { offsetInCU: 0x17D14, offset: 0x17D14, size: 0x8, addend: 0x0, symName: __ZNKSt3__19allocatorIdE8max_sizeB8ue170006Ev, symObjAddr: 0x84D4, symBinAddr: 0x10000BC1C, symSize: 0x14 }
  - { offsetInCU: 0x17D39, offset: 0x17D39, size: 0x8, addend: 0x0, symName: __ZNKSt3__117__compressed_pairIPdNS_9allocatorIdEEE6secondB8ue170006Ev, symObjAddr: 0x84E8, symBinAddr: 0x10000BC30, symSize: 0x24 }
  - { offsetInCU: 0x17D5E, offset: 0x17D5E, size: 0x8, addend: 0x0, symName: __ZNKSt3__122__compressed_pair_elemINS_9allocatorIdEELi1ELb1EE5__getB8ue170006Ev, symObjAddr: 0x850C, symBinAddr: 0x10000BC54, symSize: 0x14 }
  - { offsetInCU: 0x17D83, offset: 0x17D83, size: 0x8, addend: 0x0, symName: __ZNSt3__19allocatorIdE8allocateB8ue170006Em, symObjAddr: 0x8520, symBinAddr: 0x10000BC68, symSize: 0x58 }
  - { offsetInCU: 0x17DB5, offset: 0x17DB5, size: 0x8, addend: 0x0, symName: __ZNSt3__16__treeINS_12__value_typeIi12DirectedEdgeEENS_19__map_value_compareIiS3_NS_4lessIiEELb1EEENS_9allocatorIS3_EEE5clearEv, symObjAddr: 0x8578, symBinAddr: 0x10000BCC0, symSize: 0x74 }
  - { offsetInCU: 0x17DDC, offset: 0x17DDC, size: 0x8, addend: 0x0, symName: __ZNKSt3__16vectorIN5Utils16CompareContainerIdiEENS_9allocatorIS3_EEE5emptyB8ue170006Ev, symObjAddr: 0x85EC, symBinAddr: 0x10000BD34, symSize: 0x28 }
  - { offsetInCU: 0x17E01, offset: 0x17E01, size: 0x8, addend: 0x0, symName: __ZNKSt3__16vectorIN5Utils16CompareContainerIdiEENS_9allocatorIS3_EEE5frontB8ue170006Ev, symObjAddr: 0x8614, symBinAddr: 0x10000BD5C, symSize: 0x18 }
  - { offsetInCU: 0x17E25, offset: 0x17E25, size: 0x8, addend: 0x0, symName: __ZNSt3__16vectorIN5Utils16CompareContainerIdiEENS_9allocatorIS3_EEE8pop_backEv, symObjAddr: 0x8684, symBinAddr: 0x10000BDCC, symSize: 0x2C }
  - { offsetInCU: 0x17E4C, offset: 0x17E4C, size: 0x8, addend: 0x0, symName: __ZNSt3__111__wrap_iterIPN5Utils16CompareContainerIdiEEEppB8ue170006Ev, symObjAddr: 0x8998, symBinAddr: 0x10000C0E0, symSize: 0x20 }
  - { offsetInCU: 0x17E71, offset: 0x17E71, size: 0x8, addend: 0x0, symName: __ZNSt3__16vectorIN5Utils16CompareContainerIdiEENS_9allocatorIS3_EEE17__destruct_at_endB8ue170006EPS3_, symObjAddr: 0x89B8, symBinAddr: 0x10000C100, symSize: 0x4C }
  - { offsetInCU: 0x17EB4, offset: 0x17EB4, size: 0x8, addend: 0x0, symName: __ZNKSt3__16vectorIN5Utils16CompareContainerIdiEENS_9allocatorIS3_EEE17__annotate_shrinkB8ue170006Em, symObjAddr: 0x8A04, symBinAddr: 0x10000C14C, symSize: 0xB4 }
  - { offsetInCU: 0x17EE8, offset: 0x17EE8, size: 0x8, addend: 0x0, symName: __ZNSt3__16vectorI12DirectedEdgeNS_9allocatorIS1_EEEC2B8ue170006Ev, symObjAddr: 0x8AB8, symBinAddr: 0x10000C200, symSize: 0x4C }
  - { offsetInCU: 0x17F11, offset: 0x17F11, size: 0x8, addend: 0x0, symName: __ZNSt3__117__compressed_pairIP12DirectedEdgeNS_9allocatorIS1_EEEC1B8ue170006IDnNS_18__default_init_tagEEEOT_OT0_, symObjAddr: 0x8B04, symBinAddr: 0x10000C24C, symSize: 0x3C }
  - { offsetInCU: 0x17F68, offset: 0x17F68, size: 0x8, addend: 0x0, symName: __ZNSt3__117__compressed_pairIP12DirectedEdgeNS_9allocatorIS1_EEEC2B8ue170006IDnNS_18__default_init_tagEEEOT_OT0_, symObjAddr: 0x8B40, symBinAddr: 0x10000C288, symSize: 0x40 }
  - { offsetInCU: 0x17FBF, offset: 0x17FBF, size: 0x8, addend: 0x0, symName: __ZNSt3__122__compressed_pair_elemINS_9allocatorI12DirectedEdgeEELi1ELb1EEC2B8ue170006ENS_18__default_init_tagE, symObjAddr: 0x8B80, symBinAddr: 0x10000C2C8, symSize: 0x2C }
  - { offsetInCU: 0x17FF2, offset: 0x17FF2, size: 0x8, addend: 0x0, symName: __ZNSt3__19allocatorI12DirectedEdgeEC2B8ue170006Ev, symObjAddr: 0x8BAC, symBinAddr: 0x10000C2F4, symSize: 0x2C }
  - { offsetInCU: 0x1801B, offset: 0x1801B, size: 0x8, addend: 0x0, symName: __ZNSt3__116__non_trivial_ifILb1ENS_9allocatorI12DirectedEdgeEEEC2B8ue170006Ev, symObjAddr: 0x8BD8, symBinAddr: 0x10000C320, symSize: 0x14 }
  - { offsetInCU: 0x18043, offset: 0x18043, size: 0x8, addend: 0x0, symName: __ZNSt3__16__treeINS_12__value_typeIi12DirectedEdgeEENS_19__map_value_compareIiS3_NS_4lessIiEELb1EEENS_9allocatorIS3_EEE4findIiEENS_15__tree_iteratorIS3_PNS_11__tree_nodeIS3_PvEElEERKT_, symObjAddr: 0x8BEC, symBinAddr: 0x10000C334, symSize: 0xF8 }
  - { offsetInCU: 0x18091, offset: 0x18091, size: 0x8, addend: 0x0, symName: __ZNSt3__114__map_iteratorINS_15__tree_iteratorINS_12__value_typeIi12DirectedEdgeEEPNS_11__tree_nodeIS4_PvEElEEEC1B8ue170006ES9_, symObjAddr: 0x8CE4, symBinAddr: 0x10000C42C, symSize: 0x34 }
  - { offsetInCU: 0x180C8, offset: 0x180C8, size: 0x8, addend: 0x0, symName: __ZNSt3__16__treeINS_12__value_typeIi12DirectedEdgeEENS_19__map_value_compareIiS3_NS_4lessIiEELb1EEENS_9allocatorIS3_EEE13__lower_boundIiEENS_15__tree_iteratorIS3_PNS_11__tree_nodeIS3_PvEElEERKT_SG_PNS_15__tree_end_nodeIPNS_16__tree_node_baseISE_EEEE, symObjAddr: 0x8D18, symBinAddr: 0x10000C460, symSize: 0xA4 }
  - { offsetInCU: 0x18125, offset: 0x18125, size: 0x8, addend: 0x0, symName: __ZNSt3__16__treeINS_12__value_typeIi12DirectedEdgeEENS_19__map_value_compareIiS3_NS_4lessIiEELb1EEENS_9allocatorIS3_EEE3endB8ue170006Ev, symObjAddr: 0x8DF0, symBinAddr: 0x10000C538, symSize: 0x34 }
  - { offsetInCU: 0x1814A, offset: 0x1814A, size: 0x8, addend: 0x0, symName: __ZNKSt3__115__tree_iteratorINS_12__value_typeIi12DirectedEdgeEEPNS_11__tree_nodeIS3_PvEElEdeB8ue170006Ev, symObjAddr: 0x8E24, symBinAddr: 0x10000C56C, symSize: 0x28 }
  - { offsetInCU: 0x1816F, offset: 0x1816F, size: 0x8, addend: 0x0, symName: __ZNSt3__115__tree_iteratorINS_12__value_typeIi12DirectedEdgeEEPNS_11__tree_nodeIS3_PvEElEC1B8ue170006EPNS_15__tree_end_nodeIPNS_16__tree_node_baseIS5_EEEE, symObjAddr: 0x8E4C, symBinAddr: 0x10000C594, symSize: 0x34 }
  - { offsetInCU: 0x181A7, offset: 0x181A7, size: 0x8, addend: 0x0, symName: __ZNSt3__115__tree_iteratorINS_12__value_typeIi12DirectedEdgeEEPNS_11__tree_nodeIS3_PvEElEC2B8ue170006EPNS_15__tree_end_nodeIPNS_16__tree_node_baseIS5_EEEE, symObjAddr: 0x8E80, symBinAddr: 0x10000C5C8, symSize: 0x20 }
  - { offsetInCU: 0x181DF, offset: 0x181DF, size: 0x8, addend: 0x0, symName: __ZNSt3__114__map_iteratorINS_15__tree_iteratorINS_12__value_typeIi12DirectedEdgeEEPNS_11__tree_nodeIS4_PvEElEEEC2B8ue170006ES9_, symObjAddr: 0x8ED0, symBinAddr: 0x10000C618, symSize: 0x20 }
  - { offsetInCU: 0x18217, offset: 0x18217, size: 0x8, addend: 0x0, symName: __ZNSt3__16vectorI12DirectedEdgeNS_9allocatorIS1_EEE22__construct_one_at_endB8ue170006IJRKS1_EEEvDpOT_, symObjAddr: 0x8EF0, symBinAddr: 0x10000C638, symSize: 0x90 }
  - { offsetInCU: 0x18264, offset: 0x18264, size: 0x8, addend: 0x0, symName: __ZNSt3__16vectorI12DirectedEdgeNS_9allocatorIS1_EEE21__push_back_slow_pathIRKS1_EEvOT_, symObjAddr: 0x8F80, symBinAddr: 0x10000C6C8, symSize: 0xD8 }
  - { offsetInCU: 0x182C1, offset: 0x182C1, size: 0x8, addend: 0x0, symName: __ZNSt3__116allocator_traitsINS_9allocatorI12DirectedEdgeEEE9constructB8ue170006IS2_JRKS2_EvEEvRS3_PT_DpOT0_, symObjAddr: 0x9058, symBinAddr: 0x10000C7A0, symSize: 0x34 }
  - { offsetInCU: 0x18318, offset: 0x18318, size: 0x8, addend: 0x0, symName: __ZNSt3__19allocatorI12DirectedEdgeE9constructB8ue170006IS1_JRKS1_EEEvPT_DpOT0_, symObjAddr: 0x908C, symBinAddr: 0x10000C7D4, symSize: 0x28 }
  - { offsetInCU: 0x1836C, offset: 0x1836C, size: 0x8, addend: 0x0, symName: __ZNKSt3__16vectorI12DirectedEdgeNS_9allocatorIS1_EEE11__recommendB8ue170006Em, symObjAddr: 0x90B4, symBinAddr: 0x10000C7FC, symSize: 0xB4 }
  - { offsetInCU: 0x183C0, offset: 0x183C0, size: 0x8, addend: 0x0, symName: __ZNSt3__114__split_bufferI12DirectedEdgeRNS_9allocatorIS1_EEEC1EmmS4_, symObjAddr: 0x9168, symBinAddr: 0x10000C8B0, symSize: 0x44 }
  - { offsetInCU: 0x18415, offset: 0x18415, size: 0x8, addend: 0x0, symName: __ZNSt3__114__split_bufferI12DirectedEdgeRNS_9allocatorIS1_EEED1Ev, symObjAddr: 0x92BC, symBinAddr: 0x10000CA04, symSize: 0x2C }
  - { offsetInCU: 0x18440, offset: 0x18440, size: 0x8, addend: 0x0, symName: __ZNSt3__114__split_bufferI12DirectedEdgeRNS_9allocatorIS1_EEEC2EmmS4_, symObjAddr: 0x92E8, symBinAddr: 0x10000CA30, symSize: 0xD4 }
  - { offsetInCU: 0x184B2, offset: 0x184B2, size: 0x8, addend: 0x0, symName: __ZNSt3__117__compressed_pairIP12DirectedEdgeRNS_9allocatorIS1_EEEC1B8ue170006IDnS5_EEOT_OT0_, symObjAddr: 0x93BC, symBinAddr: 0x10000CB04, symSize: 0x3C }
  - { offsetInCU: 0x18509, offset: 0x18509, size: 0x8, addend: 0x0, symName: __ZNSt3__114__split_bufferI12DirectedEdgeRNS_9allocatorIS1_EEE7__allocB8ue170006Ev, symObjAddr: 0x93F8, symBinAddr: 0x10000CB40, symSize: 0x28 }
  - { offsetInCU: 0x1852E, offset: 0x1852E, size: 0x8, addend: 0x0, symName: __ZNSt3__114__split_bufferI12DirectedEdgeRNS_9allocatorIS1_EEE9__end_capB8ue170006Ev, symObjAddr: 0x9420, symBinAddr: 0x10000CB68, symSize: 0x28 }
  - { offsetInCU: 0x18553, offset: 0x18553, size: 0x8, addend: 0x0, symName: __ZNSt3__117__compressed_pairIP12DirectedEdgeRNS_9allocatorIS1_EEEC2B8ue170006IDnS5_EEOT_OT0_, symObjAddr: 0x9448, symBinAddr: 0x10000CB90, symSize: 0x48 }
  - { offsetInCU: 0x185AA, offset: 0x185AA, size: 0x8, addend: 0x0, symName: __ZNSt3__122__compressed_pair_elemIRNS_9allocatorI12DirectedEdgeEELi1ELb0EEC2B8ue170006IS4_vEEOT_, symObjAddr: 0x9490, symBinAddr: 0x10000CBD8, symSize: 0x20 }
  - { offsetInCU: 0x185EB, offset: 0x185EB, size: 0x8, addend: 0x0, symName: __ZNSt3__117__compressed_pairIP12DirectedEdgeRNS_9allocatorIS1_EEE6secondB8ue170006Ev, symObjAddr: 0x94B0, symBinAddr: 0x10000CBF8, symSize: 0x28 }
  - { offsetInCU: 0x18610, offset: 0x18610, size: 0x8, addend: 0x0, symName: __ZNSt3__122__compressed_pair_elemIRNS_9allocatorI12DirectedEdgeEELi1ELb0EE5__getB8ue170006Ev, symObjAddr: 0x94D8, symBinAddr: 0x10000CC20, symSize: 0x18 }
  - { offsetInCU: 0x18635, offset: 0x18635, size: 0x8, addend: 0x0, symName: __ZNSt3__117__compressed_pairIP12DirectedEdgeRNS_9allocatorIS1_EEE5firstB8ue170006Ev, symObjAddr: 0x94F0, symBinAddr: 0x10000CC38, symSize: 0x24 }
  - { offsetInCU: 0x1865A, offset: 0x1865A, size: 0x8, addend: 0x0, symName: __ZNSt3__116reverse_iteratorIP12DirectedEdgeEC1B8ue170006ES2_, symObjAddr: 0x958C, symBinAddr: 0x10000CCD4, symSize: 0x34 }
  - { offsetInCU: 0x18691, offset: 0x18691, size: 0x8, addend: 0x0, symName: __ZNKSt3__116reverse_iteratorIP12DirectedEdgeE4baseB8ue170006Ev, symObjAddr: 0x95C0, symBinAddr: 0x10000CD08, symSize: 0x18 }
  - { offsetInCU: 0x186CF, offset: 0x186CF, size: 0x8, addend: 0x0, symName: __ZNKSt3__111__move_loopINS_17_ClassicAlgPolicyEEclB8ue170006INS_16reverse_iteratorIP12DirectedEdgeEES7_S7_EENS_4pairIT_T1_EES9_T0_SA_, symObjAddr: 0x9904, symBinAddr: 0x10000D04C, symSize: 0xA0 }
  - { offsetInCU: 0x1873E, offset: 0x1873E, size: 0x8, addend: 0x0, symName: __ZNSt3__18_IterOpsINS_17_ClassicAlgPolicyEE11__iter_moveB8ue170006IRNS_16reverse_iteratorIP12DirectedEdgeEEEENS_9enable_ifIXsr12is_referenceIDTdeclsr3stdE7declvalIRT_EEEEE5valueEDTclsr3stdE4movedeclsr3stdE7declvalISB_EEEEE4typeEOSA_, symObjAddr: 0x9B38, symBinAddr: 0x10000D280, symSize: 0x28 }
  - { offsetInCU: 0x1876A, offset: 0x1876A, size: 0x8, addend: 0x0, symName: __ZNKSt3__116reverse_iteratorIP12DirectedEdgeEdeB8ue170006Ev, symObjAddr: 0x9B60, symBinAddr: 0x10000D2A8, symSize: 0x28 }
  - { offsetInCU: 0x1879D, offset: 0x1879D, size: 0x8, addend: 0x0, symName: __ZNSt3__116reverse_iteratorIP12DirectedEdgeEppB8ue170006Ev, symObjAddr: 0x9B88, symBinAddr: 0x10000D2D0, symSize: 0x20 }
  - { offsetInCU: 0x187C2, offset: 0x187C2, size: 0x8, addend: 0x0, symName: __ZNSt3__18_IterOpsINS_17_ClassicAlgPolicyEE25__validate_iter_referenceB8ue170006IRNS_16reverse_iteratorIP12DirectedEdgeEEEEvv, symObjAddr: 0x9BA8, symBinAddr: 0x10000D2F0, symSize: 0x4 }
  - { offsetInCU: 0x187E0, offset: 0x187E0, size: 0x8, addend: 0x0, symName: __ZNSt3__118__unwrap_iter_implINS_16reverse_iteratorIP12DirectedEdgeEELb0EE8__unwrapB8ue170006ES4_, symObjAddr: 0x9BAC, symBinAddr: 0x10000D2F4, symSize: 0x24 }
  - { offsetInCU: 0x18808, offset: 0x18808, size: 0x8, addend: 0x0, symName: __ZNSt3__14pairINS_16reverse_iteratorIP12DirectedEdgeEES4_EC1B8ue170006IS4_S4_LPv0EEEOT_OT0_, symObjAddr: 0x9BD0, symBinAddr: 0x10000D318, symSize: 0x3C }
  - { offsetInCU: 0x18865, offset: 0x18865, size: 0x8, addend: 0x0, symName: __ZNSt3__14pairINS_16reverse_iteratorIP12DirectedEdgeEES4_EC2B8ue170006IS4_S4_LPv0EEEOT_OT0_, symObjAddr: 0x9C0C, symBinAddr: 0x10000D354, symSize: 0x34 }
  - { offsetInCU: 0x188C2, offset: 0x188C2, size: 0x8, addend: 0x0, symName: __ZNSt3__118__unwrap_iter_implINS_16reverse_iteratorIP12DirectedEdgeEELb0EE8__rewrapB8ue170006ES4_S4_, symObjAddr: 0x9C40, symBinAddr: 0x10000D388, symSize: 0x2C }
  - { offsetInCU: 0x188EF, offset: 0x188EF, size: 0x8, addend: 0x0, symName: __ZNSt3__116reverse_iteratorIP12DirectedEdgeEC2B8ue170006ES2_, symObjAddr: 0x9C6C, symBinAddr: 0x10000D3B4, symSize: 0x28 }
  - { offsetInCU: 0x18926, offset: 0x18926, size: 0x8, addend: 0x0, symName: __ZNSt3__114__split_bufferI12DirectedEdgeRNS_9allocatorIS1_EEED2Ev, symObjAddr: 0x9C94, symBinAddr: 0x10000D3DC, symSize: 0x8C }
  - { offsetInCU: 0x18951, offset: 0x18951, size: 0x8, addend: 0x0, symName: __ZNSt3__114__split_bufferI12DirectedEdgeRNS_9allocatorIS1_EEE5clearB8ue170006Ev, symObjAddr: 0x9D20, symBinAddr: 0x10000D468, symSize: 0x28 }
  - { offsetInCU: 0x18976, offset: 0x18976, size: 0x8, addend: 0x0, symName: __ZNKSt3__114__split_bufferI12DirectedEdgeRNS_9allocatorIS1_EEE8capacityB8ue170006Ev, symObjAddr: 0x9D48, symBinAddr: 0x10000D490, symSize: 0x40 }
  - { offsetInCU: 0x1899B, offset: 0x1899B, size: 0x8, addend: 0x0, symName: __ZNSt3__114__split_bufferI12DirectedEdgeRNS_9allocatorIS1_EEE17__destruct_at_endB8ue170006EPS1_, symObjAddr: 0x9D88, symBinAddr: 0x10000D4D0, symSize: 0x2C }
  - { offsetInCU: 0x189CD, offset: 0x189CD, size: 0x8, addend: 0x0, symName: __ZNSt3__114__split_bufferI12DirectedEdgeRNS_9allocatorIS1_EEE17__destruct_at_endB8ue170006EPS1_NS_17integral_constantIbLb0EEE, symObjAddr: 0x9DB4, symBinAddr: 0x10000D4FC, symSize: 0x80 }
  - { offsetInCU: 0x18A0C, offset: 0x18A0C, size: 0x8, addend: 0x0, symName: __ZNKSt3__114__split_bufferI12DirectedEdgeRNS_9allocatorIS1_EEE9__end_capB8ue170006Ev, symObjAddr: 0x9E34, symBinAddr: 0x10000D57C, symSize: 0x28 }
  - { offsetInCU: 0x18A31, offset: 0x18A31, size: 0x8, addend: 0x0, symName: __ZNKSt3__117__compressed_pairIP12DirectedEdgeRNS_9allocatorIS1_EEE5firstB8ue170006Ev, symObjAddr: 0x9E5C, symBinAddr: 0x10000D5A4, symSize: 0x24 }
  - { offsetInCU: 0x18A56, offset: 0x18A56, size: 0x8, addend: 0x0, symName: __ZNSt3__111__wrap_iterIP12DirectedEdgeEmmB8ue170006Ev, symObjAddr: 0x9F80, symBinAddr: 0x10000D6C8, symSize: 0x20 }
  - { offsetInCU: 0x18A7B, offset: 0x18A7B, size: 0x8, addend: 0x0, symName: __ZNSt3__18_IterOpsINS_17_ClassicAlgPolicyEE9iter_swapB8ue170006IRNS_11__wrap_iterIP12DirectedEdgeEES8_EEvOT_OT0_, symObjAddr: 0x9FA0, symBinAddr: 0x10000D6E8, symSize: 0x44 }
  - { offsetInCU: 0x7B49, offset: 0x2081D, size: 0x8, addend: 0x0, symName: __ZNSt3__1neB8ue170006IPK12DirectedEdgeEEbRKNS_11__wrap_iterIT_EES8_, symObjAddr: 0xB7C, symBinAddr: 0x10000E1E0, symSize: 0x34 }
  - { offsetInCU: 0x7B8C, offset: 0x20860, size: 0x8, addend: 0x0, symName: '__ZNSt3__19remove_ifB8ue170006INS_11__wrap_iterIP12DirectedEdgeEEZN19EdgeWeightedDigraph8del_EdgeES2_E3$_0EET_S7_S7_T0_', symObjAddr: 0xEA0, symBinAddr: 0x10000E504, symSize: 0x104 }
  - { offsetInCU: 0x7C03, offset: 0x208D7, size: 0x8, addend: 0x0, symName: __ZNSt3__1eqB8ue170006IPK12DirectedEdgeEEbRKNS_11__wrap_iterIT_EES8_, symObjAddr: 0x1280, symBinAddr: 0x10000E81C, symSize: 0x48 }
  - { offsetInCU: 0x7C46, offset: 0x2091A, size: 0x8, addend: 0x0, symName: __ZNSt3__142__uninitialized_allocator_move_if_noexceptB8ue170006INS_9allocatorINS_6vectorI12DirectedEdgeNS1_IS3_EEEEEENS_16reverse_iteratorIPS5_EES9_S9_EET2_RT_T0_T1_SA_, symObjAddr: 0x2858, symBinAddr: 0x10000F254, symSize: 0x12C }
  - { offsetInCU: 0x7CE6, offset: 0x209BA, size: 0x8, addend: 0x0, symName: __ZNSt3__14swapB8ue170006IPNS_6vectorI12DirectedEdgeNS_9allocatorIS2_EEEEEENS_9enable_ifIXaasr21is_move_constructibleIT_EE5valuesr18is_move_assignableIS8_EE5valueEvE4typeERS8_SB_, symObjAddr: 0x29D0, symBinAddr: 0x10000F380, symSize: 0x3C }
  - { offsetInCU: 0x7D37, offset: 0x20A0B, size: 0x8, addend: 0x0, symName: __ZNSt3__122__make_exception_guardB8ue170006INS_29_AllocatorDestroyRangeReverseINS_9allocatorINS_6vectorI12DirectedEdgeNS2_IS4_EEEEEENS_16reverse_iteratorIPS6_EEEEEENS_28__exception_guard_exceptionsIT_EESD_, symObjAddr: 0x2AD4, symBinAddr: 0x10000F3BC, symSize: 0x4C }
  - { offsetInCU: 0x7D6D, offset: 0x20A41, size: 0x8, addend: 0x0, symName: __ZNSt3__119__allocator_destroyB8ue170006INS_9allocatorINS_6vectorI12DirectedEdgeNS1_IS3_EEEEEENS_16reverse_iteratorINS7_IPS5_EEEESA_EEvRT_T0_T1_, symObjAddr: 0x312C, symBinAddr: 0x10000F790, symSize: 0x70 }
  - { offsetInCU: 0x7DD2, offset: 0x20AA6, size: 0x8, addend: 0x0, symName: __ZNSt3__1neB8ue170006INS_16reverse_iteratorIPNS_6vectorI12DirectedEdgeNS_9allocatorIS3_EEEEEES8_EEbRKNS1_IT_EERKNS1_IT0_EE, symObjAddr: 0x31D8, symBinAddr: 0x10000F83C, symSize: 0x60 }
  - { offsetInCU: 0x7E1E, offset: 0x20AF2, size: 0x8, addend: 0x0, symName: __ZNSt3__112__to_addressB8ue170006INS_16reverse_iteratorINS1_IPNS_6vectorI12DirectedEdgeNS_9allocatorIS3_EEEEEEEEvEEu7__decayIDTclsr19__to_address_helperIT_EE6__callclsr3stdE7declvalIRKSA_EEEEESC_, symObjAddr: 0x3238, symBinAddr: 0x10000F89C, symSize: 0x24 }
  - { offsetInCU: 0x7E7D, offset: 0x20B51, size: 0x8, addend: 0x0, symName: __ZNSt3__112__to_addressB8ue170006IKcEEPT_S3_, symObjAddr: 0x3844, symBinAddr: 0x10000FE80, symSize: 0x14 }
  - { offsetInCU: 0x7EE5, offset: 0x20BB9, size: 0x8, addend: 0x0, symName: '__ZNSt3__17find_ifB8ue170006INS_11__wrap_iterIP12DirectedEdgeEERZN19EdgeWeightedDigraph8del_EdgeES2_E3$_0EET_S8_S8_T0_', symObjAddr: 0x6118, symBinAddr: 0x1000103C8, symSize: 0x80 }
  - { offsetInCU: 0x7F40, offset: 0x20C14, size: 0x8, addend: 0x0, symName: __ZNSt3__1miB8ue170006IPK12DirectedEdgePS1_EEDTmicldtfp_4baseEcldtfp0_4baseEERKNS_11__wrap_iterIT_EERKNS6_IT0_EE, symObjAddr: 0x62B8, symBinAddr: 0x100010518, symSize: 0x48 }
  - { offsetInCU: 0x7F8C, offset: 0x20C60, size: 0x8, addend: 0x0, symName: __ZNSt3__14moveB8ue170006IP12DirectedEdgeS2_EET0_T_S4_S3_, symObjAddr: 0x634C, symBinAddr: 0x1000105AC, symSize: 0x40 }
  - { offsetInCU: 0x7FE6, offset: 0x20CBA, size: 0x8, addend: 0x0, symName: __ZNSt3__1miB8ue170006IPK12DirectedEdgeS3_EEDTmicldtfp_4baseEcldtfp0_4baseEERKNS_11__wrap_iterIT_EERKNS5_IT0_EE, symObjAddr: 0x638C, symBinAddr: 0x1000105EC, symSize: 0x48 }
  - { offsetInCU: 0x8032, offset: 0x20D06, size: 0x8, addend: 0x0, symName: __ZNSt3__16__moveB8ue170006INS_17_ClassicAlgPolicyEP12DirectedEdgeS3_S3_EENS_4pairIT0_T2_EES5_T1_S6_, symObjAddr: 0x6488, symBinAddr: 0x1000106E8, symSize: 0x44 }
  - { offsetInCU: 0x809E, offset: 0x20D72, size: 0x8, addend: 0x0, symName: __ZNSt3__123__dispatch_copy_or_moveB8ue170006INS_17_ClassicAlgPolicyENS_11__move_loopIS1_EENS_14__move_trivialEP12DirectedEdgeS6_S6_EENS_4pairIT2_T4_EES8_T3_S9_, symObjAddr: 0x64CC, symBinAddr: 0x10001072C, symSize: 0x44 }
  - { offsetInCU: 0x811C, offset: 0x20DF0, size: 0x8, addend: 0x0, symName: __ZNSt3__121__unwrap_and_dispatchB8ue170006INS_10__overloadINS_11__move_loopINS_17_ClassicAlgPolicyEEENS_14__move_trivialEEEP12DirectedEdgeS8_S8_Li0EEENS_4pairIT0_T2_EESA_T1_SB_, symObjAddr: 0x6510, symBinAddr: 0x100010770, symSize: 0xB4 }
  - { offsetInCU: 0x8642, offset: 0x21316, size: 0x8, addend: 0x0, symName: __ZNSt3__16vectorINS0_I12DirectedEdgeNS_9allocatorIS1_EEEENS2_IS4_EEE26__swap_out_circular_bufferERNS_14__split_bufferIS4_RS5_EE, symObjAddr: 0x1E48, symBinAddr: 0x10000EDB8, symSize: 0x110 }
  - { offsetInCU: 0xA5BD, offset: 0x23291, size: 0x8, addend: 0x0, symName: __ZNK19EdgeWeightedDigraph14validateVertexEi, symObjAddr: 0x0, symBinAddr: 0x10000D7B8, symSize: 0x5C }
  - { offsetInCU: 0xA5F2, offset: 0x232C6, size: 0x8, addend: 0x0, symName: __ZNK19EdgeWeightedDigraph23validateVertexWithErrorEi, symObjAddr: 0x5C, symBinAddr: 0x10000D814, symSize: 0x58 }
  - { offsetInCU: 0xA626, offset: 0x232FA, size: 0x8, addend: 0x0, symName: __ZN19EdgeWeightedDigraphC2Ei, symObjAddr: 0xB4, symBinAddr: 0x10000D86C, symSize: 0x7C }
  - { offsetInCU: 0xA65F, offset: 0x23333, size: 0x8, addend: 0x0, symName: __ZNSt3__16vectorINS0_I12DirectedEdgeNS_9allocatorIS1_EEEENS2_IS4_EEEC1B8ue170006Ev, symObjAddr: 0x130, symBinAddr: 0x10000D8E8, symSize: 0x2C }
  - { offsetInCU: 0xA687, offset: 0x2335B, size: 0x8, addend: 0x0, symName: __ZNSt3__16vectorINS0_I12DirectedEdgeNS_9allocatorIS1_EEEENS2_IS4_EEE6resizeEm, symObjAddr: 0x15C, symBinAddr: 0x10000D914, symSize: 0x9C }
  - { offsetInCU: 0xA6CC, offset: 0x233A0, size: 0x8, addend: 0x0, symName: __ZN19EdgeWeightedDigraphC1Ei, symObjAddr: 0x224, symBinAddr: 0x10000D9B0, symSize: 0x34 }
  - { offsetInCU: 0xA705, offset: 0x233D9, size: 0x8, addend: 0x0, symName: __ZN19EdgeWeightedDigraphC2ENSt3__112basic_stringIcNS0_11char_traitsIcEENS0_9allocatorIcEEEE, symObjAddr: 0x258, symBinAddr: 0x10000D9E4, symSize: 0x244 }
  - { offsetInCU: 0xA95C, offset: 0x23630, size: 0x8, addend: 0x0, symName: __ZNSt3__114basic_ifstreamIcNS_11char_traitsIcEEEC1ERKNS_12basic_stringIcS2_NS_9allocatorIcEEEEj, symObjAddr: 0x49C, symBinAddr: 0x10000DC28, symSize: 0x16C }
  - { offsetInCU: 0xA9A4, offset: 0x23678, size: 0x8, addend: 0x0, symName: __ZNSt3__16vectorINS0_I12DirectedEdgeNS_9allocatorIS1_EEEENS2_IS4_EEE6resizeEmRKS4_, symObjAddr: 0x608, symBinAddr: 0x10000DD94, symSize: 0xA4 }
  - { offsetInCU: 0xA9F8, offset: 0x236CC, size: 0x8, addend: 0x0, symName: __ZNKSt3__19basic_iosIcNS_11char_traitsIcEEEcvbB8ue170006Ev, symObjAddr: 0x704, symBinAddr: 0x10000DE38, symSize: 0x2C }
  - { offsetInCU: 0xAA1D, offset: 0x236F1, size: 0x8, addend: 0x0, symName: __ZN19EdgeWeightedDigraph3addE12DirectedEdge, symObjAddr: 0x730, symBinAddr: 0x10000DE64, symSize: 0x90 }
  - { offsetInCU: 0xAA51, offset: 0x23725, size: 0x8, addend: 0x0, symName: __ZN12DirectedEdgeC1Eiid, symObjAddr: 0x7C0, symBinAddr: 0x10000DEF4, symSize: 0x44 }
  - { offsetInCU: 0xAAA9, offset: 0x2377D, size: 0x8, addend: 0x0, symName: __ZNSt3__114basic_ifstreamIcNS_11char_traitsIcEEED1Ev, symObjAddr: 0x804, symBinAddr: 0x10000DF38, symSize: 0x40 }
  - { offsetInCU: 0xAAD5, offset: 0x237A9, size: 0x8, addend: 0x0, symName: __ZN19EdgeWeightedDigraphC1ENSt3__112basic_stringIcNS0_11char_traitsIcEENS0_9allocatorIcEEEE, symObjAddr: 0x844, symBinAddr: 0x10000DF78, symSize: 0x34 }
  - { offsetInCU: 0xAB0F, offset: 0x237E3, size: 0x8, addend: 0x0, symName: __ZNSt3__16vectorINS0_I12DirectedEdgeNS_9allocatorIS1_EEEENS2_IS4_EEEixB8ue170006Em, symObjAddr: 0x8A8, symBinAddr: 0x10000DFAC, symSize: 0x2C }
  - { offsetInCU: 0xAB45, offset: 0x23819, size: 0x8, addend: 0x0, symName: __ZNK19EdgeWeightedDigraph4getVEv, symObjAddr: 0x940, symBinAddr: 0x10000DFD8, symSize: 0x18 }
  - { offsetInCU: 0xAB6C, offset: 0x23840, size: 0x8, addend: 0x0, symName: __ZNK19EdgeWeightedDigraph4getEEv, symObjAddr: 0x958, symBinAddr: 0x10000DFF0, symSize: 0x18 }
  - { offsetInCU: 0xAB93, offset: 0x23867, size: 0x8, addend: 0x0, symName: __ZNK19EdgeWeightedDigraph6getAdjEv, symObjAddr: 0x970, symBinAddr: 0x10000E008, symSize: 0x3C }
  - { offsetInCU: 0xABB9, offset: 0x2388D, size: 0x8, addend: 0x0, symName: __ZNK19EdgeWeightedDigraph6getAdjEi, symObjAddr: 0x9E0, symBinAddr: 0x10000E044, symSize: 0x110 }
  - { offsetInCU: 0xAC46, offset: 0x2391A, size: 0x8, addend: 0x0, symName: __ZNKSt3__16vectorINS0_I12DirectedEdgeNS_9allocatorIS1_EEEENS2_IS4_EEEixB8ue170006Em, symObjAddr: 0xAF0, symBinAddr: 0x10000E154, symSize: 0x2C }
  - { offsetInCU: 0xAC7B, offset: 0x2394F, size: 0x8, addend: 0x0, symName: __ZNKSt3__16vectorI12DirectedEdgeNS_9allocatorIS1_EEE5beginB8ue170006Ev, symObjAddr: 0xB1C, symBinAddr: 0x10000E180, symSize: 0x30 }
  - { offsetInCU: 0xACA1, offset: 0x23975, size: 0x8, addend: 0x0, symName: __ZNKSt3__16vectorI12DirectedEdgeNS_9allocatorIS1_EEE3endB8ue170006Ev, symObjAddr: 0xB4C, symBinAddr: 0x10000E1B0, symSize: 0x30 }
  - { offsetInCU: 0xACC8, offset: 0x2399C, size: 0x8, addend: 0x0, symName: __ZNKSt3__111__wrap_iterIPK12DirectedEdgeEdeB8ue170006Ev, symObjAddr: 0xBB0, symBinAddr: 0x10000E214, symSize: 0x18 }
  - { offsetInCU: 0xACED, offset: 0x239C1, size: 0x8, addend: 0x0, symName: __ZNSt3__111__wrap_iterIPK12DirectedEdgeEppB8ue170006Ev, symObjAddr: 0xBC8, symBinAddr: 0x10000E22C, symSize: 0x20 }
  - { offsetInCU: 0xAD12, offset: 0x239E6, size: 0x8, addend: 0x0, symName: __ZNK19EdgeWeightedDigraph5edgesEv, symObjAddr: 0xBE8, symBinAddr: 0x10000E24C, symSize: 0x14C }
  - { offsetInCU: 0xADA6, offset: 0x23A7A, size: 0x8, addend: 0x0, symName: __ZN19EdgeWeightedDigraph8del_EdgeE12DirectedEdge, symObjAddr: 0xD34, symBinAddr: 0x10000E398, symSize: 0x16C }
  - { offsetInCU: 0xAE3C, offset: 0x23B10, size: 0x8, addend: 0x0, symName: __ZNSt3__16vectorI12DirectedEdgeNS_9allocatorIS1_EEE5eraseENS_11__wrap_iterIPKS1_EES8_, symObjAddr: 0x1038, symBinAddr: 0x10000E608, symSize: 0xD0 }
  - { offsetInCU: 0xAE9A, offset: 0x23B6E, size: 0x8, addend: 0x0, symName: __ZNSt3__111__wrap_iterIPK12DirectedEdgeEC1B8ue170006IPS1_EERKNS0_IT_EEPNS_9enable_ifIXsr14is_convertibleIS7_S3_EE5valueEvE4typeE, symObjAddr: 0x1108, symBinAddr: 0x10000E6D8, symSize: 0x3C }
  - { offsetInCU: 0xAEE4, offset: 0x23BB8, size: 0x8, addend: 0x0, symName: __ZNK19EdgeWeightedDigraphixEi, symObjAddr: 0x1144, symBinAddr: 0x10000E714, symSize: 0x44 }
  - { offsetInCU: 0xAF18, offset: 0x23BEC, size: 0x8, addend: 0x0, symName: __ZN12DirectedEdgeC2Eiid, symObjAddr: 0x11BC, symBinAddr: 0x10000E758, symSize: 0x38 }
  - { offsetInCU: 0xAF6B, offset: 0x23C3F, size: 0x8, addend: 0x0, symName: __ZNSt3__114basic_ifstreamIcNS_11char_traitsIcEEED2Ev, symObjAddr: 0x11F4, symBinAddr: 0x10000E790, symSize: 0x64 }
  - { offsetInCU: 0xAFA3, offset: 0x23C77, size: 0x8, addend: 0x0, symName: __ZTv0_n24_NSt3__114basic_ifstreamIcNS_11char_traitsIcEEED1Ev, symObjAddr: 0x1258, symBinAddr: 0x10000E7F4, symSize: 0x28 }
  - { offsetInCU: 0xAFBA, offset: 0x23C8E, size: 0x8, addend: 0x0, symName: __ZNKSt3__111__wrap_iterIPK12DirectedEdgeE4baseB8ue170006Ev, symObjAddr: 0x12C8, symBinAddr: 0x10000E864, symSize: 0x18 }
  - { offsetInCU: 0xAFDF, offset: 0x23CB3, size: 0x8, addend: 0x0, symName: __ZNSt3__111__wrap_iterIPK12DirectedEdgeEC2B8ue170006IPS1_EERKNS0_IT_EEPNS_9enable_ifIXsr14is_convertibleIS7_S3_EE5valueEvE4typeE, symObjAddr: 0x1340, symBinAddr: 0x10000E87C, symSize: 0x40 }
  - { offsetInCU: 0xB029, offset: 0x23CFD, size: 0x8, addend: 0x0, symName: __ZNSt3__16vectorINS0_I12DirectedEdgeNS_9allocatorIS1_EEEENS2_IS4_EEEC2B8ue170006Ev, symObjAddr: 0x1380, symBinAddr: 0x10000E8BC, symSize: 0x4C }
  - { offsetInCU: 0xB05C, offset: 0x23D30, size: 0x8, addend: 0x0, symName: __ZNSt3__117__compressed_pairIPNS_6vectorI12DirectedEdgeNS_9allocatorIS2_EEEENS3_IS5_EEEC1B8ue170006IDnNS_18__default_init_tagEEEOT_OT0_, symObjAddr: 0x13CC, symBinAddr: 0x10000E908, symSize: 0x3C }
  - { offsetInCU: 0xB0B3, offset: 0x23D87, size: 0x8, addend: 0x0, symName: __ZNSt3__117__compressed_pairIPNS_6vectorI12DirectedEdgeNS_9allocatorIS2_EEEENS3_IS5_EEEC2B8ue170006IDnNS_18__default_init_tagEEEOT_OT0_, symObjAddr: 0x1414, symBinAddr: 0x10000E944, symSize: 0x40 }
  - { offsetInCU: 0xB10A, offset: 0x23DDE, size: 0x8, addend: 0x0, symName: __ZNSt3__122__compressed_pair_elemINS_9allocatorINS_6vectorI12DirectedEdgeNS1_IS3_EEEEEELi1ELb1EEC2B8ue170006ENS_18__default_init_tagE, symObjAddr: 0x1470, symBinAddr: 0x10000E984, symSize: 0x2C }
  - { offsetInCU: 0xB13D, offset: 0x23E11, size: 0x8, addend: 0x0, symName: __ZNSt3__19allocatorINS_6vectorI12DirectedEdgeNS0_IS2_EEEEEC2B8ue170006Ev, symObjAddr: 0x149C, symBinAddr: 0x10000E9B0, symSize: 0x2C }
  - { offsetInCU: 0xB166, offset: 0x23E3A, size: 0x8, addend: 0x0, symName: __ZNSt3__116__non_trivial_ifILb1ENS_9allocatorINS_6vectorI12DirectedEdgeNS1_IS3_EEEEEEEC2B8ue170006Ev, symObjAddr: 0x14C8, symBinAddr: 0x10000E9DC, symSize: 0x14 }
  - { offsetInCU: 0xB18E, offset: 0x23E62, size: 0x8, addend: 0x0, symName: __ZNSt3__16vectorINS0_I12DirectedEdgeNS_9allocatorIS1_EEEENS2_IS4_EEE8__appendEm, symObjAddr: 0x1A58, symBinAddr: 0x10000E9F0, symSize: 0x108 }
  - { offsetInCU: 0xB1E9, offset: 0x23EBD, size: 0x8, addend: 0x0, symName: __ZNSt3__16vectorINS0_I12DirectedEdgeNS_9allocatorIS1_EEEENS2_IS4_EEE17__destruct_at_endB8ue170006EPS4_, symObjAddr: 0x1B60, symBinAddr: 0x10000EAF8, symSize: 0x4C }
  - { offsetInCU: 0xB22B, offset: 0x23EFF, size: 0x8, addend: 0x0, symName: __ZNSt3__16vectorINS0_I12DirectedEdgeNS_9allocatorIS1_EEEENS2_IS4_EEE18__construct_at_endEm, symObjAddr: 0x1BD4, symBinAddr: 0x10000EB44, symSize: 0xC8 }
  - { offsetInCU: 0xB29B, offset: 0x23F6F, size: 0x8, addend: 0x0, symName: __ZNKSt3__16vectorINS0_I12DirectedEdgeNS_9allocatorIS1_EEEENS2_IS4_EEE11__recommendB8ue170006Em, symObjAddr: 0x1C9C, symBinAddr: 0x10000EC0C, symSize: 0xB4 }
  - { offsetInCU: 0xB2EF, offset: 0x23FC3, size: 0x8, addend: 0x0, symName: __ZNSt3__114__split_bufferINS_6vectorI12DirectedEdgeNS_9allocatorIS2_EEEERNS3_IS5_EEEC1EmmS7_, symObjAddr: 0x1D50, symBinAddr: 0x10000ECC0, symSize: 0x44 }
  - { offsetInCU: 0xB343, offset: 0x24017, size: 0x8, addend: 0x0, symName: __ZNSt3__114__split_bufferINS_6vectorI12DirectedEdgeNS_9allocatorIS2_EEEERNS3_IS5_EEE18__construct_at_endEm, symObjAddr: 0x1D94, symBinAddr: 0x10000ED04, symSize: 0xB4 }
  - { offsetInCU: 0xB387, offset: 0x2405B, size: 0x8, addend: 0x0, symName: __ZNSt3__114__split_bufferINS_6vectorI12DirectedEdgeNS_9allocatorIS2_EEEERNS3_IS5_EEED1Ev, symObjAddr: 0x1F58, symBinAddr: 0x10000EEC8, symSize: 0x2C }
  - { offsetInCU: 0xB3CB, offset: 0x2409F, size: 0x8, addend: 0x0, symName: __ZNSt3__116allocator_traitsINS_9allocatorINS_6vectorI12DirectedEdgeNS1_IS3_EEEEEEE9constructB8ue170006IS5_JEvEEvRS6_PT_DpOT0_, symObjAddr: 0x1FF8, symBinAddr: 0x10000EEF4, symSize: 0x2C }
  - { offsetInCU: 0xB40D, offset: 0x240E1, size: 0x8, addend: 0x0, symName: __ZNSt3__19allocatorINS_6vectorI12DirectedEdgeNS0_IS2_EEEEE9constructB8ue170006IS4_JEEEvPT_DpOT0_, symObjAddr: 0x209C, symBinAddr: 0x10000EF20, symSize: 0x28 }
  - { offsetInCU: 0xB458, offset: 0x2412C, size: 0x8, addend: 0x0, symName: __ZNSt3__114__split_bufferINS_6vectorI12DirectedEdgeNS_9allocatorIS2_EEEERNS3_IS5_EEEC2EmmS7_, symObjAddr: 0x2430, symBinAddr: 0x10000EF48, symSize: 0xE0 }
  - { offsetInCU: 0xB4CA, offset: 0x2419E, size: 0x8, addend: 0x0, symName: __ZNSt3__117__compressed_pairIPNS_6vectorI12DirectedEdgeNS_9allocatorIS2_EEEERNS3_IS5_EEEC1B8ue170006IDnS8_EEOT_OT0_, symObjAddr: 0x2510, symBinAddr: 0x10000F028, symSize: 0x3C }
  - { offsetInCU: 0xB521, offset: 0x241F5, size: 0x8, addend: 0x0, symName: __ZNSt3__114__split_bufferINS_6vectorI12DirectedEdgeNS_9allocatorIS2_EEEERNS3_IS5_EEE7__allocB8ue170006Ev, symObjAddr: 0x258C, symBinAddr: 0x10000F064, symSize: 0x28 }
  - { offsetInCU: 0xB546, offset: 0x2421A, size: 0x8, addend: 0x0, symName: __ZNSt3__114__split_bufferINS_6vectorI12DirectedEdgeNS_9allocatorIS2_EEEERNS3_IS5_EEE9__end_capB8ue170006Ev, symObjAddr: 0x25B4, symBinAddr: 0x10000F08C, symSize: 0x28 }
  - { offsetInCU: 0xB56B, offset: 0x2423F, size: 0x8, addend: 0x0, symName: __ZNSt3__117__compressed_pairIPNS_6vectorI12DirectedEdgeNS_9allocatorIS2_EEEERNS3_IS5_EEEC2B8ue170006IDnS8_EEOT_OT0_, symObjAddr: 0x25DC, symBinAddr: 0x10000F0B4, symSize: 0x48 }
  - { offsetInCU: 0xB5C2, offset: 0x24296, size: 0x8, addend: 0x0, symName: __ZNSt3__122__compressed_pair_elemIRNS_9allocatorINS_6vectorI12DirectedEdgeNS1_IS3_EEEEEELi1ELb0EEC2B8ue170006IS7_vEEOT_, symObjAddr: 0x2624, symBinAddr: 0x10000F0FC, symSize: 0x20 }
  - { offsetInCU: 0xB603, offset: 0x242D7, size: 0x8, addend: 0x0, symName: __ZNSt3__117__compressed_pairIPNS_6vectorI12DirectedEdgeNS_9allocatorIS2_EEEERNS3_IS5_EEE6secondB8ue170006Ev, symObjAddr: 0x2720, symBinAddr: 0x10000F11C, symSize: 0x28 }
  - { offsetInCU: 0xB628, offset: 0x242FC, size: 0x8, addend: 0x0, symName: __ZNSt3__122__compressed_pair_elemIRNS_9allocatorINS_6vectorI12DirectedEdgeNS1_IS3_EEEEEELi1ELb0EE5__getB8ue170006Ev, symObjAddr: 0x2748, symBinAddr: 0x10000F144, symSize: 0x18 }
  - { offsetInCU: 0xB64D, offset: 0x24321, size: 0x8, addend: 0x0, symName: __ZNSt3__117__compressed_pairIPNS_6vectorI12DirectedEdgeNS_9allocatorIS2_EEEERNS3_IS5_EEE5firstB8ue170006Ev, symObjAddr: 0x2760, symBinAddr: 0x10000F15C, symSize: 0x24 }
  - { offsetInCU: 0xB67C, offset: 0x24350, size: 0x8, addend: 0x0, symName: __ZNSt3__114__split_bufferINS_6vectorI12DirectedEdgeNS_9allocatorIS2_EEEERNS3_IS5_EEE21_ConstructTransactionC1B8ue170006EPPS5_m, symObjAddr: 0x2784, symBinAddr: 0x10000F180, symSize: 0x3C }
  - { offsetInCU: 0xB6C1, offset: 0x24395, size: 0x8, addend: 0x0, symName: __ZNSt3__114__split_bufferINS_6vectorI12DirectedEdgeNS_9allocatorIS2_EEEERNS3_IS5_EEE21_ConstructTransactionD1B8ue170006Ev, symObjAddr: 0x27C0, symBinAddr: 0x10000F1BC, symSize: 0x2C }
  - { offsetInCU: 0xB6EA, offset: 0x243BE, size: 0x8, addend: 0x0, symName: __ZNSt3__114__split_bufferINS_6vectorI12DirectedEdgeNS_9allocatorIS2_EEEERNS3_IS5_EEE21_ConstructTransactionC2B8ue170006EPPS5_m, symObjAddr: 0x27EC, symBinAddr: 0x10000F1E8, symSize: 0x4C }
  - { offsetInCU: 0xB72F, offset: 0x24403, size: 0x8, addend: 0x0, symName: __ZNSt3__114__split_bufferINS_6vectorI12DirectedEdgeNS_9allocatorIS2_EEEERNS3_IS5_EEE21_ConstructTransactionD2B8ue170006Ev, symObjAddr: 0x2838, symBinAddr: 0x10000F234, symSize: 0x20 }
  - { offsetInCU: 0xB758, offset: 0x2442C, size: 0x8, addend: 0x0, symName: __ZNSt3__129_AllocatorDestroyRangeReverseINS_9allocatorINS_6vectorI12DirectedEdgeNS1_IS3_EEEEEENS_16reverse_iteratorIPS5_EEEC1B8ue170006ERS6_RS9_SC_, symObjAddr: 0x2B20, symBinAddr: 0x10000F408, symSize: 0x44 }
  - { offsetInCU: 0xB7AE, offset: 0x24482, size: 0x8, addend: 0x0, symName: __ZNSt3__116allocator_traitsINS_9allocatorINS_6vectorI12DirectedEdgeNS1_IS3_EEEEEEE9constructB8ue170006IS5_JS5_EvEEvRS6_PT_DpOT0_, symObjAddr: 0x2BAC, symBinAddr: 0x10000F44C, symSize: 0x34 }
  - { offsetInCU: 0xB805, offset: 0x244D9, size: 0x8, addend: 0x0, symName: __ZNSt3__128__exception_guard_exceptionsINS_29_AllocatorDestroyRangeReverseINS_9allocatorINS_6vectorI12DirectedEdgeNS2_IS4_EEEEEENS_16reverse_iteratorIPS6_EEEEE10__completeB8ue170006Ev, symObjAddr: 0x2C4C, symBinAddr: 0x10000F480, symSize: 0x1C }
  - { offsetInCU: 0xB82A, offset: 0x244FE, size: 0x8, addend: 0x0, symName: __ZNSt3__128__exception_guard_exceptionsINS_29_AllocatorDestroyRangeReverseINS_9allocatorINS_6vectorI12DirectedEdgeNS2_IS4_EEEEEENS_16reverse_iteratorIPS6_EEEEED1B8ue170006Ev, symObjAddr: 0x2C68, symBinAddr: 0x10000F49C, symSize: 0x2C }
  - { offsetInCU: 0xB853, offset: 0x24527, size: 0x8, addend: 0x0, symName: __ZNSt3__128__exception_guard_exceptionsINS_29_AllocatorDestroyRangeReverseINS_9allocatorINS_6vectorI12DirectedEdgeNS2_IS4_EEEEEENS_16reverse_iteratorIPS6_EEEEEC1B8ue170006ESB_, symObjAddr: 0x2C94, symBinAddr: 0x10000F4C8, symSize: 0x34 }
  - { offsetInCU: 0xB88B, offset: 0x2455F, size: 0x8, addend: 0x0, symName: __ZNSt3__128__exception_guard_exceptionsINS_29_AllocatorDestroyRangeReverseINS_9allocatorINS_6vectorI12DirectedEdgeNS2_IS4_EEEEEENS_16reverse_iteratorIPS6_EEEEEC2B8ue170006ESB_, symObjAddr: 0x2CC8, symBinAddr: 0x10000F4FC, symSize: 0x30 }
  - { offsetInCU: 0xB8C3, offset: 0x24597, size: 0x8, addend: 0x0, symName: __ZNSt3__129_AllocatorDestroyRangeReverseINS_9allocatorINS_6vectorI12DirectedEdgeNS1_IS3_EEEEEENS_16reverse_iteratorIPS5_EEEC2B8ue170006ERS6_RS9_SC_, symObjAddr: 0x2CF8, symBinAddr: 0x10000F52C, symSize: 0x38 }
  - { offsetInCU: 0xB919, offset: 0x245ED, size: 0x8, addend: 0x0, symName: __ZNSt3__19allocatorINS_6vectorI12DirectedEdgeNS0_IS2_EEEEE9constructB8ue170006IS4_JS4_EEEvPT_DpOT0_, symObjAddr: 0x2D30, symBinAddr: 0x10000F564, symSize: 0x30 }
  - { offsetInCU: 0xB96E, offset: 0x24642, size: 0x8, addend: 0x0, symName: __ZNSt3__16vectorI12DirectedEdgeNS_9allocatorIS1_EEEC1B8ue170006EOS4_, symObjAddr: 0x2D60, symBinAddr: 0x10000F594, symSize: 0x34 }
  - { offsetInCU: 0xB9A8, offset: 0x2467C, size: 0x8, addend: 0x0, symName: __ZNSt3__16vectorI12DirectedEdgeNS_9allocatorIS1_EEEC2B8ue170006EOS4_, symObjAddr: 0x2D94, symBinAddr: 0x10000F5C8, symSize: 0xC4 }
  - { offsetInCU: 0xB9E2, offset: 0x246B6, size: 0x8, addend: 0x0, symName: __ZNSt3__128__exception_guard_exceptionsINS_29_AllocatorDestroyRangeReverseINS_9allocatorINS_6vectorI12DirectedEdgeNS2_IS4_EEEEEENS_16reverse_iteratorIPS6_EEEEED2B8ue170006Ev, symObjAddr: 0x3028, symBinAddr: 0x10000F68C, symSize: 0x50 }
  - { offsetInCU: 0xBA0B, offset: 0x246DF, size: 0x8, addend: 0x0, symName: __ZNKSt3__129_AllocatorDestroyRangeReverseINS_9allocatorINS_6vectorI12DirectedEdgeNS1_IS3_EEEEEENS_16reverse_iteratorIPS5_EEEclB8ue170006Ev, symObjAddr: 0x3078, symBinAddr: 0x10000F6DC, symSize: 0xB4 }
  - { offsetInCU: 0xBA31, offset: 0x24705, size: 0x8, addend: 0x0, symName: __ZNSt3__116reverse_iteratorINS0_IPNS_6vectorI12DirectedEdgeNS_9allocatorIS2_EEEEEEEC1B8ue170006ES7_, symObjAddr: 0x319C, symBinAddr: 0x10000F800, symSize: 0x3C }
  - { offsetInCU: 0xBA68, offset: 0x2473C, size: 0x8, addend: 0x0, symName: __ZNSt3__116reverse_iteratorINS0_IPNS_6vectorI12DirectedEdgeNS_9allocatorIS2_EEEEEEEppB8ue170006Ev, symObjAddr: 0x325C, symBinAddr: 0x10000F8C0, symSize: 0x30 }
  - { offsetInCU: 0xBA8D, offset: 0x24761, size: 0x8, addend: 0x0, symName: __ZNKSt3__116reverse_iteratorINS0_IPNS_6vectorI12DirectedEdgeNS_9allocatorIS2_EEEEEEE4baseB8ue170006Ev, symObjAddr: 0x328C, symBinAddr: 0x10000F8F0, symSize: 0x24 }
  - { offsetInCU: 0xBAB7, offset: 0x2478B, size: 0x8, addend: 0x0, symName: __ZNSt3__119__to_address_helperINS_16reverse_iteratorINS1_IPNS_6vectorI12DirectedEdgeNS_9allocatorIS3_EEEEEEEEvE6__callB8ue170006ERKS9_, symObjAddr: 0x32B0, symBinAddr: 0x10000F914, symSize: 0x38 }
  - { offsetInCU: 0xBADA, offset: 0x247AE, size: 0x8, addend: 0x0, symName: __ZNKSt3__116reverse_iteratorINS0_IPNS_6vectorI12DirectedEdgeNS_9allocatorIS2_EEEEEEEptB8ue170006Ev, symObjAddr: 0x32E8, symBinAddr: 0x10000F94C, symSize: 0x24 }
  - { offsetInCU: 0xBAFF, offset: 0x247D3, size: 0x8, addend: 0x0, symName: __ZNKSt3__116reverse_iteratorINS0_IPNS_6vectorI12DirectedEdgeNS_9allocatorIS2_EEEEEEEdeB8ue170006Ev, symObjAddr: 0x330C, symBinAddr: 0x10000F970, symSize: 0x34 }
  - { offsetInCU: 0xBB32, offset: 0x24806, size: 0x8, addend: 0x0, symName: __ZNSt3__116reverse_iteratorIPNS_6vectorI12DirectedEdgeNS_9allocatorIS2_EEEEEmmB8ue170006Ev, symObjAddr: 0x3340, symBinAddr: 0x10000F9A4, symSize: 0x20 }
  - { offsetInCU: 0xBB57, offset: 0x2482B, size: 0x8, addend: 0x0, symName: __ZNSt3__116reverse_iteratorINS0_IPNS_6vectorI12DirectedEdgeNS_9allocatorIS2_EEEEEEEC2B8ue170006ES7_, symObjAddr: 0x3360, symBinAddr: 0x10000F9C4, symSize: 0x2C }
  - { offsetInCU: 0xBB8E, offset: 0x24862, size: 0x8, addend: 0x0, symName: __ZNSt3__114__split_bufferINS_6vectorI12DirectedEdgeNS_9allocatorIS2_EEEERNS3_IS5_EEED2Ev, symObjAddr: 0x33B4, symBinAddr: 0x10000F9F0, symSize: 0x8C }
  - { offsetInCU: 0xBBB9, offset: 0x2488D, size: 0x8, addend: 0x0, symName: __ZNSt3__114__split_bufferINS_6vectorI12DirectedEdgeNS_9allocatorIS2_EEEERNS3_IS5_EEE5clearB8ue170006Ev, symObjAddr: 0x3440, symBinAddr: 0x10000FA7C, symSize: 0x28 }
  - { offsetInCU: 0xBBDE, offset: 0x248B2, size: 0x8, addend: 0x0, symName: __ZNKSt3__114__split_bufferINS_6vectorI12DirectedEdgeNS_9allocatorIS2_EEEERNS3_IS5_EEE8capacityB8ue170006Ev, symObjAddr: 0x3468, symBinAddr: 0x10000FAA4, symSize: 0x40 }
  - { offsetInCU: 0xBC03, offset: 0x248D7, size: 0x8, addend: 0x0, symName: __ZNSt3__114__split_bufferINS_6vectorI12DirectedEdgeNS_9allocatorIS2_EEEERNS3_IS5_EEE17__destruct_at_endB8ue170006EPS5_, symObjAddr: 0x34A8, symBinAddr: 0x10000FAE4, symSize: 0x2C }
  - { offsetInCU: 0xBC35, offset: 0x24909, size: 0x8, addend: 0x0, symName: __ZNSt3__114__split_bufferINS_6vectorI12DirectedEdgeNS_9allocatorIS2_EEEERNS3_IS5_EEE17__destruct_at_endB8ue170006EPS5_NS_17integral_constantIbLb0EEE, symObjAddr: 0x34D4, symBinAddr: 0x10000FB10, symSize: 0x80 }
  - { offsetInCU: 0xBC74, offset: 0x24948, size: 0x8, addend: 0x0, symName: __ZNKSt3__114__split_bufferINS_6vectorI12DirectedEdgeNS_9allocatorIS2_EEEERNS3_IS5_EEE9__end_capB8ue170006Ev, symObjAddr: 0x3554, symBinAddr: 0x10000FB90, symSize: 0x28 }
  - { offsetInCU: 0xBC99, offset: 0x2496D, size: 0x8, addend: 0x0, symName: __ZNKSt3__117__compressed_pairIPNS_6vectorI12DirectedEdgeNS_9allocatorIS2_EEEERNS3_IS5_EEE5firstB8ue170006Ev, symObjAddr: 0x357C, symBinAddr: 0x10000FBB8, symSize: 0x24 }
  - { offsetInCU: 0xBCBE, offset: 0x24992, size: 0x8, addend: 0x0, symName: __ZNKSt3__16vectorINS0_I12DirectedEdgeNS_9allocatorIS1_EEEENS2_IS4_EEE17__annotate_shrinkB8ue170006Em, symObjAddr: 0x35A0, symBinAddr: 0x10000FBDC, symSize: 0xD0 }
  - { offsetInCU: 0xBCF2, offset: 0x249C6, size: 0x8, addend: 0x0, symName: __ZNSt3__19basic_iosIcNS_11char_traitsIcEEEC2B8ue170006Ev, symObjAddr: 0x3670, symBinAddr: 0x10000FCAC, symSize: 0x44 }
  - { offsetInCU: 0xBD1B, offset: 0x249EF, size: 0x8, addend: 0x0, symName: __ZNSt3__113basic_istreamIcNS_11char_traitsIcEEEC2B8ue170006EPNS_15basic_streambufIcS2_EE, symObjAddr: 0x36B4, symBinAddr: 0x10000FCF0, symSize: 0x64 }
  - { offsetInCU: 0xBD5D, offset: 0x24A31, size: 0x8, addend: 0x0, symName: __ZNSt3__113basic_filebufIcNS_11char_traitsIcEEE4openERKNS_12basic_stringIcS2_NS_9allocatorIcEEEEj, symObjAddr: 0x3718, symBinAddr: 0x10000FD54, symSize: 0x44 }
  - { offsetInCU: 0xBDA0, offset: 0x24A74, size: 0x8, addend: 0x0, symName: __ZNSt3__19basic_iosIcNS_11char_traitsIcEEE8setstateB8ue170006Ej, symObjAddr: 0x375C, symBinAddr: 0x10000FD98, symSize: 0x2C }
  - { offsetInCU: 0xBDD4, offset: 0x24AA8, size: 0x8, addend: 0x0, symName: __ZNSt3__18ios_baseC2B8ue170006Ev, symObjAddr: 0x3788, symBinAddr: 0x10000FDC4, symSize: 0x24 }
  - { offsetInCU: 0xBDFC, offset: 0x24AD0, size: 0x8, addend: 0x0, symName: __ZNSt3__19basic_iosIcNS_11char_traitsIcEEE4initB8ue170006EPNS_15basic_streambufIcS2_EE, symObjAddr: 0x37AC, symBinAddr: 0x10000FDE8, symSize: 0x44 }
  - { offsetInCU: 0xBE32, offset: 0x24B06, size: 0x8, addend: 0x0, symName: __ZNSt3__111char_traitsIcE3eofB8ue170006Ev, symObjAddr: 0x37F0, symBinAddr: 0x10000FE2C, symSize: 0x8 }
  - { offsetInCU: 0xBE46, offset: 0x24B1A, size: 0x8, addend: 0x0, symName: __ZNKSt3__112basic_stringIcNS_11char_traitsIcEENS_9allocatorIcEEE5c_strB8ue170006Ev, symObjAddr: 0x37F8, symBinAddr: 0x10000FE34, symSize: 0x24 }
  - { offsetInCU: 0xBE6B, offset: 0x24B3F, size: 0x8, addend: 0x0, symName: __ZNKSt3__112basic_stringIcNS_11char_traitsIcEENS_9allocatorIcEEE4dataB8ue170006Ev, symObjAddr: 0x381C, symBinAddr: 0x10000FE58, symSize: 0x28 }
  - { offsetInCU: 0xBE90, offset: 0x24B64, size: 0x8, addend: 0x0, symName: __ZNKSt3__112basic_stringIcNS_11char_traitsIcEENS_9allocatorIcEEE13__get_pointerB8ue170006Ev, symObjAddr: 0x3858, symBinAddr: 0x10000FE94, symSize: 0x54 }
  - { offsetInCU: 0xBEB5, offset: 0x24B89, size: 0x8, addend: 0x0, symName: __ZNKSt3__112basic_stringIcNS_11char_traitsIcEENS_9allocatorIcEEE9__is_longB8ue170006Ev, symObjAddr: 0x38AC, symBinAddr: 0x10000FEE8, symSize: 0x38 }
  - { offsetInCU: 0xBEDA, offset: 0x24BAE, size: 0x8, addend: 0x0, symName: __ZNKSt3__112basic_stringIcNS_11char_traitsIcEENS_9allocatorIcEEE18__get_long_pointerB8ue170006Ev, symObjAddr: 0x38E4, symBinAddr: 0x10000FF20, symSize: 0x28 }
  - { offsetInCU: 0xBEFF, offset: 0x24BD3, size: 0x8, addend: 0x0, symName: __ZNKSt3__112basic_stringIcNS_11char_traitsIcEENS_9allocatorIcEEE19__get_short_pointerB8ue170006Ev, symObjAddr: 0x390C, symBinAddr: 0x10000FF48, symSize: 0x28 }
  - { offsetInCU: 0xBF24, offset: 0x24BF8, size: 0x8, addend: 0x0, symName: __ZNKSt3__117__compressed_pairINS_12basic_stringIcNS_11char_traitsIcEENS_9allocatorIcEEE5__repES5_E5firstB8ue170006Ev, symObjAddr: 0x3934, symBinAddr: 0x10000FF70, symSize: 0x24 }
  - { offsetInCU: 0xBF49, offset: 0x24C1D, size: 0x8, addend: 0x0, symName: __ZNKSt3__122__compressed_pair_elemINS_12basic_stringIcNS_11char_traitsIcEENS_9allocatorIcEEE5__repELi0ELb0EE5__getB8ue170006Ev, symObjAddr: 0x3958, symBinAddr: 0x10000FF94, symSize: 0x14 }
  - { offsetInCU: 0xBF6E, offset: 0x24C42, size: 0x8, addend: 0x0, symName: __ZNSt3__114pointer_traitsIPKcE10pointer_toB8ue170006ERS1_, symObjAddr: 0x396C, symBinAddr: 0x10000FFA8, symSize: 0x14 }
  - { offsetInCU: 0xBF90, offset: 0x24C64, size: 0x8, addend: 0x0, symName: __ZNSt3__18ios_base8setstateB8ue170006Ej, symObjAddr: 0x3980, symBinAddr: 0x10000FFBC, symSize: 0x34 }
  - { offsetInCU: 0xBFC5, offset: 0x24C99, size: 0x8, addend: 0x0, symName: __ZNSt3__16vectorINS0_I12DirectedEdgeNS_9allocatorIS1_EEEENS2_IS4_EEE8__appendEmRKS4_, symObjAddr: 0x3F54, symBinAddr: 0x10000FFF0, symSize: 0x114 }
  - { offsetInCU: 0xC02E, offset: 0x24D02, size: 0x8, addend: 0x0, symName: __ZNSt3__16vectorINS0_I12DirectedEdgeNS_9allocatorIS1_EEEENS2_IS4_EEE18__construct_at_endEmRKS4_, symObjAddr: 0x4068, symBinAddr: 0x100010104, symSize: 0xD0 }
  - { offsetInCU: 0xC0AD, offset: 0x24D81, size: 0x8, addend: 0x0, symName: __ZNSt3__114__split_bufferINS_6vectorI12DirectedEdgeNS_9allocatorIS2_EEEERNS3_IS5_EEE18__construct_at_endEmRKS5_, symObjAddr: 0x4138, symBinAddr: 0x1000101D4, symSize: 0xBC }
  - { offsetInCU: 0xC0FF, offset: 0x24DD3, size: 0x8, addend: 0x0, symName: __ZNSt3__116allocator_traitsINS_9allocatorINS_6vectorI12DirectedEdgeNS1_IS3_EEEEEEE9constructB8ue170006IS5_JRKS5_EvEEvRS6_PT_DpOT0_, symObjAddr: 0x41F4, symBinAddr: 0x100010290, symSize: 0x34 }
  - { offsetInCU: 0xC156, offset: 0x24E2A, size: 0x8, addend: 0x0, symName: __ZNSt3__19allocatorINS_6vectorI12DirectedEdgeNS0_IS2_EEEEE9constructB8ue170006IS4_JRKS4_EEEvPT_DpOT0_, symObjAddr: 0x4228, symBinAddr: 0x1000102C4, symSize: 0x30 }
  - { offsetInCU: 0xC1AB, offset: 0x24E7F, size: 0x8, addend: 0x0, symName: __ZNKSt3__19basic_iosIcNS_11char_traitsIcEEE4failB8ue170006Ev, symObjAddr: 0x4258, symBinAddr: 0x1000102F4, symSize: 0x28 }
  - { offsetInCU: 0xC1D0, offset: 0x24EA4, size: 0x8, addend: 0x0, symName: __ZNKSt3__18ios_base4failB8ue170006Ev, symObjAddr: 0x4280, symBinAddr: 0x10001031C, symSize: 0x28 }
  - { offsetInCU: 0xC215, offset: 0x24EE9, size: 0x8, addend: 0x0, symName: __ZNKSt3__16vectorI12DirectedEdgeNS_9allocatorIS1_EEE11__make_iterB8ue170006EPKS1_, symObjAddr: 0x6010, symBinAddr: 0x100010344, symSize: 0x30 }
  - { offsetInCU: 0xC249, offset: 0x24F1D, size: 0x8, addend: 0x0, symName: __ZNSt3__111__wrap_iterIPK12DirectedEdgeEC1B8ue170006ES3_, symObjAddr: 0x6040, symBinAddr: 0x100010374, symSize: 0x34 }
  - { offsetInCU: 0xC280, offset: 0x24F54, size: 0x8, addend: 0x0, symName: __ZNSt3__111__wrap_iterIPK12DirectedEdgeEC2B8ue170006ES3_, symObjAddr: 0x6074, symBinAddr: 0x1000103A8, symSize: 0x20 }
  - { offsetInCU: 0xC2C1, offset: 0x24F95, size: 0x8, addend: 0x0, symName: '__ZZN19EdgeWeightedDigraph8del_EdgeE12DirectedEdgeENK3$_0clERKS0_', symObjAddr: 0x61B8, symBinAddr: 0x100010448, symSize: 0xD0 }
  - { offsetInCU: 0xC2F8, offset: 0x24FCC, size: 0x8, addend: 0x0, symName: __ZNSt3__16vectorI12DirectedEdgeNS_9allocatorIS1_EEE17__destruct_at_endB8ue170006EPS1_, symObjAddr: 0x6300, symBinAddr: 0x100010560, symSize: 0x4C }
  - { offsetInCU: 0xC33B, offset: 0x2500F, size: 0x8, addend: 0x0, symName: __ZNKSt3__16vectorI12DirectedEdgeNS_9allocatorIS1_EEE17__annotate_shrinkB8ue170006Em, symObjAddr: 0x63D4, symBinAddr: 0x100010634, symSize: 0xB4 }
  - { offsetInCU: 0xC379, offset: 0x2504D, size: 0x8, addend: 0x0, symName: __ZNKSt3__114__move_trivialclB8ue170006I12DirectedEdgeS2_Li0EEENS_4pairIPT_PT0_EES5_S5_S7_, symObjAddr: 0x6624, symBinAddr: 0x100010824, symSize: 0x48 }
  - { offsetInCU: 0x874D, offset: 0x2D8A0, size: 0x8, addend: 0x0, symName: __ZNSt3__1neB8ue170006IP4EdgeEEbRKNS_11__wrap_iterIT_EES7_, symObjAddr: 0x960, symBinAddr: 0x100010FF4, symSize: 0x34 }
  - { offsetInCU: 0x8790, offset: 0x2D8E3, size: 0x8, addend: 0x0, symName: __ZNSt3__1neB8ue170006IPK4EdgeEEbRKNS_11__wrap_iterIT_EES8_, symObjAddr: 0xE44, symBinAddr: 0x1000114D8, symSize: 0x34 }
  - { offsetInCU: 0x87D3, offset: 0x2D926, size: 0x8, addend: 0x0, symName: __ZNSt3__1eqB8ue170006IP4EdgeEEbRKNS_11__wrap_iterIT_EES7_, symObjAddr: 0x14AC, symBinAddr: 0x100011AB4, symSize: 0x48 }
  - { offsetInCU: 0x8816, offset: 0x2D969, size: 0x8, addend: 0x0, symName: __ZNSt3__1eqB8ue170006IPK4EdgeEEbRKNS_11__wrap_iterIT_EES8_, symObjAddr: 0x158C, symBinAddr: 0x100011B94, symSize: 0x48 }
  - { offsetInCU: 0x8859, offset: 0x2D9AC, size: 0x8, addend: 0x0, symName: '__ZNSt3__19remove_ifB8ue170006INS_11__wrap_iterIP4EdgeEEZZN17EdgeWeightedGraph8del_EdgeES2_ENK3$_0clERNS_6vectorIS2_NS_9allocatorIS2_EEEES2_EUlRKS2_E_EET_SF_SF_T0_', symObjAddr: 0x15EC, symBinAddr: 0x100011BF4, symSize: 0x104 }
  - { offsetInCU: 0x88D0, offset: 0x2DA23, size: 0x8, addend: 0x0, symName: '__ZNSt3__17find_ifB8ue170006INS_11__wrap_iterIP4EdgeEERZZN17EdgeWeightedGraph8del_EdgeES2_ENK3$_0clERNS_6vectorIS2_NS_9allocatorIS2_EEEES2_EUlRKS2_E_EET_SG_SG_T0_', symObjAddr: 0x17FC, symBinAddr: 0x100011E04, symSize: 0x80 }
  - { offsetInCU: 0x892B, offset: 0x2DA7E, size: 0x8, addend: 0x0, symName: __ZNSt3__1miB8ue170006IPK4EdgePS1_EEDTmicldtfp_4baseEcldtfp0_4baseEERKNS_11__wrap_iterIT_EERKNS6_IT0_EE, symObjAddr: 0x1990, symBinAddr: 0x100011F98, symSize: 0x48 }
  - { offsetInCU: 0x8977, offset: 0x2DACA, size: 0x8, addend: 0x0, symName: __ZNSt3__14moveB8ue170006IP4EdgeS2_EET0_T_S4_S3_, symObjAddr: 0x1A24, symBinAddr: 0x10001202C, symSize: 0x40 }
  - { offsetInCU: 0x89D1, offset: 0x2DB24, size: 0x8, addend: 0x0, symName: __ZNSt3__1miB8ue170006IPK4EdgeS3_EEDTmicldtfp_4baseEcldtfp0_4baseEERKNS_11__wrap_iterIT_EERKNS5_IT0_EE, symObjAddr: 0x1A64, symBinAddr: 0x10001206C, symSize: 0x48 }
  - { offsetInCU: 0x8A1D, offset: 0x2DB70, size: 0x8, addend: 0x0, symName: __ZNSt3__112__to_addressB8ue170006I4EdgeEEPT_S3_, symObjAddr: 0x1C98, symBinAddr: 0x1000122A0, symSize: 0x14 }
  - { offsetInCU: 0x8A52, offset: 0x2DBA5, size: 0x8, addend: 0x0, symName: __ZNSt3__16__moveB8ue170006INS_17_ClassicAlgPolicyEP4EdgeS3_S3_EENS_4pairIT0_T2_EES5_T1_S6_, symObjAddr: 0x1DEC, symBinAddr: 0x1000123E8, symSize: 0x44 }
  - { offsetInCU: 0x8ABE, offset: 0x2DC11, size: 0x8, addend: 0x0, symName: __ZNSt3__123__dispatch_copy_or_moveB8ue170006INS_17_ClassicAlgPolicyENS_11__move_loopIS1_EENS_14__move_trivialEP4EdgeS6_S6_EENS_4pairIT2_T4_EES8_T3_S9_, symObjAddr: 0x1E30, symBinAddr: 0x10001242C, symSize: 0x44 }
  - { offsetInCU: 0x8B3C, offset: 0x2DC8F, size: 0x8, addend: 0x0, symName: __ZNSt3__121__unwrap_and_dispatchB8ue170006INS_10__overloadINS_11__move_loopINS_17_ClassicAlgPolicyEEENS_14__move_trivialEEEP4EdgeS8_S8_Li0EEENS_4pairIT0_T2_EESA_T1_SB_, symObjAddr: 0x1E74, symBinAddr: 0x100012470, symSize: 0xB4 }
  - { offsetInCU: 0x8BCA, offset: 0x2DD1D, size: 0x8, addend: 0x0, symName: __ZNSt3__114__unwrap_rangeB8ue170006IP4EdgeS2_EENS_4pairIT0_S4_EET_S6_, symObjAddr: 0x1F28, symBinAddr: 0x100012524, symSize: 0x60 }
  - { offsetInCU: 0x8D5F, offset: 0x2DEB2, size: 0x8, addend: 0x0, symName: __ZNSt3__113__unwrap_iterB8ue170006IP4EdgeNS_18__unwrap_iter_implIS2_Lb1EEELi0EEEDTclsrT0_8__unwrapclsr3stdE7declvalIT_EEEES6_, symObjAddr: 0x1FD0, symBinAddr: 0x1000125CC, symSize: 0x24 }
  - { offsetInCU: 0x8DA3, offset: 0x2DEF6, size: 0x8, addend: 0x0, symName: __ZNSt3__19make_pairB8ue170006IP4EdgeS2_EENS_4pairINS_18__unwrap_ref_decayIT_E4typeENS4_IT0_E4typeEEEOS5_OS8_, symObjAddr: 0x1FF4, symBinAddr: 0x1000125F0, symSize: 0x38 }
  - { offsetInCU: 0x8DF2, offset: 0x2DF45, size: 0x8, addend: 0x0, symName: __ZNSt3__114__rewrap_rangeB8ue170006IP4EdgeS2_EET_S3_T0_, symObjAddr: 0x202C, symBinAddr: 0x100012628, symSize: 0x2C }
  - { offsetInCU: 0x8E3E, offset: 0x2DF91, size: 0x8, addend: 0x0, symName: __ZNSt3__113__rewrap_iterB8ue170006IP4EdgeS2_NS_18__unwrap_iter_implIS2_Lb1EEEEET_S5_T0_, symObjAddr: 0x2058, symBinAddr: 0x100012654, symSize: 0x3C }
  - { offsetInCU: 0x8E93, offset: 0x2DFE6, size: 0x8, addend: 0x0, symName: __ZNSt3__119__copy_trivial_implB8ue170006I4EdgeS1_EENS_4pairIPT_PT0_EES4_S4_S6_, symObjAddr: 0x2094, symBinAddr: 0x100012690, symSize: 0x80 }
  - { offsetInCU: 0x8EFB, offset: 0x2E04E, size: 0x8, addend: 0x0, symName: __ZNSt3__119__constexpr_memmoveB8ue170006I4EdgeS1_Li0EEEPT_S3_PT0_NS_15__element_countE, symObjAddr: 0x2114, symBinAddr: 0x100012710, symSize: 0x64 }
  - { offsetInCU: 0x8F69, offset: 0x2E0BC, size: 0x8, addend: 0x0, symName: __ZNSt3__19make_pairB8ue170006IRP4EdgeS2_EENS_4pairINS_18__unwrap_ref_decayIT_E4typeENS5_IT0_E4typeEEEOS6_OS9_, symObjAddr: 0x2178, symBinAddr: 0x100012774, symSize: 0x38 }
  - { offsetInCU: 0x900B, offset: 0x2E15E, size: 0x8, addend: 0x0, symName: __ZNSt3__112__to_addressB8ue170006INS_6vectorI4EdgeNS_9allocatorIS2_EEEEEEPT_S7_, symObjAddr: 0x2860, symBinAddr: 0x100012E5C, symSize: 0x14 }
  - { offsetInCU: 0x9040, offset: 0x2E193, size: 0x8, addend: 0x0, symName: __ZNSt3__119__allocate_at_leastB8ue170006INS_9allocatorINS_6vectorI4EdgeNS1_IS3_EEEEEEEENS_19__allocation_resultINS_16allocator_traitsIT_E7pointerEEERS9_m, symObjAddr: 0x3558, symBinAddr: 0x1000138A4, symSize: 0x40 }
  - { offsetInCU: 0x9083, offset: 0x2E1D6, size: 0x8, addend: 0x0, symName: __ZNSt3__142__uninitialized_allocator_move_if_noexceptB8ue170006INS_9allocatorINS_6vectorI4EdgeNS1_IS3_EEEEEENS_16reverse_iteratorIPS5_EES9_S9_EET2_RT_T0_T1_SA_, symObjAddr: 0x3864, symBinAddr: 0x100013B30, symSize: 0x12C }
  - { offsetInCU: 0x9123, offset: 0x2E276, size: 0x8, addend: 0x0, symName: __ZNSt3__14swapB8ue170006IPNS_6vectorI4EdgeNS_9allocatorIS2_EEEEEENS_9enable_ifIXaasr21is_move_constructibleIT_EE5valuesr18is_move_assignableIS8_EE5valueEvE4typeERS8_SB_, symObjAddr: 0x39DC, symBinAddr: 0x100013CA8, symSize: 0x3C }
  - { offsetInCU: 0x9174, offset: 0x2E2C7, size: 0x8, addend: 0x0, symName: __ZNSt3__122__make_exception_guardB8ue170006INS_29_AllocatorDestroyRangeReverseINS_9allocatorINS_6vectorI4EdgeNS2_IS4_EEEEEENS_16reverse_iteratorIPS6_EEEEEENS_28__exception_guard_exceptionsIT_EESD_, symObjAddr: 0x3AE0, symBinAddr: 0x100013DAC, symSize: 0x4C }
  - { offsetInCU: 0x91AA, offset: 0x2E2FD, size: 0x8, addend: 0x0, symName: __ZNSt3__1neB8ue170006IPNS_6vectorI4EdgeNS_9allocatorIS2_EEEES6_EEbRKNS_16reverse_iteratorIT_EERKNS7_IT0_EE, symObjAddr: 0x3B70, symBinAddr: 0x100013E3C, symSize: 0x48 }
  - { offsetInCU: 0x91F6, offset: 0x2E349, size: 0x8, addend: 0x0, symName: __ZNSt3__112__to_addressB8ue170006INS_16reverse_iteratorIPNS_6vectorI4EdgeNS_9allocatorIS3_EEEEEEvEEu7__decayIDTclsr19__to_address_helperIT_EE6__callclsr3stdE7declvalIRKS9_EEEEESB_, symObjAddr: 0x3BEC, symBinAddr: 0x100013EB8, symSize: 0x24 }
  - { offsetInCU: 0x9255, offset: 0x2E3A8, size: 0x8, addend: 0x0, symName: __ZNSt3__119__allocator_destroyB8ue170006INS_9allocatorINS_6vectorI4EdgeNS1_IS3_EEEEEENS_16reverse_iteratorINS7_IPS5_EEEESA_EEvRT_T0_T1_, symObjAddr: 0x40D8, symBinAddr: 0x1000143A4, symSize: 0x70 }
  - { offsetInCU: 0x92BA, offset: 0x2E40D, size: 0x8, addend: 0x0, symName: __ZNSt3__1neB8ue170006INS_16reverse_iteratorIPNS_6vectorI4EdgeNS_9allocatorIS3_EEEEEES8_EEbRKNS1_IT_EERKNS1_IT0_EE, symObjAddr: 0x4184, symBinAddr: 0x100014450, symSize: 0x60 }
  - { offsetInCU: 0x9306, offset: 0x2E459, size: 0x8, addend: 0x0, symName: __ZNSt3__112__to_addressB8ue170006INS_16reverse_iteratorINS1_IPNS_6vectorI4EdgeNS_9allocatorIS3_EEEEEEEEvEEu7__decayIDTclsr19__to_address_helperIT_EE6__callclsr3stdE7declvalIRKSA_EEEEESC_, symObjAddr: 0x41E4, symBinAddr: 0x1000144B0, symSize: 0x24 }
  - { offsetInCU: 0x9365, offset: 0x2E4B8, size: 0x8, addend: 0x0, symName: __ZNSt3__119__allocate_at_leastB8ue170006INS_9allocatorI4EdgeEEEENS_19__allocation_resultINS_16allocator_traitsIT_E7pointerEEERS6_m, symObjAddr: 0x574C, symBinAddr: 0x100015684, symSize: 0x40 }
  - { offsetInCU: 0x93A8, offset: 0x2E4FB, size: 0x8, addend: 0x0, symName: __ZNSt3__142__uninitialized_allocator_move_if_noexceptB8ue170006INS_9allocatorI4EdgeEENS_16reverse_iteratorIPS2_EES6_S2_vEET1_RT_T0_SA_S7_, symObjAddr: 0x5900, symBinAddr: 0x100015838, symSize: 0x78 }
  - { offsetInCU: 0x9425, offset: 0x2E578, size: 0x8, addend: 0x0, symName: __ZNSt3__14swapB8ue170006IP4EdgeEENS_9enable_ifIXaasr21is_move_constructibleIT_EE5valuesr18is_move_assignableIS4_EE5valueEvE4typeERS4_S7_, symObjAddr: 0x59C4, symBinAddr: 0x1000158FC, symSize: 0x3C }
  - { offsetInCU: 0x9476, offset: 0x2E5C9, size: 0x8, addend: 0x0, symName: __ZNSt3__14moveB8ue170006INS_16reverse_iteratorIP4EdgeEES4_EET0_T_S6_S5_, symObjAddr: 0x5AAC, symBinAddr: 0x1000159E4, symSize: 0x78 }
  - { offsetInCU: 0x94D0, offset: 0x2E623, size: 0x8, addend: 0x0, symName: __ZNSt3__16__moveB8ue170006INS_17_ClassicAlgPolicyENS_16reverse_iteratorIP4EdgeEES5_S5_EENS_4pairIT0_T2_EES7_T1_S8_, symObjAddr: 0x5B24, symBinAddr: 0x100015A5C, symSize: 0x64 }
  - { offsetInCU: 0x953C, offset: 0x2E68F, size: 0x8, addend: 0x0, symName: __ZNSt3__123__dispatch_copy_or_moveB8ue170006INS_17_ClassicAlgPolicyENS_11__move_loopIS1_EENS_14__move_trivialENS_16reverse_iteratorIP4EdgeEES8_S8_EENS_4pairIT2_T4_EESA_T3_SB_, symObjAddr: 0x5B88, symBinAddr: 0x100015AC0, symSize: 0x64 }
  - { offsetInCU: 0x95BA, offset: 0x2E70D, size: 0x8, addend: 0x0, symName: __ZNSt3__121__unwrap_and_dispatchB8ue170006INS_10__overloadINS_11__move_loopINS_17_ClassicAlgPolicyEEENS_14__move_trivialEEENS_16reverse_iteratorIP4EdgeEESA_SA_Li0EEENS_4pairIT0_T2_EESC_T1_SD_, symObjAddr: 0x5BEC, symBinAddr: 0x100015B24, symSize: 0x12C }
  - { offsetInCU: 0x964A, offset: 0x2E79D, size: 0x8, addend: 0x0, symName: __ZNSt3__114__unwrap_rangeB8ue170006INS_16reverse_iteratorIP4EdgeEES4_EENS_4pairIT0_S6_EET_S8_, symObjAddr: 0x5D18, symBinAddr: 0x100015C50, symSize: 0x84 }
  - { offsetInCU: 0x97BC, offset: 0x2E90F, size: 0x8, addend: 0x0, symName: __ZNSt3__113__unwrap_iterB8ue170006INS_16reverse_iteratorIP4EdgeEENS_18__unwrap_iter_implIS4_Lb0EEELi0EEEDTclsrT0_8__unwrapclsr3stdE7declvalIT_EEEES8_, symObjAddr: 0x5E3C, symBinAddr: 0x100015D74, symSize: 0x44 }
  - { offsetInCU: 0x9800, offset: 0x2E953, size: 0x8, addend: 0x0, symName: __ZNSt3__19make_pairB8ue170006INS_16reverse_iteratorIP4EdgeEES4_EENS_4pairINS_18__unwrap_ref_decayIT_E4typeENS6_IT0_E4typeEEEOS7_OSA_, symObjAddr: 0x5E80, symBinAddr: 0x100015DB8, symSize: 0x38 }
  - { offsetInCU: 0x984F, offset: 0x2E9A2, size: 0x8, addend: 0x0, symName: __ZNSt3__114__rewrap_rangeB8ue170006INS_16reverse_iteratorIP4EdgeEES4_EET_S5_T0_, symObjAddr: 0x5EB8, symBinAddr: 0x100015DF0, symSize: 0x5C }
  - { offsetInCU: 0x989B, offset: 0x2E9EE, size: 0x8, addend: 0x0, symName: __ZNSt3__113__rewrap_iterB8ue170006INS_16reverse_iteratorIP4EdgeEES4_NS_18__unwrap_iter_implIS4_Lb0EEEEET_S7_T0_, symObjAddr: 0x5F14, symBinAddr: 0x100015E4C, symSize: 0x74 }
  - { offsetInCU: 0x98F0, offset: 0x2EA43, size: 0x8, addend: 0x0, symName: __ZNSt3__1neB8ue170006IP4EdgeS2_EEbRKNS_16reverse_iteratorIT_EERKNS3_IT0_EE, symObjAddr: 0x5F88, symBinAddr: 0x100015EC0, symSize: 0x48 }
  - { offsetInCU: 0x99EE, offset: 0x2EB41, size: 0x8, addend: 0x0, symName: __ZNSt3__122__make_exception_guardB8ue170006INS_6vectorINS1_I4EdgeNS_9allocatorIS2_EEEENS3_IS5_EEE16__destroy_vectorEEENS_28__exception_guard_exceptionsIT_EESA_, symObjAddr: 0x6590, symBinAddr: 0x1000164C8, symSize: 0x40 }
  - { offsetInCU: 0x9A23, offset: 0x2EB76, size: 0x8, addend: 0x0, symName: __ZNSt3__130__uninitialized_allocator_copyB8ue170006INS_9allocatorINS_6vectorI4EdgeNS1_IS3_EEEEEEPS5_S7_S7_EET2_RT_T0_T1_S8_, symObjAddr: 0x67B0, symBinAddr: 0x1000166E8, symSize: 0x80 }
  - { offsetInCU: 0x9AC0, offset: 0x2EC13, size: 0x8, addend: 0x0, symName: __ZNSt3__114__unwrap_rangeB8ue170006IPNS_6vectorI4EdgeNS_9allocatorIS2_EEEES6_EENS_4pairIT0_S8_EET_SA_, symObjAddr: 0x6830, symBinAddr: 0x100016768, symSize: 0x60 }
  - { offsetInCU: 0x9B0C, offset: 0x2EC5F, size: 0x8, addend: 0x0, symName: __ZNSt3__135__uninitialized_allocator_copy_implB8ue170006INS_9allocatorINS_6vectorI4EdgeNS1_IS3_EEEEEEPS5_S7_S7_EET2_RT_T0_T1_S8_, symObjAddr: 0x6890, symBinAddr: 0x1000167C8, symSize: 0xF4 }
  - { offsetInCU: 0x9BAA, offset: 0x2ECFD, size: 0x8, addend: 0x0, symName: __ZNSt3__113__unwrap_iterB8ue170006IPNS_6vectorI4EdgeNS_9allocatorIS2_EEEENS_18__unwrap_iter_implIS6_Lb1EEELi0EEEDTclsrT0_8__unwrapclsr3stdE7declvalIT_EEEESA_, symObjAddr: 0x6984, symBinAddr: 0x1000168BC, symSize: 0x24 }
  - { offsetInCU: 0x9BEE, offset: 0x2ED41, size: 0x8, addend: 0x0, symName: __ZNSt3__113__rewrap_iterB8ue170006IPNS_6vectorI4EdgeNS_9allocatorIS2_EEEES6_NS_18__unwrap_iter_implIS6_Lb1EEEEET_S9_T0_, symObjAddr: 0x69A8, symBinAddr: 0x1000168E0, symSize: 0x3C }
  - { offsetInCU: 0x9C43, offset: 0x2ED96, size: 0x8, addend: 0x0, symName: __ZNSt3__19make_pairB8ue170006IPNS_6vectorI4EdgeNS_9allocatorIS2_EEEES6_EENS_4pairINS_18__unwrap_ref_decayIT_E4typeENS8_IT0_E4typeEEEOS9_OSC_, symObjAddr: 0x69E4, symBinAddr: 0x10001691C, symSize: 0x38 }
  - { offsetInCU: 0x9D66, offset: 0x2EEB9, size: 0x8, addend: 0x0, symName: __ZNSt3__122__make_exception_guardB8ue170006INS_29_AllocatorDestroyRangeReverseINS_9allocatorINS_6vectorI4EdgeNS2_IS4_EEEEEEPS6_EEEENS_28__exception_guard_exceptionsIT_EESB_, symObjAddr: 0x6A8C, symBinAddr: 0x1000169C4, symSize: 0x4C }
  - { offsetInCU: 0x9D9C, offset: 0x2EEEF, size: 0x8, addend: 0x0, symName: __ZNSt3__119__allocator_destroyB8ue170006INS_9allocatorINS_6vectorI4EdgeNS1_IS3_EEEEEENS_16reverse_iteratorIPS5_EES9_EEvRT_T0_T1_, symObjAddr: 0x6D1C, symBinAddr: 0x100016C54, symSize: 0x70 }
  - { offsetInCU: 0x9E52, offset: 0x2EFA5, size: 0x8, addend: 0x0, symName: __ZNSt3__122__make_exception_guardB8ue170006INS_6vectorI4EdgeNS_9allocatorIS2_EEE16__destroy_vectorEEENS_28__exception_guard_exceptionsIT_EES8_, symObjAddr: 0x6FAC, symBinAddr: 0x100016EE4, symSize: 0x40 }
  - { offsetInCU: 0x9E87, offset: 0x2EFDA, size: 0x8, addend: 0x0, symName: __ZNSt3__130__uninitialized_allocator_copyB8ue170006INS_9allocatorI4EdgeEEPS2_S4_S4_EET2_RT_T0_T1_S5_, symObjAddr: 0x71C4, symBinAddr: 0x1000170FC, symSize: 0x80 }
  - { offsetInCU: 0x9F24, offset: 0x2F077, size: 0x8, addend: 0x0, symName: __ZNSt3__135__uninitialized_allocator_copy_implB8ue170006INS_9allocatorI4EdgeEES2_S2_S2_LPv0EEEPT2_RT_PT0_SA_S6_, symObjAddr: 0x7244, symBinAddr: 0x10001717C, symSize: 0x38 }
  - { offsetInCU: 0x9FA5, offset: 0x2F0F8, size: 0x8, addend: 0x0, symName: __ZNSt3__14copyB8ue170006IP4EdgeS2_EET0_T_S4_S3_, symObjAddr: 0x727C, symBinAddr: 0x1000171B4, symSize: 0x40 }
  - { offsetInCU: 0x9FFF, offset: 0x2F152, size: 0x8, addend: 0x0, symName: __ZNSt3__16__copyB8ue170006INS_17_ClassicAlgPolicyEP4EdgeS3_S3_EENS_4pairIT0_T2_EES5_T1_S6_, symObjAddr: 0x72BC, symBinAddr: 0x1000171F4, symSize: 0x44 }
  - { offsetInCU: 0xA06B, offset: 0x2F1BE, size: 0x8, addend: 0x0, symName: __ZNSt3__123__dispatch_copy_or_moveB8ue170006INS_17_ClassicAlgPolicyENS_11__copy_loopIS1_EENS_14__copy_trivialEP4EdgeS6_S6_EENS_4pairIT2_T4_EES8_T3_S9_, symObjAddr: 0x7300, symBinAddr: 0x100017238, symSize: 0x44 }
  - { offsetInCU: 0xA0E9, offset: 0x2F23C, size: 0x8, addend: 0x0, symName: __ZNSt3__121__unwrap_and_dispatchB8ue170006INS_10__overloadINS_11__copy_loopINS_17_ClassicAlgPolicyEEENS_14__copy_trivialEEEP4EdgeS8_S8_Li0EEENS_4pairIT0_T2_EESA_T1_SB_, symObjAddr: 0x7344, symBinAddr: 0x10001727C, symSize: 0xB4 }
  - { offsetInCU: 0xA94F, offset: 0x2FAA2, size: 0x8, addend: 0x0, symName: __ZNSt3__16vectorINS0_I4EdgeNS_9allocatorIS1_EEEENS2_IS4_EEE26__swap_out_circular_bufferERNS_14__split_bufferIS4_RS5_EE, symObjAddr: 0x2E54, symBinAddr: 0x1000133D4, symSize: 0x110 }
  - { offsetInCU: 0xA9E5, offset: 0x2FB38, size: 0x8, addend: 0x0, symName: __ZNSt3__16vectorI4EdgeNS_9allocatorIS1_EEE26__swap_out_circular_bufferERNS_14__split_bufferIS1_RS3_EE, symObjAddr: 0x53EC, symBinAddr: 0x100015324, symSize: 0x110 }
  - { offsetInCU: 0xC97A, offset: 0x31ACD, size: 0x8, addend: 0x0, symName: __ZN17EdgeWeightedGraphC2Ei, symObjAddr: 0x0, symBinAddr: 0x10001086C, symSize: 0x7C }
  - { offsetInCU: 0xC9B3, offset: 0x31B06, size: 0x8, addend: 0x0, symName: __ZNSt3__16vectorINS0_I4EdgeNS_9allocatorIS1_EEEENS2_IS4_EEEC1B8ue170006Ev, symObjAddr: 0x7C, symBinAddr: 0x1000108E8, symSize: 0x2C }
  - { offsetInCU: 0xC9DB, offset: 0x31B2E, size: 0x8, addend: 0x0, symName: __ZNSt3__16vectorINS0_I4EdgeNS_9allocatorIS1_EEEENS2_IS4_EEE6resizeEm, symObjAddr: 0xA8, symBinAddr: 0x100010914, symSize: 0x9C }
  - { offsetInCU: 0xCA20, offset: 0x31B73, size: 0x8, addend: 0x0, symName: __ZNSt3__16vectorINS0_I4EdgeNS_9allocatorIS1_EEEENS2_IS4_EEED1B8ue170006Ev, symObjAddr: 0x144, symBinAddr: 0x1000109B0, symSize: 0x2C }
  - { offsetInCU: 0xCA49, offset: 0x31B9C, size: 0x8, addend: 0x0, symName: __ZN17EdgeWeightedGraphC1Ei, symObjAddr: 0x170, symBinAddr: 0x1000109DC, symSize: 0x34 }
  - { offsetInCU: 0xCA82, offset: 0x31BD5, size: 0x8, addend: 0x0, symName: __ZN17EdgeWeightedGraphC2ENSt3__112basic_stringIcNS0_11char_traitsIcEENS0_9allocatorIcEEEE, symObjAddr: 0x1A4, symBinAddr: 0x100010A10, symSize: 0x244 }
  - { offsetInCU: 0xCC97, offset: 0x31DEA, size: 0x8, addend: 0x0, symName: __ZNSt3__16vectorINS0_I4EdgeNS_9allocatorIS1_EEEENS2_IS4_EEE6resizeEmRKS4_, symObjAddr: 0x554, symBinAddr: 0x100010C54, symSize: 0xA4 }
  - { offsetInCU: 0xCCEB, offset: 0x31E3E, size: 0x8, addend: 0x0, symName: __ZNSt3__16vectorI4EdgeNS_9allocatorIS1_EEEC1B8ue170006Ev, symObjAddr: 0x5F8, symBinAddr: 0x100010CF8, symSize: 0x2C }
  - { offsetInCU: 0xCD14, offset: 0x31E67, size: 0x8, addend: 0x0, symName: __ZNSt3__16vectorI4EdgeNS_9allocatorIS1_EEED1B8ue170006Ev, symObjAddr: 0x624, symBinAddr: 0x100010D24, symSize: 0x2C }
  - { offsetInCU: 0xCD3D, offset: 0x31E90, size: 0x8, addend: 0x0, symName: __ZN17EdgeWeightedGraph3addE4Edge, symObjAddr: 0x67C, symBinAddr: 0x100010D50, symSize: 0xCC }
  - { offsetInCU: 0xCD71, offset: 0x31EC4, size: 0x8, addend: 0x0, symName: __ZN4EdgeC1Eiid, symObjAddr: 0x748, symBinAddr: 0x100010E1C, symSize: 0x44 }
  - { offsetInCU: 0xCDC9, offset: 0x31F1C, size: 0x8, addend: 0x0, symName: __ZN17EdgeWeightedGraphC1ENSt3__112basic_stringIcNS0_11char_traitsIcEENS0_9allocatorIcEEEE, symObjAddr: 0x7CC, symBinAddr: 0x100010E60, symSize: 0x34 }
  - { offsetInCU: 0xCE03, offset: 0x31F56, size: 0x8, addend: 0x0, symName: __ZN17EdgeWeightedGraphC2EiNSt3__16vectorI4EdgeNS0_9allocatorIS2_EEEE, symObjAddr: 0x800, symBinAddr: 0x100010E94, symSize: 0x100 }
  - { offsetInCU: 0xCE9C, offset: 0x31FEF, size: 0x8, addend: 0x0, symName: __ZNSt3__16vectorI4EdgeNS_9allocatorIS1_EEE5beginB8ue170006Ev, symObjAddr: 0x900, symBinAddr: 0x100010F94, symSize: 0x30 }
  - { offsetInCU: 0xCEC2, offset: 0x32015, size: 0x8, addend: 0x0, symName: __ZNSt3__16vectorI4EdgeNS_9allocatorIS1_EEE3endB8ue170006Ev, symObjAddr: 0x930, symBinAddr: 0x100010FC4, symSize: 0x30 }
  - { offsetInCU: 0xCEE9, offset: 0x3203C, size: 0x8, addend: 0x0, symName: __ZNKSt3__111__wrap_iterIP4EdgeEdeB8ue170006Ev, symObjAddr: 0x994, symBinAddr: 0x100011028, symSize: 0x18 }
  - { offsetInCU: 0xCF0E, offset: 0x32061, size: 0x8, addend: 0x0, symName: __ZNSt3__111__wrap_iterIP4EdgeEppB8ue170006Ev, symObjAddr: 0x9AC, symBinAddr: 0x100011040, symSize: 0x20 }
  - { offsetInCU: 0xCF33, offset: 0x32086, size: 0x8, addend: 0x0, symName: __ZN17EdgeWeightedGraphC1EiNSt3__16vectorI4EdgeNS0_9allocatorIS2_EEEE, symObjAddr: 0x9CC, symBinAddr: 0x100011060, symSize: 0x3C }
  - { offsetInCU: 0xCF7B, offset: 0x320CE, size: 0x8, addend: 0x0, symName: __ZNK17EdgeWeightedGraph14validateVertexEi, symObjAddr: 0xA08, symBinAddr: 0x10001109C, symSize: 0x5C }
  - { offsetInCU: 0xCFB0, offset: 0x32103, size: 0x8, addend: 0x0, symName: __ZNK17EdgeWeightedGraph23validateVertexWithErrorEi, symObjAddr: 0xA64, symBinAddr: 0x1000110F8, symSize: 0x58 }
  - { offsetInCU: 0xCFE4, offset: 0x32137, size: 0x8, addend: 0x0, symName: __ZNK17EdgeWeightedGraph4getVEv, symObjAddr: 0xABC, symBinAddr: 0x100011150, symSize: 0x18 }
  - { offsetInCU: 0xD00B, offset: 0x3215E, size: 0x8, addend: 0x0, symName: __ZNK17EdgeWeightedGraph4getEEv, symObjAddr: 0xAD4, symBinAddr: 0x100011168, symSize: 0x18 }
  - { offsetInCU: 0xD032, offset: 0x32185, size: 0x8, addend: 0x0, symName: __ZNK4Edge6eitherEv, symObjAddr: 0xAEC, symBinAddr: 0x100011180, symSize: 0x18 }
  - { offsetInCU: 0xD057, offset: 0x321AA, size: 0x8, addend: 0x0, symName: __ZNK4Edge5otherEi, symObjAddr: 0xB04, symBinAddr: 0x100011198, symSize: 0x10C }
  - { offsetInCU: 0xD08A, offset: 0x321DD, size: 0x8, addend: 0x0, symName: __ZNSt3__16vectorINS0_I4EdgeNS_9allocatorIS1_EEEENS2_IS4_EEEixB8ue170006Em, symObjAddr: 0xC10, symBinAddr: 0x1000112A4, symSize: 0x2C }
  - { offsetInCU: 0xD0BF, offset: 0x32212, size: 0x8, addend: 0x0, symName: __ZNSt3__16vectorI4EdgeNS_9allocatorIS1_EEE9push_backB8ue170006ERKS1_, symObjAddr: 0xC3C, symBinAddr: 0x1000112D0, symSize: 0x6C }
  - { offsetInCU: 0xD0F5, offset: 0x32248, size: 0x8, addend: 0x0, symName: __ZNK17EdgeWeightedGraph6getAdjEi, symObjAddr: 0xCA8, symBinAddr: 0x10001133C, symSize: 0x110 }
  - { offsetInCU: 0xD182, offset: 0x322D5, size: 0x8, addend: 0x0, symName: __ZNKSt3__16vectorINS0_I4EdgeNS_9allocatorIS1_EEEENS2_IS4_EEEixB8ue170006Em, symObjAddr: 0xDB8, symBinAddr: 0x10001144C, symSize: 0x2C }
  - { offsetInCU: 0xD1B7, offset: 0x3230A, size: 0x8, addend: 0x0, symName: __ZNKSt3__16vectorI4EdgeNS_9allocatorIS1_EEE5beginB8ue170006Ev, symObjAddr: 0xDE4, symBinAddr: 0x100011478, symSize: 0x30 }
  - { offsetInCU: 0xD1DD, offset: 0x32330, size: 0x8, addend: 0x0, symName: __ZNKSt3__16vectorI4EdgeNS_9allocatorIS1_EEE3endB8ue170006Ev, symObjAddr: 0xE14, symBinAddr: 0x1000114A8, symSize: 0x30 }
  - { offsetInCU: 0xD204, offset: 0x32357, size: 0x8, addend: 0x0, symName: __ZNKSt3__111__wrap_iterIPK4EdgeEdeB8ue170006Ev, symObjAddr: 0xE78, symBinAddr: 0x10001150C, symSize: 0x18 }
  - { offsetInCU: 0xD229, offset: 0x3237C, size: 0x8, addend: 0x0, symName: __ZNSt3__111__wrap_iterIPK4EdgeEppB8ue170006Ev, symObjAddr: 0xE90, symBinAddr: 0x100011524, symSize: 0x20 }
  - { offsetInCU: 0xD24E, offset: 0x323A1, size: 0x8, addend: 0x0, symName: __ZNK17EdgeWeightedGraph6getAdjEv, symObjAddr: 0xEB0, symBinAddr: 0x100011544, symSize: 0x3C }
  - { offsetInCU: 0xD274, offset: 0x323C7, size: 0x8, addend: 0x0, symName: __ZNSt3__16vectorINS0_I4EdgeNS_9allocatorIS1_EEEENS2_IS4_EEEC1ERKS6_, symObjAddr: 0xEEC, symBinAddr: 0x100011580, symSize: 0x34 }
  - { offsetInCU: 0xD2AE, offset: 0x32401, size: 0x8, addend: 0x0, symName: __ZNK17EdgeWeightedGraph5edgesEv, symObjAddr: 0xF20, symBinAddr: 0x1000115B4, symSize: 0x1F4 }
  - { offsetInCU: 0xD350, offset: 0x324A3, size: 0x8, addend: 0x0, symName: __ZN17EdgeWeightedGraph8del_EdgeE4Edge, symObjAddr: 0x1114, symBinAddr: 0x1000117A8, symSize: 0x140 }
  - { offsetInCU: 0xD3F8, offset: 0x3254B, size: 0x8, addend: 0x0, symName: '__ZZN17EdgeWeightedGraph8del_EdgeE4EdgeENK3$_0clERNSt3__16vectorIS0_NS2_9allocatorIS0_EEEES0_', symObjAddr: 0x1254, symBinAddr: 0x1000118E8, symSize: 0x10C }
  - { offsetInCU: 0xD476, offset: 0x325C9, size: 0x8, addend: 0x0, symName: __ZNK17EdgeWeightedGraphixEi, symObjAddr: 0x1360, symBinAddr: 0x1000119F4, symSize: 0x54 }
  - { offsetInCU: 0xD4AA, offset: 0x325FD, size: 0x8, addend: 0x0, symName: __ZNSt3__16vectorI4EdgeNS_9allocatorIS1_EEEC1ERKS4_, symObjAddr: 0x13B4, symBinAddr: 0x100011A48, symSize: 0x34 }
  - { offsetInCU: 0xD4E4, offset: 0x32637, size: 0x8, addend: 0x0, symName: __ZN4EdgeC2Eiid, symObjAddr: 0x13E8, symBinAddr: 0x100011A7C, symSize: 0x38 }
  - { offsetInCU: 0xD537, offset: 0x3268A, size: 0x8, addend: 0x0, symName: __ZNKSt3__111__wrap_iterIP4EdgeE4baseB8ue170006Ev, symObjAddr: 0x14F4, symBinAddr: 0x100011AFC, symSize: 0x18 }
  - { offsetInCU: 0xD56B, offset: 0x326BE, size: 0x8, addend: 0x0, symName: __ZNSt16invalid_argumentC1B8ue170006EPKc, symObjAddr: 0x150C, symBinAddr: 0x100011B14, symSize: 0x34 }
  - { offsetInCU: 0xD5A2, offset: 0x326F5, size: 0x8, addend: 0x0, symName: __ZNSt16invalid_argumentC2B8ue170006EPKc, symObjAddr: 0x1540, symBinAddr: 0x100011B48, symSize: 0x4C }
  - { offsetInCU: 0xD5D9, offset: 0x3272C, size: 0x8, addend: 0x0, symName: __ZNKSt3__111__wrap_iterIPK4EdgeE4baseB8ue170006Ev, symObjAddr: 0x15D4, symBinAddr: 0x100011BDC, symSize: 0x18 }
  - { offsetInCU: 0xD5FD, offset: 0x32750, size: 0x8, addend: 0x0, symName: __ZNSt3__16vectorI4EdgeNS_9allocatorIS1_EEE5eraseENS_11__wrap_iterIPKS1_EES8_, symObjAddr: 0x16F0, symBinAddr: 0x100011CF8, symSize: 0xD0 }
  - { offsetInCU: 0xD65B, offset: 0x327AE, size: 0x8, addend: 0x0, symName: __ZNSt3__111__wrap_iterIPK4EdgeEC1B8ue170006IPS1_EERKNS0_IT_EEPNS_9enable_ifIXsr14is_convertibleIS7_S3_EE5valueEvE4typeE, symObjAddr: 0x17C0, symBinAddr: 0x100011DC8, symSize: 0x3C }
  - { offsetInCU: 0xD6AF, offset: 0x32802, size: 0x8, addend: 0x0, symName: '__ZZZN17EdgeWeightedGraph8del_EdgeE4EdgeENK3$_0clERNSt3__16vectorIS0_NS2_9allocatorIS0_EEEES0_ENKUlRKS0_E_clES9_', symObjAddr: 0x187C, symBinAddr: 0x100011E84, symSize: 0xFC }
  - { offsetInCU: 0xD6E6, offset: 0x32839, size: 0x8, addend: 0x0, symName: __ZNK4Edge6weightEv, symObjAddr: 0x1978, symBinAddr: 0x100011F80, symSize: 0x18 }
  - { offsetInCU: 0xD70B, offset: 0x3285E, size: 0x8, addend: 0x0, symName: __ZNSt3__16vectorI4EdgeNS_9allocatorIS1_EEE17__destruct_at_endB8ue170006EPS1_, symObjAddr: 0x19D8, symBinAddr: 0x100011FE0, symSize: 0x4C }
  - { offsetInCU: 0xD74E, offset: 0x328A1, size: 0x8, addend: 0x0, symName: __ZNSt3__16vectorI4EdgeNS_9allocatorIS1_EEE11__make_iterB8ue170006EPS1_, symObjAddr: 0x1AAC, symBinAddr: 0x1000120B4, symSize: 0x30 }
  - { offsetInCU: 0xD782, offset: 0x328D5, size: 0x8, addend: 0x0, symName: __ZNKSt3__16vectorI4EdgeNS_9allocatorIS1_EEE4sizeB8ue170006Ev, symObjAddr: 0x1ADC, symBinAddr: 0x1000120E4, symSize: 0x28 }
  - { offsetInCU: 0xD7A7, offset: 0x328FA, size: 0x8, addend: 0x0, symName: __ZNSt3__16vectorI4EdgeNS_9allocatorIS1_EEE22__base_destruct_at_endB8ue170006EPS1_, symObjAddr: 0x1B04, symBinAddr: 0x10001210C, symSize: 0x8C }
  - { offsetInCU: 0xD7EA, offset: 0x3293D, size: 0x8, addend: 0x0, symName: __ZNKSt3__16vectorI4EdgeNS_9allocatorIS1_EEE17__annotate_shrinkB8ue170006Em, symObjAddr: 0x1B90, symBinAddr: 0x100012198, symSize: 0xB4 }
  - { offsetInCU: 0xD81E, offset: 0x32971, size: 0x8, addend: 0x0, symName: __ZNSt3__116allocator_traitsINS_9allocatorI4EdgeEEE7destroyB8ue170006IS2_vEEvRS3_PT_, symObjAddr: 0x1C44, symBinAddr: 0x10001224C, symSize: 0x2C }
  - { offsetInCU: 0xD85B, offset: 0x329AE, size: 0x8, addend: 0x0, symName: __ZNSt3__16vectorI4EdgeNS_9allocatorIS1_EEE7__allocB8ue170006Ev, symObjAddr: 0x1C70, symBinAddr: 0x100012278, symSize: 0x28 }
  - { offsetInCU: 0xD880, offset: 0x329D3, size: 0x8, addend: 0x0, symName: __ZNSt3__19allocatorI4EdgeE7destroyB8ue170006EPS1_, symObjAddr: 0x1CB8, symBinAddr: 0x1000122B4, symSize: 0x14 }
  - { offsetInCU: 0xD8B3, offset: 0x32A06, size: 0x8, addend: 0x0, symName: __ZNSt3__117__compressed_pairIP4EdgeNS_9allocatorIS1_EEE6secondB8ue170006Ev, symObjAddr: 0x1CCC, symBinAddr: 0x1000122C8, symSize: 0x24 }
  - { offsetInCU: 0xD8D8, offset: 0x32A2B, size: 0x8, addend: 0x0, symName: __ZNSt3__122__compressed_pair_elemINS_9allocatorI4EdgeEELi1ELb1EE5__getB8ue170006Ev, symObjAddr: 0x1CF0, symBinAddr: 0x1000122EC, symSize: 0x14 }
  - { offsetInCU: 0xD8FD, offset: 0x32A50, size: 0x8, addend: 0x0, symName: __ZNKSt3__16vectorI4EdgeNS_9allocatorIS1_EEE31__annotate_contiguous_containerB8ue170006EPKvS6_S6_S6_, symObjAddr: 0x1D04, symBinAddr: 0x100012300, symSize: 0x20 }
  - { offsetInCU: 0xD94E, offset: 0x32AA1, size: 0x8, addend: 0x0, symName: __ZNKSt3__16vectorI4EdgeNS_9allocatorIS1_EEE4dataB8ue170006Ev, symObjAddr: 0x1D24, symBinAddr: 0x100012320, symSize: 0x28 }
  - { offsetInCU: 0xD973, offset: 0x32AC6, size: 0x8, addend: 0x0, symName: __ZNKSt3__16vectorI4EdgeNS_9allocatorIS1_EEE8capacityB8ue170006Ev, symObjAddr: 0x1D4C, symBinAddr: 0x100012348, symSize: 0x40 }
  - { offsetInCU: 0xD998, offset: 0x32AEB, size: 0x8, addend: 0x0, symName: __ZNKSt3__16vectorI4EdgeNS_9allocatorIS1_EEE9__end_capB8ue170006Ev, symObjAddr: 0x1D8C, symBinAddr: 0x100012388, symSize: 0x28 }
  - { offsetInCU: 0xD9BD, offset: 0x32B10, size: 0x8, addend: 0x0, symName: __ZNKSt3__117__compressed_pairIP4EdgeNS_9allocatorIS1_EEE5firstB8ue170006Ev, symObjAddr: 0x1DB4, symBinAddr: 0x1000123B0, symSize: 0x24 }
  - { offsetInCU: 0xD9E2, offset: 0x32B35, size: 0x8, addend: 0x0, symName: __ZNKSt3__122__compressed_pair_elemIP4EdgeLi0ELb0EE5__getB8ue170006Ev, symObjAddr: 0x1DD8, symBinAddr: 0x1000123D4, symSize: 0x14 }
  - { offsetInCU: 0xDA2A, offset: 0x32B7D, size: 0x8, addend: 0x0, symName: __ZNKSt3__114__move_trivialclB8ue170006I4EdgeS2_Li0EEENS_4pairIPT_PT0_EES5_S5_S7_, symObjAddr: 0x1F88, symBinAddr: 0x100012584, symSize: 0x48 }
  - { offsetInCU: 0xDA96, offset: 0x32BE9, size: 0x8, addend: 0x0, symName: __ZNSt3__14pairIP4EdgeS2_EC1B8ue170006IRS2_S2_LPv0EEEOT_OT0_, symObjAddr: 0x21B0, symBinAddr: 0x1000127AC, symSize: 0x3C }
  - { offsetInCU: 0xDAF3, offset: 0x32C46, size: 0x8, addend: 0x0, symName: __ZNSt3__14pairIP4EdgeS2_EC2B8ue170006IRS2_S2_LPv0EEEOT_OT0_, symObjAddr: 0x21EC, symBinAddr: 0x1000127E8, symSize: 0x34 }
  - { offsetInCU: 0xDB50, offset: 0x32CA3, size: 0x8, addend: 0x0, symName: __ZNSt3__118__unwrap_iter_implIP4EdgeLb1EE8__unwrapB8ue170006ES2_, symObjAddr: 0x2220, symBinAddr: 0x10001281C, symSize: 0x24 }
  - { offsetInCU: 0xDB73, offset: 0x32CC6, size: 0x8, addend: 0x0, symName: __ZNSt3__14pairIP4EdgeS2_EC1B8ue170006IS2_S2_LPv0EEEOT_OT0_, symObjAddr: 0x2244, symBinAddr: 0x100012840, symSize: 0x3C }
  - { offsetInCU: 0xDBD0, offset: 0x32D23, size: 0x8, addend: 0x0, symName: __ZNSt3__14pairIP4EdgeS2_EC2B8ue170006IS2_S2_LPv0EEEOT_OT0_, symObjAddr: 0x2280, symBinAddr: 0x10001287C, symSize: 0x34 }
  - { offsetInCU: 0xDC2D, offset: 0x32D80, size: 0x8, addend: 0x0, symName: __ZNSt3__118__unwrap_iter_implIP4EdgeLb1EE8__rewrapB8ue170006ES2_S2_, symObjAddr: 0x22B4, symBinAddr: 0x1000128B0, symSize: 0x50 }
  - { offsetInCU: 0xDC5E, offset: 0x32DB1, size: 0x8, addend: 0x0, symName: __ZNSt3__111__wrap_iterIP4EdgeEC1B8ue170006ES2_, symObjAddr: 0x2304, symBinAddr: 0x100012900, symSize: 0x34 }
  - { offsetInCU: 0xDC95, offset: 0x32DE8, size: 0x8, addend: 0x0, symName: __ZNSt3__111__wrap_iterIP4EdgeEC2B8ue170006ES2_, symObjAddr: 0x2338, symBinAddr: 0x100012934, symSize: 0x20 }
  - { offsetInCU: 0xDCCC, offset: 0x32E1F, size: 0x8, addend: 0x0, symName: __ZNSt3__111__wrap_iterIPK4EdgeEC2B8ue170006IPS1_EERKNS0_IT_EEPNS_9enable_ifIXsr14is_convertibleIS7_S3_EE5valueEvE4typeE, symObjAddr: 0x2358, symBinAddr: 0x100012954, symSize: 0x40 }
  - { offsetInCU: 0xDD16, offset: 0x32E69, size: 0x8, addend: 0x0, symName: __ZNSt3__16vectorINS0_I4EdgeNS_9allocatorIS1_EEEENS2_IS4_EEEC2B8ue170006Ev, symObjAddr: 0x2398, symBinAddr: 0x100012994, symSize: 0x4C }
  - { offsetInCU: 0xDD49, offset: 0x32E9C, size: 0x8, addend: 0x0, symName: __ZNSt3__117__compressed_pairIPNS_6vectorI4EdgeNS_9allocatorIS2_EEEENS3_IS5_EEEC1B8ue170006IDnNS_18__default_init_tagEEEOT_OT0_, symObjAddr: 0x23E4, symBinAddr: 0x1000129E0, symSize: 0x3C }
  - { offsetInCU: 0xDDA0, offset: 0x32EF3, size: 0x8, addend: 0x0, symName: __ZNSt3__117__compressed_pairIPNS_6vectorI4EdgeNS_9allocatorIS2_EEEENS3_IS5_EEEC2B8ue170006IDnNS_18__default_init_tagEEEOT_OT0_, symObjAddr: 0x2420, symBinAddr: 0x100012A1C, symSize: 0x40 }
  - { offsetInCU: 0xDDF7, offset: 0x32F4A, size: 0x8, addend: 0x0, symName: __ZNSt3__122__compressed_pair_elemIPNS_6vectorI4EdgeNS_9allocatorIS2_EEEELi0ELb0EEC2B8ue170006IDnvEEOT_, symObjAddr: 0x2460, symBinAddr: 0x100012A5C, symSize: 0x1C }
  - { offsetInCU: 0xDE38, offset: 0x32F8B, size: 0x8, addend: 0x0, symName: __ZNSt3__122__compressed_pair_elemINS_9allocatorINS_6vectorI4EdgeNS1_IS3_EEEEEELi1ELb1EEC2B8ue170006ENS_18__default_init_tagE, symObjAddr: 0x247C, symBinAddr: 0x100012A78, symSize: 0x2C }
  - { offsetInCU: 0xDE6B, offset: 0x32FBE, size: 0x8, addend: 0x0, symName: __ZNSt3__19allocatorINS_6vectorI4EdgeNS0_IS2_EEEEEC2B8ue170006Ev, symObjAddr: 0x24A8, symBinAddr: 0x100012AA4, symSize: 0x2C }
  - { offsetInCU: 0xDE94, offset: 0x32FE7, size: 0x8, addend: 0x0, symName: __ZNSt3__116__non_trivial_ifILb1ENS_9allocatorINS_6vectorI4EdgeNS1_IS3_EEEEEEEC2B8ue170006Ev, symObjAddr: 0x24D4, symBinAddr: 0x100012AD0, symSize: 0x14 }
  - { offsetInCU: 0xDEBD, offset: 0x33010, size: 0x8, addend: 0x0, symName: __ZNSt3__16vectorINS0_I4EdgeNS_9allocatorIS1_EEEENS2_IS4_EEED2B8ue170006Ev, symObjAddr: 0x24E8, symBinAddr: 0x100012AE4, symSize: 0x44 }
  - { offsetInCU: 0xDEE6, offset: 0x33039, size: 0x8, addend: 0x0, symName: __ZNSt3__16vectorINS0_I4EdgeNS_9allocatorIS1_EEEENS2_IS4_EEE16__destroy_vectorC1B8ue170006ERS6_, symObjAddr: 0x252C, symBinAddr: 0x100012B28, symSize: 0x34 }
  - { offsetInCU: 0xDF1E, offset: 0x33071, size: 0x8, addend: 0x0, symName: __ZNSt3__16vectorINS0_I4EdgeNS_9allocatorIS1_EEEENS2_IS4_EEE16__destroy_vectorclB8ue170006Ev, symObjAddr: 0x2560, symBinAddr: 0x100012B5C, symSize: 0x90 }
  - { offsetInCU: 0xDF43, offset: 0x33096, size: 0x8, addend: 0x0, symName: __ZNSt3__16vectorINS0_I4EdgeNS_9allocatorIS1_EEEENS2_IS4_EEE16__destroy_vectorC2B8ue170006ERS6_, symObjAddr: 0x25F0, symBinAddr: 0x100012BEC, symSize: 0x20 }
  - { offsetInCU: 0xDF7B, offset: 0x330CE, size: 0x8, addend: 0x0, symName: __ZNSt3__16vectorINS0_I4EdgeNS_9allocatorIS1_EEEENS2_IS4_EEE7__clearB8ue170006Ev, symObjAddr: 0x2610, symBinAddr: 0x100012C0C, symSize: 0x28 }
  - { offsetInCU: 0xDFA0, offset: 0x330F3, size: 0x8, addend: 0x0, symName: __ZNKSt3__16vectorINS0_I4EdgeNS_9allocatorIS1_EEEENS2_IS4_EEE17__annotate_deleteB8ue170006Ev, symObjAddr: 0x2638, symBinAddr: 0x100012C34, symSize: 0xD4 }
  - { offsetInCU: 0xDFC5, offset: 0x33118, size: 0x8, addend: 0x0, symName: __ZNSt3__116allocator_traitsINS_9allocatorINS_6vectorI4EdgeNS1_IS3_EEEEEEE10deallocateB8ue170006ERS6_PS5_m, symObjAddr: 0x270C, symBinAddr: 0x100012D08, symSize: 0x34 }
  - { offsetInCU: 0xE007, offset: 0x3315A, size: 0x8, addend: 0x0, symName: __ZNSt3__16vectorINS0_I4EdgeNS_9allocatorIS1_EEEENS2_IS4_EEE7__allocB8ue170006Ev, symObjAddr: 0x2740, symBinAddr: 0x100012D3C, symSize: 0x28 }
  - { offsetInCU: 0xE02C, offset: 0x3317F, size: 0x8, addend: 0x0, symName: __ZNKSt3__16vectorINS0_I4EdgeNS_9allocatorIS1_EEEENS2_IS4_EEE8capacityB8ue170006Ev, symObjAddr: 0x2768, symBinAddr: 0x100012D64, symSize: 0x40 }
  - { offsetInCU: 0xE051, offset: 0x331A4, size: 0x8, addend: 0x0, symName: __ZNSt3__16vectorINS0_I4EdgeNS_9allocatorIS1_EEEENS2_IS4_EEE22__base_destruct_at_endB8ue170006EPS4_, symObjAddr: 0x27A8, symBinAddr: 0x100012DA4, symSize: 0x8C }
  - { offsetInCU: 0xE094, offset: 0x331E7, size: 0x8, addend: 0x0, symName: __ZNSt3__116allocator_traitsINS_9allocatorINS_6vectorI4EdgeNS1_IS3_EEEEEEE7destroyB8ue170006IS5_vEEvRS6_PT_, symObjAddr: 0x2834, symBinAddr: 0x100012E30, symSize: 0x2C }
  - { offsetInCU: 0xE0D1, offset: 0x33224, size: 0x8, addend: 0x0, symName: __ZNSt3__19allocatorINS_6vectorI4EdgeNS0_IS2_EEEEE7destroyB8ue170006EPS4_, symObjAddr: 0x2874, symBinAddr: 0x100012E70, symSize: 0x28 }
  - { offsetInCU: 0xE104, offset: 0x33257, size: 0x8, addend: 0x0, symName: __ZNKSt3__16vectorINS0_I4EdgeNS_9allocatorIS1_EEEENS2_IS4_EEE31__annotate_contiguous_containerB8ue170006EPKvS8_S8_S8_, symObjAddr: 0x289C, symBinAddr: 0x100012E98, symSize: 0x20 }
  - { offsetInCU: 0xE155, offset: 0x332A8, size: 0x8, addend: 0x0, symName: __ZNKSt3__16vectorINS0_I4EdgeNS_9allocatorIS1_EEEENS2_IS4_EEE4dataB8ue170006Ev, symObjAddr: 0x28BC, symBinAddr: 0x100012EB8, symSize: 0x28 }
  - { offsetInCU: 0xE17A, offset: 0x332CD, size: 0x8, addend: 0x0, symName: __ZNKSt3__16vectorINS0_I4EdgeNS_9allocatorIS1_EEEENS2_IS4_EEE4sizeB8ue170006Ev, symObjAddr: 0x28E4, symBinAddr: 0x100012EE0, symSize: 0x28 }
  - { offsetInCU: 0xE19F, offset: 0x332F2, size: 0x8, addend: 0x0, symName: __ZNSt3__19allocatorINS_6vectorI4EdgeNS0_IS2_EEEEE10deallocateB8ue170006EPS4_m, symObjAddr: 0x290C, symBinAddr: 0x100012F08, symSize: 0x44 }
  - { offsetInCU: 0xE1E0, offset: 0x33333, size: 0x8, addend: 0x0, symName: __ZNSt3__117__compressed_pairIPNS_6vectorI4EdgeNS_9allocatorIS2_EEEENS3_IS5_EEE6secondB8ue170006Ev, symObjAddr: 0x29CC, symBinAddr: 0x100012F4C, symSize: 0x24 }
  - { offsetInCU: 0xE205, offset: 0x33358, size: 0x8, addend: 0x0, symName: __ZNSt3__122__compressed_pair_elemINS_9allocatorINS_6vectorI4EdgeNS1_IS3_EEEEEELi1ELb1EE5__getB8ue170006Ev, symObjAddr: 0x29F0, symBinAddr: 0x100012F70, symSize: 0x14 }
  - { offsetInCU: 0xE22A, offset: 0x3337D, size: 0x8, addend: 0x0, symName: __ZNKSt3__16vectorINS0_I4EdgeNS_9allocatorIS1_EEEENS2_IS4_EEE9__end_capB8ue170006Ev, symObjAddr: 0x2A04, symBinAddr: 0x100012F84, symSize: 0x28 }
  - { offsetInCU: 0xE24F, offset: 0x333A2, size: 0x8, addend: 0x0, symName: __ZNKSt3__117__compressed_pairIPNS_6vectorI4EdgeNS_9allocatorIS2_EEEENS3_IS5_EEE5firstB8ue170006Ev, symObjAddr: 0x2A2C, symBinAddr: 0x100012FAC, symSize: 0x24 }
  - { offsetInCU: 0xE274, offset: 0x333C7, size: 0x8, addend: 0x0, symName: __ZNKSt3__122__compressed_pair_elemIPNS_6vectorI4EdgeNS_9allocatorIS2_EEEELi0ELb0EE5__getB8ue170006Ev, symObjAddr: 0x2A50, symBinAddr: 0x100012FD0, symSize: 0x14 }
  - { offsetInCU: 0xE298, offset: 0x333EB, size: 0x8, addend: 0x0, symName: __ZNSt3__16vectorINS0_I4EdgeNS_9allocatorIS1_EEEENS2_IS4_EEE8__appendEm, symObjAddr: 0x2A64, symBinAddr: 0x100012FE4, symSize: 0x108 }
  - { offsetInCU: 0xE2F3, offset: 0x33446, size: 0x8, addend: 0x0, symName: __ZNSt3__16vectorINS0_I4EdgeNS_9allocatorIS1_EEEENS2_IS4_EEE17__destruct_at_endB8ue170006EPS4_, symObjAddr: 0x2B6C, symBinAddr: 0x1000130EC, symSize: 0x4C }
  - { offsetInCU: 0xE336, offset: 0x33489, size: 0x8, addend: 0x0, symName: __ZNSt3__16vectorINS0_I4EdgeNS_9allocatorIS1_EEEENS2_IS4_EEE9__end_capB8ue170006Ev, symObjAddr: 0x2BB8, symBinAddr: 0x100013138, symSize: 0x28 }
  - { offsetInCU: 0xE35A, offset: 0x334AD, size: 0x8, addend: 0x0, symName: __ZNSt3__16vectorINS0_I4EdgeNS_9allocatorIS1_EEEENS2_IS4_EEE18__construct_at_endEm, symObjAddr: 0x2BE0, symBinAddr: 0x100013160, symSize: 0xC8 }
  - { offsetInCU: 0xE3CA, offset: 0x3351D, size: 0x8, addend: 0x0, symName: __ZNKSt3__16vectorINS0_I4EdgeNS_9allocatorIS1_EEEENS2_IS4_EEE11__recommendB8ue170006Em, symObjAddr: 0x2CA8, symBinAddr: 0x100013228, symSize: 0xB4 }
  - { offsetInCU: 0xE41E, offset: 0x33571, size: 0x8, addend: 0x0, symName: __ZNSt3__114__split_bufferINS_6vectorI4EdgeNS_9allocatorIS2_EEEERNS3_IS5_EEEC1EmmS7_, symObjAddr: 0x2D5C, symBinAddr: 0x1000132DC, symSize: 0x44 }
  - { offsetInCU: 0xE472, offset: 0x335C5, size: 0x8, addend: 0x0, symName: __ZNSt3__114__split_bufferINS_6vectorI4EdgeNS_9allocatorIS2_EEEERNS3_IS5_EEE18__construct_at_endEm, symObjAddr: 0x2DA0, symBinAddr: 0x100013320, symSize: 0xB4 }
  - { offsetInCU: 0xE4B6, offset: 0x33609, size: 0x8, addend: 0x0, symName: __ZNSt3__114__split_bufferINS_6vectorI4EdgeNS_9allocatorIS2_EEEERNS3_IS5_EEED1Ev, symObjAddr: 0x2F64, symBinAddr: 0x1000134E4, symSize: 0x2C }
  - { offsetInCU: 0xE4E1, offset: 0x33634, size: 0x8, addend: 0x0, symName: __ZNSt3__117__compressed_pairIPNS_6vectorI4EdgeNS_9allocatorIS2_EEEENS3_IS5_EEE5firstB8ue170006Ev, symObjAddr: 0x2F90, symBinAddr: 0x100013510, symSize: 0x24 }
  - { offsetInCU: 0xE506, offset: 0x33659, size: 0x8, addend: 0x0, symName: __ZNSt3__122__compressed_pair_elemIPNS_6vectorI4EdgeNS_9allocatorIS2_EEEELi0ELb0EE5__getB8ue170006Ev, symObjAddr: 0x2FB4, symBinAddr: 0x100013534, symSize: 0x14 }
  - { offsetInCU: 0xE544, offset: 0x33697, size: 0x8, addend: 0x0, symName: __ZNSt3__16vectorINS0_I4EdgeNS_9allocatorIS1_EEEENS2_IS4_EEE21_ConstructTransactionC1B8ue170006ERS6_m, symObjAddr: 0x2FC8, symBinAddr: 0x100013548, symSize: 0x3C }
  - { offsetInCU: 0xE58B, offset: 0x336DE, size: 0x8, addend: 0x0, symName: __ZNSt3__116allocator_traitsINS_9allocatorINS_6vectorI4EdgeNS1_IS3_EEEEEEE9constructB8ue170006IS5_JEvEEvRS6_PT_DpOT0_, symObjAddr: 0x3004, symBinAddr: 0x100013584, symSize: 0x2C }
  - { offsetInCU: 0xE5CD, offset: 0x33720, size: 0x8, addend: 0x0, symName: __ZNSt3__16vectorINS0_I4EdgeNS_9allocatorIS1_EEEENS2_IS4_EEE21_ConstructTransactionD1B8ue170006Ev, symObjAddr: 0x3030, symBinAddr: 0x1000135B0, symSize: 0x2C }
  - { offsetInCU: 0xE5F6, offset: 0x33749, size: 0x8, addend: 0x0, symName: __ZNSt3__16vectorINS0_I4EdgeNS_9allocatorIS1_EEEENS2_IS4_EEE21_ConstructTransactionC2B8ue170006ERS6_m, symObjAddr: 0x305C, symBinAddr: 0x1000135DC, symSize: 0x4C }
  - { offsetInCU: 0xE63D, offset: 0x33790, size: 0x8, addend: 0x0, symName: __ZNSt3__19allocatorINS_6vectorI4EdgeNS0_IS2_EEEEE9constructB8ue170006IS4_JEEEvPT_DpOT0_, symObjAddr: 0x30A8, symBinAddr: 0x100013628, symSize: 0x28 }
  - { offsetInCU: 0xE67E, offset: 0x337D1, size: 0x8, addend: 0x0, symName: __ZNSt3__16vectorINS0_I4EdgeNS_9allocatorIS1_EEEENS2_IS4_EEE21_ConstructTransactionD2B8ue170006Ev, symObjAddr: 0x30D0, symBinAddr: 0x100013650, symSize: 0x20 }
  - { offsetInCU: 0xE6A6, offset: 0x337F9, size: 0x8, addend: 0x0, symName: __ZNKSt3__16vectorINS0_I4EdgeNS_9allocatorIS1_EEEENS2_IS4_EEE8max_sizeEv, symObjAddr: 0x30F0, symBinAddr: 0x100013670, symSize: 0x60 }
  - { offsetInCU: 0xE6CD, offset: 0x33820, size: 0x8, addend: 0x0, symName: __ZNKSt3__16vectorINS0_I4EdgeNS_9allocatorIS1_EEEENS2_IS4_EEE20__throw_length_errorB8ue170006Ev, symObjAddr: 0x3150, symBinAddr: 0x1000136D0, symSize: 0x1C }
  - { offsetInCU: 0xE6FC, offset: 0x3384F, size: 0x8, addend: 0x0, symName: __ZNSt3__116allocator_traitsINS_9allocatorINS_6vectorI4EdgeNS1_IS3_EEEEEEE8max_sizeB8ue170006IS6_vEEmRKS6_, symObjAddr: 0x31C4, symBinAddr: 0x1000136EC, symSize: 0x24 }
  - { offsetInCU: 0xE72A, offset: 0x3387D, size: 0x8, addend: 0x0, symName: __ZNKSt3__16vectorINS0_I4EdgeNS_9allocatorIS1_EEEENS2_IS4_EEE7__allocB8ue170006Ev, symObjAddr: 0x31E8, symBinAddr: 0x100013710, symSize: 0x28 }
  - { offsetInCU: 0xE74F, offset: 0x338A2, size: 0x8, addend: 0x0, symName: __ZNKSt3__19allocatorINS_6vectorI4EdgeNS0_IS2_EEEEE8max_sizeB8ue170006Ev, symObjAddr: 0x32AC, symBinAddr: 0x100013738, symSize: 0x18 }
  - { offsetInCU: 0xE774, offset: 0x338C7, size: 0x8, addend: 0x0, symName: __ZNKSt3__117__compressed_pairIPNS_6vectorI4EdgeNS_9allocatorIS2_EEEENS3_IS5_EEE6secondB8ue170006Ev, symObjAddr: 0x32C4, symBinAddr: 0x100013750, symSize: 0x24 }
  - { offsetInCU: 0xE799, offset: 0x338EC, size: 0x8, addend: 0x0, symName: __ZNKSt3__122__compressed_pair_elemINS_9allocatorINS_6vectorI4EdgeNS1_IS3_EEEEEELi1ELb1EE5__getB8ue170006Ev, symObjAddr: 0x32E8, symBinAddr: 0x100013774, symSize: 0x14 }
  - { offsetInCU: 0xE7BE, offset: 0x33911, size: 0x8, addend: 0x0, symName: __ZNSt3__114__split_bufferINS_6vectorI4EdgeNS_9allocatorIS2_EEEERNS3_IS5_EEEC2EmmS7_, symObjAddr: 0x343C, symBinAddr: 0x100013788, symSize: 0xE0 }
  - { offsetInCU: 0xE830, offset: 0x33983, size: 0x8, addend: 0x0, symName: __ZNSt3__117__compressed_pairIPNS_6vectorI4EdgeNS_9allocatorIS2_EEEERNS3_IS5_EEEC1B8ue170006IDnS8_EEOT_OT0_, symObjAddr: 0x351C, symBinAddr: 0x100013868, symSize: 0x3C }
  - { offsetInCU: 0xE887, offset: 0x339DA, size: 0x8, addend: 0x0, symName: __ZNSt3__114__split_bufferINS_6vectorI4EdgeNS_9allocatorIS2_EEEERNS3_IS5_EEE7__allocB8ue170006Ev, symObjAddr: 0x3598, symBinAddr: 0x1000138E4, symSize: 0x28 }
  - { offsetInCU: 0xE8AC, offset: 0x339FF, size: 0x8, addend: 0x0, symName: __ZNSt3__114__split_bufferINS_6vectorI4EdgeNS_9allocatorIS2_EEEERNS3_IS5_EEE9__end_capB8ue170006Ev, symObjAddr: 0x35C0, symBinAddr: 0x10001390C, symSize: 0x28 }
  - { offsetInCU: 0xE8D1, offset: 0x33A24, size: 0x8, addend: 0x0, symName: __ZNSt3__117__compressed_pairIPNS_6vectorI4EdgeNS_9allocatorIS2_EEEERNS3_IS5_EEEC2B8ue170006IDnS8_EEOT_OT0_, symObjAddr: 0x35E8, symBinAddr: 0x100013934, symSize: 0x48 }
  - { offsetInCU: 0xE928, offset: 0x33A7B, size: 0x8, addend: 0x0, symName: __ZNSt3__122__compressed_pair_elemIRNS_9allocatorINS_6vectorI4EdgeNS1_IS3_EEEEEELi1ELb0EEC2B8ue170006IS7_vEEOT_, symObjAddr: 0x3630, symBinAddr: 0x10001397C, symSize: 0x20 }
  - { offsetInCU: 0xE969, offset: 0x33ABC, size: 0x8, addend: 0x0, symName: __ZNSt3__19allocatorINS_6vectorI4EdgeNS0_IS2_EEEEE8allocateB8ue170006Em, symObjAddr: 0x3650, symBinAddr: 0x10001399C, symSize: 0x5C }
  - { offsetInCU: 0xE99C, offset: 0x33AEF, size: 0x8, addend: 0x0, symName: __ZNSt3__117__compressed_pairIPNS_6vectorI4EdgeNS_9allocatorIS2_EEEERNS3_IS5_EEE6secondB8ue170006Ev, symObjAddr: 0x372C, symBinAddr: 0x1000139F8, symSize: 0x28 }
  - { offsetInCU: 0xE9C1, offset: 0x33B14, size: 0x8, addend: 0x0, symName: __ZNSt3__122__compressed_pair_elemIRNS_9allocatorINS_6vectorI4EdgeNS1_IS3_EEEEEELi1ELb0EE5__getB8ue170006Ev, symObjAddr: 0x3754, symBinAddr: 0x100013A20, symSize: 0x18 }
  - { offsetInCU: 0xE9E6, offset: 0x33B39, size: 0x8, addend: 0x0, symName: __ZNSt3__117__compressed_pairIPNS_6vectorI4EdgeNS_9allocatorIS2_EEEERNS3_IS5_EEE5firstB8ue170006Ev, symObjAddr: 0x376C, symBinAddr: 0x100013A38, symSize: 0x24 }
  - { offsetInCU: 0xEA15, offset: 0x33B68, size: 0x8, addend: 0x0, symName: __ZNSt3__114__split_bufferINS_6vectorI4EdgeNS_9allocatorIS2_EEEERNS3_IS5_EEE21_ConstructTransactionC1B8ue170006EPPS5_m, symObjAddr: 0x3790, symBinAddr: 0x100013A5C, symSize: 0x3C }
  - { offsetInCU: 0xEA5A, offset: 0x33BAD, size: 0x8, addend: 0x0, symName: __ZNSt3__114__split_bufferINS_6vectorI4EdgeNS_9allocatorIS2_EEEERNS3_IS5_EEE21_ConstructTransactionD1B8ue170006Ev, symObjAddr: 0x37CC, symBinAddr: 0x100013A98, symSize: 0x2C }
  - { offsetInCU: 0xEA83, offset: 0x33BD6, size: 0x8, addend: 0x0, symName: __ZNSt3__114__split_bufferINS_6vectorI4EdgeNS_9allocatorIS2_EEEERNS3_IS5_EEE21_ConstructTransactionC2B8ue170006EPPS5_m, symObjAddr: 0x37F8, symBinAddr: 0x100013AC4, symSize: 0x4C }
  - { offsetInCU: 0xEAC8, offset: 0x33C1B, size: 0x8, addend: 0x0, symName: __ZNSt3__114__split_bufferINS_6vectorI4EdgeNS_9allocatorIS2_EEEERNS3_IS5_EEE21_ConstructTransactionD2B8ue170006Ev, symObjAddr: 0x3844, symBinAddr: 0x100013B10, symSize: 0x20 }
  - { offsetInCU: 0xEAF1, offset: 0x33C44, size: 0x8, addend: 0x0, symName: __ZNSt3__116reverse_iteratorIPNS_6vectorI4EdgeNS_9allocatorIS2_EEEEEC1B8ue170006ES6_, symObjAddr: 0x3990, symBinAddr: 0x100013C5C, symSize: 0x34 }
  - { offsetInCU: 0xEB28, offset: 0x33C7B, size: 0x8, addend: 0x0, symName: __ZNKSt3__116reverse_iteratorIPNS_6vectorI4EdgeNS_9allocatorIS2_EEEEE4baseB8ue170006Ev, symObjAddr: 0x39C4, symBinAddr: 0x100013C90, symSize: 0x18 }
  - { offsetInCU: 0xEB4D, offset: 0x33CA0, size: 0x8, addend: 0x0, symName: __ZNKSt3__16vectorINS0_I4EdgeNS_9allocatorIS1_EEEENS2_IS4_EEE14__annotate_newB8ue170006Em, symObjAddr: 0x3A18, symBinAddr: 0x100013CE4, symSize: 0xC8 }
  - { offsetInCU: 0xEB81, offset: 0x33CD4, size: 0x8, addend: 0x0, symName: __ZNSt3__129_AllocatorDestroyRangeReverseINS_9allocatorINS_6vectorI4EdgeNS1_IS3_EEEEEENS_16reverse_iteratorIPS5_EEEC1B8ue170006ERS6_RS9_SC_, symObjAddr: 0x3B2C, symBinAddr: 0x100013DF8, symSize: 0x44 }
  - { offsetInCU: 0xEBD7, offset: 0x33D2A, size: 0x8, addend: 0x0, symName: __ZNSt3__116allocator_traitsINS_9allocatorINS_6vectorI4EdgeNS1_IS3_EEEEEEE9constructB8ue170006IS5_JS5_EvEEvRS6_PT_DpOT0_, symObjAddr: 0x3BB8, symBinAddr: 0x100013E84, symSize: 0x34 }
  - { offsetInCU: 0xEC2E, offset: 0x33D81, size: 0x8, addend: 0x0, symName: __ZNKSt3__116reverse_iteratorIPNS_6vectorI4EdgeNS_9allocatorIS2_EEEEEdeB8ue170006Ev, symObjAddr: 0x3C10, symBinAddr: 0x100013EDC, symSize: 0x28 }
  - { offsetInCU: 0xEC61, offset: 0x33DB4, size: 0x8, addend: 0x0, symName: __ZNSt3__116reverse_iteratorIPNS_6vectorI4EdgeNS_9allocatorIS2_EEEEEppB8ue170006Ev, symObjAddr: 0x3C38, symBinAddr: 0x100013F04, symSize: 0x20 }
  - { offsetInCU: 0xEC86, offset: 0x33DD9, size: 0x8, addend: 0x0, symName: __ZNSt3__128__exception_guard_exceptionsINS_29_AllocatorDestroyRangeReverseINS_9allocatorINS_6vectorI4EdgeNS2_IS4_EEEEEENS_16reverse_iteratorIPS6_EEEEE10__completeB8ue170006Ev, symObjAddr: 0x3C58, symBinAddr: 0x100013F24, symSize: 0x1C }
  - { offsetInCU: 0xECAB, offset: 0x33DFE, size: 0x8, addend: 0x0, symName: __ZNSt3__128__exception_guard_exceptionsINS_29_AllocatorDestroyRangeReverseINS_9allocatorINS_6vectorI4EdgeNS2_IS4_EEEEEENS_16reverse_iteratorIPS6_EEEEED1B8ue170006Ev, symObjAddr: 0x3C74, symBinAddr: 0x100013F40, symSize: 0x2C }
  - { offsetInCU: 0xECD4, offset: 0x33E27, size: 0x8, addend: 0x0, symName: __ZNSt3__128__exception_guard_exceptionsINS_29_AllocatorDestroyRangeReverseINS_9allocatorINS_6vectorI4EdgeNS2_IS4_EEEEEENS_16reverse_iteratorIPS6_EEEEEC1B8ue170006ESB_, symObjAddr: 0x3CA0, symBinAddr: 0x100013F6C, symSize: 0x34 }
  - { offsetInCU: 0xED0C, offset: 0x33E5F, size: 0x8, addend: 0x0, symName: __ZNSt3__128__exception_guard_exceptionsINS_29_AllocatorDestroyRangeReverseINS_9allocatorINS_6vectorI4EdgeNS2_IS4_EEEEEENS_16reverse_iteratorIPS6_EEEEEC2B8ue170006ESB_, symObjAddr: 0x3CD4, symBinAddr: 0x100013FA0, symSize: 0x30 }
  - { offsetInCU: 0xED44, offset: 0x33E97, size: 0x8, addend: 0x0, symName: __ZNSt3__129_AllocatorDestroyRangeReverseINS_9allocatorINS_6vectorI4EdgeNS1_IS3_EEEEEENS_16reverse_iteratorIPS5_EEEC2B8ue170006ERS6_RS9_SC_, symObjAddr: 0x3D04, symBinAddr: 0x100013FD0, symSize: 0x38 }
  - { offsetInCU: 0xED9A, offset: 0x33EED, size: 0x8, addend: 0x0, symName: __ZNSt3__19allocatorINS_6vectorI4EdgeNS0_IS2_EEEEE9constructB8ue170006IS4_JS4_EEEvPT_DpOT0_, symObjAddr: 0x3D3C, symBinAddr: 0x100014008, symSize: 0x30 }
  - { offsetInCU: 0xEDEF, offset: 0x33F42, size: 0x8, addend: 0x0, symName: __ZNSt3__16vectorI4EdgeNS_9allocatorIS1_EEEC1B8ue170006EOS4_, symObjAddr: 0x3D6C, symBinAddr: 0x100014038, symSize: 0x34 }
  - { offsetInCU: 0xEE29, offset: 0x33F7C, size: 0x8, addend: 0x0, symName: __ZNSt3__16vectorI4EdgeNS_9allocatorIS1_EEEC2B8ue170006EOS4_, symObjAddr: 0x3DA0, symBinAddr: 0x10001406C, symSize: 0xC4 }
  - { offsetInCU: 0xEE68, offset: 0x33FBB, size: 0x8, addend: 0x0, symName: __ZNSt3__117__compressed_pairIP4EdgeNS_9allocatorIS1_EEEC1B8ue170006IDnS4_EEOT_OT0_, symObjAddr: 0x3E64, symBinAddr: 0x100014130, symSize: 0x3C }
  - { offsetInCU: 0xEEBF, offset: 0x34012, size: 0x8, addend: 0x0, symName: __ZNSt3__16vectorI4EdgeNS_9allocatorIS1_EEE9__end_capB8ue170006Ev, symObjAddr: 0x3EA0, symBinAddr: 0x10001416C, symSize: 0x28 }
  - { offsetInCU: 0xEEE4, offset: 0x34037, size: 0x8, addend: 0x0, symName: __ZNSt3__117__compressed_pairIP4EdgeNS_9allocatorIS1_EEEC2B8ue170006IDnS4_EEOT_OT0_, symObjAddr: 0x3EC8, symBinAddr: 0x100014194, symSize: 0x44 }
  - { offsetInCU: 0xEF3B, offset: 0x3408E, size: 0x8, addend: 0x0, symName: __ZNSt3__122__compressed_pair_elemIP4EdgeLi0ELb0EEC2B8ue170006IDnvEEOT_, symObjAddr: 0x3F0C, symBinAddr: 0x1000141D8, symSize: 0x1C }
  - { offsetInCU: 0xEF7C, offset: 0x340CF, size: 0x8, addend: 0x0, symName: __ZNSt3__122__compressed_pair_elemINS_9allocatorI4EdgeEELi1ELb1EEC2B8ue170006IS3_vEEOT_, symObjAddr: 0x3F28, symBinAddr: 0x1000141F4, symSize: 0x18 }
  - { offsetInCU: 0xEFBD, offset: 0x34110, size: 0x8, addend: 0x0, symName: __ZNSt3__117__compressed_pairIP4EdgeNS_9allocatorIS1_EEE5firstB8ue170006Ev, symObjAddr: 0x3F40, symBinAddr: 0x10001420C, symSize: 0x24 }
  - { offsetInCU: 0xEFE2, offset: 0x34135, size: 0x8, addend: 0x0, symName: __ZNSt3__122__compressed_pair_elemIP4EdgeLi0ELb0EE5__getB8ue170006Ev, symObjAddr: 0x3F64, symBinAddr: 0x100014230, symSize: 0x14 }
  - { offsetInCU: 0xF00C, offset: 0x3415F, size: 0x8, addend: 0x0, symName: __ZNSt3__119__to_address_helperINS_16reverse_iteratorIPNS_6vectorI4EdgeNS_9allocatorIS3_EEEEEEvE6__callB8ue170006ERKS8_, symObjAddr: 0x3F78, symBinAddr: 0x100014244, symSize: 0x38 }
  - { offsetInCU: 0xF02F, offset: 0x34182, size: 0x8, addend: 0x0, symName: __ZNKSt3__116reverse_iteratorIPNS_6vectorI4EdgeNS_9allocatorIS2_EEEEEptB8ue170006Ev, symObjAddr: 0x3FB0, symBinAddr: 0x10001427C, symSize: 0x24 }
  - { offsetInCU: 0xF054, offset: 0x341A7, size: 0x8, addend: 0x0, symName: __ZNSt3__128__exception_guard_exceptionsINS_29_AllocatorDestroyRangeReverseINS_9allocatorINS_6vectorI4EdgeNS2_IS4_EEEEEENS_16reverse_iteratorIPS6_EEEEED2B8ue170006Ev, symObjAddr: 0x3FD4, symBinAddr: 0x1000142A0, symSize: 0x50 }
  - { offsetInCU: 0xF07D, offset: 0x341D0, size: 0x8, addend: 0x0, symName: __ZNKSt3__129_AllocatorDestroyRangeReverseINS_9allocatorINS_6vectorI4EdgeNS1_IS3_EEEEEENS_16reverse_iteratorIPS5_EEEclB8ue170006Ev, symObjAddr: 0x4024, symBinAddr: 0x1000142F0, symSize: 0xB4 }
  - { offsetInCU: 0xF0A3, offset: 0x341F6, size: 0x8, addend: 0x0, symName: __ZNSt3__116reverse_iteratorINS0_IPNS_6vectorI4EdgeNS_9allocatorIS2_EEEEEEEC1B8ue170006ES7_, symObjAddr: 0x4148, symBinAddr: 0x100014414, symSize: 0x3C }
  - { offsetInCU: 0xF0DA, offset: 0x3422D, size: 0x8, addend: 0x0, symName: __ZNSt3__116reverse_iteratorINS0_IPNS_6vectorI4EdgeNS_9allocatorIS2_EEEEEEEppB8ue170006Ev, symObjAddr: 0x4208, symBinAddr: 0x1000144D4, symSize: 0x30 }
  - { offsetInCU: 0xF0FF, offset: 0x34252, size: 0x8, addend: 0x0, symName: __ZNKSt3__116reverse_iteratorINS0_IPNS_6vectorI4EdgeNS_9allocatorIS2_EEEEEEE4baseB8ue170006Ev, symObjAddr: 0x4238, symBinAddr: 0x100014504, symSize: 0x24 }
  - { offsetInCU: 0xF129, offset: 0x3427C, size: 0x8, addend: 0x0, symName: __ZNSt3__119__to_address_helperINS_16reverse_iteratorINS1_IPNS_6vectorI4EdgeNS_9allocatorIS3_EEEEEEEEvE6__callB8ue170006ERKS9_, symObjAddr: 0x425C, symBinAddr: 0x100014528, symSize: 0x38 }
  - { offsetInCU: 0xF14C, offset: 0x3429F, size: 0x8, addend: 0x0, symName: __ZNKSt3__116reverse_iteratorINS0_IPNS_6vectorI4EdgeNS_9allocatorIS2_EEEEEEEptB8ue170006Ev, symObjAddr: 0x4294, symBinAddr: 0x100014560, symSize: 0x24 }
  - { offsetInCU: 0xF171, offset: 0x342C4, size: 0x8, addend: 0x0, symName: __ZNKSt3__116reverse_iteratorINS0_IPNS_6vectorI4EdgeNS_9allocatorIS2_EEEEEEEdeB8ue170006Ev, symObjAddr: 0x42B8, symBinAddr: 0x100014584, symSize: 0x34 }
  - { offsetInCU: 0xF1A4, offset: 0x342F7, size: 0x8, addend: 0x0, symName: __ZNSt3__116reverse_iteratorIPNS_6vectorI4EdgeNS_9allocatorIS2_EEEEEmmB8ue170006Ev, symObjAddr: 0x42EC, symBinAddr: 0x1000145B8, symSize: 0x20 }
  - { offsetInCU: 0xF1C9, offset: 0x3431C, size: 0x8, addend: 0x0, symName: __ZNSt3__116reverse_iteratorINS0_IPNS_6vectorI4EdgeNS_9allocatorIS2_EEEEEEEC2B8ue170006ES7_, symObjAddr: 0x430C, symBinAddr: 0x1000145D8, symSize: 0x2C }
  - { offsetInCU: 0xF200, offset: 0x34353, size: 0x8, addend: 0x0, symName: __ZNSt3__116reverse_iteratorIPNS_6vectorI4EdgeNS_9allocatorIS2_EEEEEC2B8ue170006ES6_, symObjAddr: 0x4338, symBinAddr: 0x100014604, symSize: 0x28 }
  - { offsetInCU: 0xF237, offset: 0x3438A, size: 0x8, addend: 0x0, symName: __ZNSt3__114__split_bufferINS_6vectorI4EdgeNS_9allocatorIS2_EEEERNS3_IS5_EEED2Ev, symObjAddr: 0x4360, symBinAddr: 0x10001462C, symSize: 0x8C }
  - { offsetInCU: 0xF262, offset: 0x343B5, size: 0x8, addend: 0x0, symName: __ZNSt3__114__split_bufferINS_6vectorI4EdgeNS_9allocatorIS2_EEEERNS3_IS5_EEE5clearB8ue170006Ev, symObjAddr: 0x43EC, symBinAddr: 0x1000146B8, symSize: 0x28 }
  - { offsetInCU: 0xF287, offset: 0x343DA, size: 0x8, addend: 0x0, symName: __ZNKSt3__114__split_bufferINS_6vectorI4EdgeNS_9allocatorIS2_EEEERNS3_IS5_EEE8capacityB8ue170006Ev, symObjAddr: 0x4414, symBinAddr: 0x1000146E0, symSize: 0x40 }
  - { offsetInCU: 0xF2AC, offset: 0x343FF, size: 0x8, addend: 0x0, symName: __ZNSt3__114__split_bufferINS_6vectorI4EdgeNS_9allocatorIS2_EEEERNS3_IS5_EEE17__destruct_at_endB8ue170006EPS5_, symObjAddr: 0x4454, symBinAddr: 0x100014720, symSize: 0x2C }
  - { offsetInCU: 0xF2DE, offset: 0x34431, size: 0x8, addend: 0x0, symName: __ZNSt3__114__split_bufferINS_6vectorI4EdgeNS_9allocatorIS2_EEEERNS3_IS5_EEE17__destruct_at_endB8ue170006EPS5_NS_17integral_constantIbLb0EEE, symObjAddr: 0x4480, symBinAddr: 0x10001474C, symSize: 0x80 }
  - { offsetInCU: 0xF31D, offset: 0x34470, size: 0x8, addend: 0x0, symName: __ZNKSt3__114__split_bufferINS_6vectorI4EdgeNS_9allocatorIS2_EEEERNS3_IS5_EEE9__end_capB8ue170006Ev, symObjAddr: 0x4500, symBinAddr: 0x1000147CC, symSize: 0x28 }
  - { offsetInCU: 0xF342, offset: 0x34495, size: 0x8, addend: 0x0, symName: __ZNKSt3__117__compressed_pairIPNS_6vectorI4EdgeNS_9allocatorIS2_EEEERNS3_IS5_EEE5firstB8ue170006Ev, symObjAddr: 0x4528, symBinAddr: 0x1000147F4, symSize: 0x24 }
  - { offsetInCU: 0xF367, offset: 0x344BA, size: 0x8, addend: 0x0, symName: __ZNKSt3__16vectorINS0_I4EdgeNS_9allocatorIS1_EEEENS2_IS4_EEE17__annotate_shrinkB8ue170006Em, symObjAddr: 0x454C, symBinAddr: 0x100014818, symSize: 0xD0 }
  - { offsetInCU: 0xF39B, offset: 0x344EE, size: 0x8, addend: 0x0, symName: __ZNSt3__16vectorI4EdgeNS_9allocatorIS1_EEEC2B8ue170006Ev, symObjAddr: 0x4960, symBinAddr: 0x1000148E8, symSize: 0x4C }
  - { offsetInCU: 0xF3C4, offset: 0x34517, size: 0x8, addend: 0x0, symName: __ZNSt3__117__compressed_pairIP4EdgeNS_9allocatorIS1_EEEC1B8ue170006IDnNS_18__default_init_tagEEEOT_OT0_, symObjAddr: 0x49AC, symBinAddr: 0x100014934, symSize: 0x3C }
  - { offsetInCU: 0xF41B, offset: 0x3456E, size: 0x8, addend: 0x0, symName: __ZNSt3__117__compressed_pairIP4EdgeNS_9allocatorIS1_EEEC2B8ue170006IDnNS_18__default_init_tagEEEOT_OT0_, symObjAddr: 0x49E8, symBinAddr: 0x100014970, symSize: 0x40 }
  - { offsetInCU: 0xF472, offset: 0x345C5, size: 0x8, addend: 0x0, symName: __ZNSt3__122__compressed_pair_elemINS_9allocatorI4EdgeEELi1ELb1EEC2B8ue170006ENS_18__default_init_tagE, symObjAddr: 0x4A28, symBinAddr: 0x1000149B0, symSize: 0x2C }
  - { offsetInCU: 0xF4A5, offset: 0x345F8, size: 0x8, addend: 0x0, symName: __ZNSt3__19allocatorI4EdgeEC2B8ue170006Ev, symObjAddr: 0x4A54, symBinAddr: 0x1000149DC, symSize: 0x2C }
  - { offsetInCU: 0xF4CE, offset: 0x34621, size: 0x8, addend: 0x0, symName: __ZNSt3__116__non_trivial_ifILb1ENS_9allocatorI4EdgeEEEC2B8ue170006Ev, symObjAddr: 0x4A80, symBinAddr: 0x100014A08, symSize: 0x14 }
  - { offsetInCU: 0xF4F7, offset: 0x3464A, size: 0x8, addend: 0x0, symName: __ZNSt3__16vectorI4EdgeNS_9allocatorIS1_EEED2B8ue170006Ev, symObjAddr: 0x4A94, symBinAddr: 0x100014A1C, symSize: 0x44 }
  - { offsetInCU: 0xF520, offset: 0x34673, size: 0x8, addend: 0x0, symName: __ZNSt3__16vectorI4EdgeNS_9allocatorIS1_EEE16__destroy_vectorC1B8ue170006ERS4_, symObjAddr: 0x4AD8, symBinAddr: 0x100014A60, symSize: 0x34 }
  - { offsetInCU: 0xF558, offset: 0x346AB, size: 0x8, addend: 0x0, symName: __ZNSt3__16vectorI4EdgeNS_9allocatorIS1_EEE16__destroy_vectorclB8ue170006Ev, symObjAddr: 0x4B0C, symBinAddr: 0x100014A94, symSize: 0x90 }
  - { offsetInCU: 0xF57D, offset: 0x346D0, size: 0x8, addend: 0x0, symName: __ZNSt3__16vectorI4EdgeNS_9allocatorIS1_EEE16__destroy_vectorC2B8ue170006ERS4_, symObjAddr: 0x4B9C, symBinAddr: 0x100014B24, symSize: 0x20 }
  - { offsetInCU: 0xF5B5, offset: 0x34708, size: 0x8, addend: 0x0, symName: __ZNSt3__16vectorI4EdgeNS_9allocatorIS1_EEE7__clearB8ue170006Ev, symObjAddr: 0x4BBC, symBinAddr: 0x100014B44, symSize: 0x28 }
  - { offsetInCU: 0xF5DA, offset: 0x3472D, size: 0x8, addend: 0x0, symName: __ZNKSt3__16vectorI4EdgeNS_9allocatorIS1_EEE17__annotate_deleteB8ue170006Ev, symObjAddr: 0x4BE4, symBinAddr: 0x100014B6C, symSize: 0xB8 }
  - { offsetInCU: 0xF5FF, offset: 0x34752, size: 0x8, addend: 0x0, symName: __ZNSt3__116allocator_traitsINS_9allocatorI4EdgeEEE10deallocateB8ue170006ERS3_PS2_m, symObjAddr: 0x4C9C, symBinAddr: 0x100014C24, symSize: 0x34 }
  - { offsetInCU: 0xF641, offset: 0x34794, size: 0x8, addend: 0x0, symName: __ZNSt3__19allocatorI4EdgeE10deallocateB8ue170006EPS1_m, symObjAddr: 0x4CD0, symBinAddr: 0x100014C58, symSize: 0x40 }
  - { offsetInCU: 0xF681, offset: 0x347D4, size: 0x8, addend: 0x0, symName: __ZNSt3__16vectorINS0_I4EdgeNS_9allocatorIS1_EEEENS2_IS4_EEE8__appendEmRKS4_, symObjAddr: 0x4D10, symBinAddr: 0x100014C98, symSize: 0x114 }
  - { offsetInCU: 0xF6EA, offset: 0x3483D, size: 0x8, addend: 0x0, symName: __ZNSt3__16vectorINS0_I4EdgeNS_9allocatorIS1_EEEENS2_IS4_EEE18__construct_at_endEmRKS4_, symObjAddr: 0x4E24, symBinAddr: 0x100014DAC, symSize: 0xD0 }
  - { offsetInCU: 0xF769, offset: 0x348BC, size: 0x8, addend: 0x0, symName: __ZNSt3__114__split_bufferINS_6vectorI4EdgeNS_9allocatorIS2_EEEERNS3_IS5_EEE18__construct_at_endEmRKS5_, symObjAddr: 0x4EF4, symBinAddr: 0x100014E7C, symSize: 0xBC }
  - { offsetInCU: 0xF7BB, offset: 0x3490E, size: 0x8, addend: 0x0, symName: __ZNSt3__116allocator_traitsINS_9allocatorINS_6vectorI4EdgeNS1_IS3_EEEEEEE9constructB8ue170006IS5_JRKS5_EvEEvRS6_PT_DpOT0_, symObjAddr: 0x4FB0, symBinAddr: 0x100014F38, symSize: 0x34 }
  - { offsetInCU: 0xF812, offset: 0x34965, size: 0x8, addend: 0x0, symName: __ZNSt3__19allocatorINS_6vectorI4EdgeNS0_IS2_EEEEE9constructB8ue170006IS4_JRKS4_EEEvPT_DpOT0_, symObjAddr: 0x4FE4, symBinAddr: 0x100014F6C, symSize: 0x30 }
  - { offsetInCU: 0xF867, offset: 0x349BA, size: 0x8, addend: 0x0, symName: __ZNSt3__16vectorI4EdgeNS_9allocatorIS1_EEE22__construct_one_at_endB8ue170006IJRKS1_EEEvDpOT_, symObjAddr: 0x5064, symBinAddr: 0x100014F9C, symSize: 0x90 }
  - { offsetInCU: 0xF8B4, offset: 0x34A07, size: 0x8, addend: 0x0, symName: __ZNSt3__16vectorI4EdgeNS_9allocatorIS1_EEE21__push_back_slow_pathIRKS1_EEvOT_, symObjAddr: 0x50F4, symBinAddr: 0x10001502C, symSize: 0xD8 }
  - { offsetInCU: 0xF92A, offset: 0x34A7D, size: 0x8, addend: 0x0, symName: __ZNSt3__16vectorI4EdgeNS_9allocatorIS1_EEE21_ConstructTransactionC1B8ue170006ERS4_m, symObjAddr: 0x51CC, symBinAddr: 0x100015104, symSize: 0x3C }
  - { offsetInCU: 0xF971, offset: 0x34AC4, size: 0x8, addend: 0x0, symName: __ZNSt3__116allocator_traitsINS_9allocatorI4EdgeEEE9constructB8ue170006IS2_JRKS2_EvEEvRS3_PT_DpOT0_, symObjAddr: 0x5208, symBinAddr: 0x100015140, symSize: 0x34 }
  - { offsetInCU: 0xF9C8, offset: 0x34B1B, size: 0x8, addend: 0x0, symName: __ZNSt3__16vectorI4EdgeNS_9allocatorIS1_EEE21_ConstructTransactionD1B8ue170006Ev, symObjAddr: 0x523C, symBinAddr: 0x100015174, symSize: 0x2C }
  - { offsetInCU: 0xF9F1, offset: 0x34B44, size: 0x8, addend: 0x0, symName: __ZNSt3__16vectorI4EdgeNS_9allocatorIS1_EEE21_ConstructTransactionC2B8ue170006ERS4_m, symObjAddr: 0x5268, symBinAddr: 0x1000151A0, symSize: 0x44 }
  - { offsetInCU: 0xFA38, offset: 0x34B8B, size: 0x8, addend: 0x0, symName: __ZNSt3__19allocatorI4EdgeE9constructB8ue170006IS1_JRKS1_EEEvPT_DpOT0_, symObjAddr: 0x52AC, symBinAddr: 0x1000151E4, symSize: 0x28 }
  - { offsetInCU: 0xFA8D, offset: 0x34BE0, size: 0x8, addend: 0x0, symName: __ZNSt3__16vectorI4EdgeNS_9allocatorIS1_EEE21_ConstructTransactionD2B8ue170006Ev, symObjAddr: 0x52D4, symBinAddr: 0x10001520C, symSize: 0x20 }
  - { offsetInCU: 0xFAB5, offset: 0x34C08, size: 0x8, addend: 0x0, symName: __ZNKSt3__16vectorI4EdgeNS_9allocatorIS1_EEE11__recommendB8ue170006Em, symObjAddr: 0x52F4, symBinAddr: 0x10001522C, symSize: 0xB4 }
  - { offsetInCU: 0xFB09, offset: 0x34C5C, size: 0x8, addend: 0x0, symName: __ZNSt3__114__split_bufferI4EdgeRNS_9allocatorIS1_EEEC1EmmS4_, symObjAddr: 0x53A8, symBinAddr: 0x1000152E0, symSize: 0x44 }
  - { offsetInCU: 0xFB5E, offset: 0x34CB1, size: 0x8, addend: 0x0, symName: __ZNSt3__114__split_bufferI4EdgeRNS_9allocatorIS1_EEED1Ev, symObjAddr: 0x54FC, symBinAddr: 0x100015434, symSize: 0x2C }
  - { offsetInCU: 0xFB88, offset: 0x34CDB, size: 0x8, addend: 0x0, symName: __ZNKSt3__16vectorI4EdgeNS_9allocatorIS1_EEE8max_sizeEv, symObjAddr: 0x5528, symBinAddr: 0x100015460, symSize: 0x60 }
  - { offsetInCU: 0xFBAF, offset: 0x34D02, size: 0x8, addend: 0x0, symName: __ZNKSt3__16vectorI4EdgeNS_9allocatorIS1_EEE20__throw_length_errorB8ue170006Ev, symObjAddr: 0x5588, symBinAddr: 0x1000154C0, symSize: 0x1C }
  - { offsetInCU: 0xFBDE, offset: 0x34D31, size: 0x8, addend: 0x0, symName: __ZNSt3__116allocator_traitsINS_9allocatorI4EdgeEEE8max_sizeB8ue170006IS3_vEEmRKS3_, symObjAddr: 0x55A4, symBinAddr: 0x1000154DC, symSize: 0x24 }
  - { offsetInCU: 0xFC0C, offset: 0x34D5F, size: 0x8, addend: 0x0, symName: __ZNKSt3__16vectorI4EdgeNS_9allocatorIS1_EEE7__allocB8ue170006Ev, symObjAddr: 0x55C8, symBinAddr: 0x100015500, symSize: 0x28 }
  - { offsetInCU: 0xFC31, offset: 0x34D84, size: 0x8, addend: 0x0, symName: __ZNKSt3__19allocatorI4EdgeE8max_sizeB8ue170006Ev, symObjAddr: 0x55F0, symBinAddr: 0x100015528, symSize: 0x14 }
  - { offsetInCU: 0xFC56, offset: 0x34DA9, size: 0x8, addend: 0x0, symName: __ZNKSt3__117__compressed_pairIP4EdgeNS_9allocatorIS1_EEE6secondB8ue170006Ev, symObjAddr: 0x5604, symBinAddr: 0x10001553C, symSize: 0x24 }
  - { offsetInCU: 0xFC7B, offset: 0x34DCE, size: 0x8, addend: 0x0, symName: __ZNKSt3__122__compressed_pair_elemINS_9allocatorI4EdgeEELi1ELb1EE5__getB8ue170006Ev, symObjAddr: 0x5628, symBinAddr: 0x100015560, symSize: 0x14 }
  - { offsetInCU: 0xFCA0, offset: 0x34DF3, size: 0x8, addend: 0x0, symName: __ZNSt3__114__split_bufferI4EdgeRNS_9allocatorIS1_EEEC2EmmS4_, symObjAddr: 0x563C, symBinAddr: 0x100015574, symSize: 0xD4 }
  - { offsetInCU: 0xFD12, offset: 0x34E65, size: 0x8, addend: 0x0, symName: __ZNSt3__117__compressed_pairIP4EdgeRNS_9allocatorIS1_EEEC1B8ue170006IDnS5_EEOT_OT0_, symObjAddr: 0x5710, symBinAddr: 0x100015648, symSize: 0x3C }
  - { offsetInCU: 0xFD69, offset: 0x34EBC, size: 0x8, addend: 0x0, symName: __ZNSt3__114__split_bufferI4EdgeRNS_9allocatorIS1_EEE7__allocB8ue170006Ev, symObjAddr: 0x578C, symBinAddr: 0x1000156C4, symSize: 0x28 }
  - { offsetInCU: 0xFD8E, offset: 0x34EE1, size: 0x8, addend: 0x0, symName: __ZNSt3__114__split_bufferI4EdgeRNS_9allocatorIS1_EEE9__end_capB8ue170006Ev, symObjAddr: 0x57B4, symBinAddr: 0x1000156EC, symSize: 0x28 }
  - { offsetInCU: 0xFDB3, offset: 0x34F06, size: 0x8, addend: 0x0, symName: __ZNSt3__117__compressed_pairIP4EdgeRNS_9allocatorIS1_EEEC2B8ue170006IDnS5_EEOT_OT0_, symObjAddr: 0x57DC, symBinAddr: 0x100015714, symSize: 0x48 }
  - { offsetInCU: 0xFE0A, offset: 0x34F5D, size: 0x8, addend: 0x0, symName: __ZNSt3__122__compressed_pair_elemIRNS_9allocatorI4EdgeEELi1ELb0EEC2B8ue170006IS4_vEEOT_, symObjAddr: 0x5824, symBinAddr: 0x10001575C, symSize: 0x20 }
  - { offsetInCU: 0xFE4B, offset: 0x34F9E, size: 0x8, addend: 0x0, symName: __ZNSt3__19allocatorI4EdgeE8allocateB8ue170006Em, symObjAddr: 0x5844, symBinAddr: 0x10001577C, symSize: 0x58 }
  - { offsetInCU: 0xFE7E, offset: 0x34FD1, size: 0x8, addend: 0x0, symName: __ZNSt3__117__compressed_pairIP4EdgeRNS_9allocatorIS1_EEE6secondB8ue170006Ev, symObjAddr: 0x589C, symBinAddr: 0x1000157D4, symSize: 0x28 }
  - { offsetInCU: 0xFEA3, offset: 0x34FF6, size: 0x8, addend: 0x0, symName: __ZNSt3__122__compressed_pair_elemIRNS_9allocatorI4EdgeEELi1ELb0EE5__getB8ue170006Ev, symObjAddr: 0x58C4, symBinAddr: 0x1000157FC, symSize: 0x18 }
  - { offsetInCU: 0xFEC8, offset: 0x3501B, size: 0x8, addend: 0x0, symName: __ZNSt3__117__compressed_pairIP4EdgeRNS_9allocatorIS1_EEE5firstB8ue170006Ev, symObjAddr: 0x58DC, symBinAddr: 0x100015814, symSize: 0x24 }
  - { offsetInCU: 0xFEED, offset: 0x35040, size: 0x8, addend: 0x0, symName: __ZNSt3__116reverse_iteratorIP4EdgeEC1B8ue170006ES2_, symObjAddr: 0x5978, symBinAddr: 0x1000158B0, symSize: 0x34 }
  - { offsetInCU: 0xFF24, offset: 0x35077, size: 0x8, addend: 0x0, symName: __ZNKSt3__116reverse_iteratorIP4EdgeE4baseB8ue170006Ev, symObjAddr: 0x59AC, symBinAddr: 0x1000158E4, symSize: 0x18 }
  - { offsetInCU: 0xFF49, offset: 0x3509C, size: 0x8, addend: 0x0, symName: __ZNKSt3__16vectorI4EdgeNS_9allocatorIS1_EEE14__annotate_newB8ue170006Em, symObjAddr: 0x5A00, symBinAddr: 0x100015938, symSize: 0xAC }
  - { offsetInCU: 0xFFA0, offset: 0x350F3, size: 0x8, addend: 0x0, symName: __ZNKSt3__111__move_loopINS_17_ClassicAlgPolicyEEclB8ue170006INS_16reverse_iteratorIP4EdgeEES7_S7_EENS_4pairIT_T1_EES9_T0_SA_, symObjAddr: 0x5D9C, symBinAddr: 0x100015CD4, symSize: 0xA0 }
  - { offsetInCU: 0x1000F, offset: 0x35162, size: 0x8, addend: 0x0, symName: __ZNSt3__18_IterOpsINS_17_ClassicAlgPolicyEE11__iter_moveB8ue170006IRNS_16reverse_iteratorIP4EdgeEEEENS_9enable_ifIXsr12is_referenceIDTdeclsr3stdE7declvalIRT_EEEEE5valueEDTclsr3stdE4movedeclsr3stdE7declvalISB_EEEEE4typeEOSA_, symObjAddr: 0x5FD0, symBinAddr: 0x100015F08, symSize: 0x28 }
  - { offsetInCU: 0x1003B, offset: 0x3518E, size: 0x8, addend: 0x0, symName: __ZNKSt3__116reverse_iteratorIP4EdgeEdeB8ue170006Ev, symObjAddr: 0x5FF8, symBinAddr: 0x100015F30, symSize: 0x28 }
  - { offsetInCU: 0x1006E, offset: 0x351C1, size: 0x8, addend: 0x0, symName: __ZNSt3__116reverse_iteratorIP4EdgeEppB8ue170006Ev, symObjAddr: 0x6020, symBinAddr: 0x100015F58, symSize: 0x20 }
  - { offsetInCU: 0x10093, offset: 0x351E6, size: 0x8, addend: 0x0, symName: __ZNSt3__18_IterOpsINS_17_ClassicAlgPolicyEE25__validate_iter_referenceB8ue170006IRNS_16reverse_iteratorIP4EdgeEEEEvv, symObjAddr: 0x6040, symBinAddr: 0x100015F78, symSize: 0x4 }
  - { offsetInCU: 0x100B1, offset: 0x35204, size: 0x8, addend: 0x0, symName: __ZNSt3__118__unwrap_iter_implINS_16reverse_iteratorIP4EdgeEELb0EE8__unwrapB8ue170006ES4_, symObjAddr: 0x6044, symBinAddr: 0x100015F7C, symSize: 0x24 }
  - { offsetInCU: 0x100D9, offset: 0x3522C, size: 0x8, addend: 0x0, symName: __ZNSt3__14pairINS_16reverse_iteratorIP4EdgeEES4_EC1B8ue170006IS4_S4_LPv0EEEOT_OT0_, symObjAddr: 0x6068, symBinAddr: 0x100015FA0, symSize: 0x3C }
  - { offsetInCU: 0x10136, offset: 0x35289, size: 0x8, addend: 0x0, symName: __ZNSt3__14pairINS_16reverse_iteratorIP4EdgeEES4_EC2B8ue170006IS4_S4_LPv0EEEOT_OT0_, symObjAddr: 0x60A4, symBinAddr: 0x100015FDC, symSize: 0x34 }
  - { offsetInCU: 0x10193, offset: 0x352E6, size: 0x8, addend: 0x0, symName: __ZNSt3__118__unwrap_iter_implINS_16reverse_iteratorIP4EdgeEELb0EE8__rewrapB8ue170006ES4_S4_, symObjAddr: 0x60D8, symBinAddr: 0x100016010, symSize: 0x2C }
  - { offsetInCU: 0x101C0, offset: 0x35313, size: 0x8, addend: 0x0, symName: __ZNSt3__116reverse_iteratorIP4EdgeEC2B8ue170006ES2_, symObjAddr: 0x6104, symBinAddr: 0x10001603C, symSize: 0x28 }
  - { offsetInCU: 0x101F7, offset: 0x3534A, size: 0x8, addend: 0x0, symName: __ZNSt3__114__split_bufferI4EdgeRNS_9allocatorIS1_EEED2Ev, symObjAddr: 0x612C, symBinAddr: 0x100016064, symSize: 0x8C }
  - { offsetInCU: 0x10222, offset: 0x35375, size: 0x8, addend: 0x0, symName: __ZNSt3__114__split_bufferI4EdgeRNS_9allocatorIS1_EEE5clearB8ue170006Ev, symObjAddr: 0x61B8, symBinAddr: 0x1000160F0, symSize: 0x28 }
  - { offsetInCU: 0x10247, offset: 0x3539A, size: 0x8, addend: 0x0, symName: __ZNKSt3__114__split_bufferI4EdgeRNS_9allocatorIS1_EEE8capacityB8ue170006Ev, symObjAddr: 0x61E0, symBinAddr: 0x100016118, symSize: 0x40 }
  - { offsetInCU: 0x1026C, offset: 0x353BF, size: 0x8, addend: 0x0, symName: __ZNSt3__114__split_bufferI4EdgeRNS_9allocatorIS1_EEE17__destruct_at_endB8ue170006EPS1_, symObjAddr: 0x6220, symBinAddr: 0x100016158, symSize: 0x2C }
  - { offsetInCU: 0x1029E, offset: 0x353F1, size: 0x8, addend: 0x0, symName: __ZNSt3__114__split_bufferI4EdgeRNS_9allocatorIS1_EEE17__destruct_at_endB8ue170006EPS1_NS_17integral_constantIbLb0EEE, symObjAddr: 0x624C, symBinAddr: 0x100016184, symSize: 0x80 }
  - { offsetInCU: 0x102DD, offset: 0x35430, size: 0x8, addend: 0x0, symName: __ZNKSt3__114__split_bufferI4EdgeRNS_9allocatorIS1_EEE9__end_capB8ue170006Ev, symObjAddr: 0x62CC, symBinAddr: 0x100016204, symSize: 0x28 }
  - { offsetInCU: 0x10302, offset: 0x35455, size: 0x8, addend: 0x0, symName: __ZNKSt3__117__compressed_pairIP4EdgeRNS_9allocatorIS1_EEE5firstB8ue170006Ev, symObjAddr: 0x62F4, symBinAddr: 0x10001622C, symSize: 0x24 }
  - { offsetInCU: 0x10327, offset: 0x3547A, size: 0x8, addend: 0x0, symName: __ZNKSt3__16vectorI4EdgeNS_9allocatorIS1_EEE11__make_iterB8ue170006EPKS1_, symObjAddr: 0x6318, symBinAddr: 0x100016250, symSize: 0x30 }
  - { offsetInCU: 0x1035B, offset: 0x354AE, size: 0x8, addend: 0x0, symName: __ZNSt3__111__wrap_iterIPK4EdgeEC1B8ue170006ES3_, symObjAddr: 0x6348, symBinAddr: 0x100016280, symSize: 0x34 }
  - { offsetInCU: 0x10392, offset: 0x354E5, size: 0x8, addend: 0x0, symName: __ZNSt3__111__wrap_iterIPK4EdgeEC2B8ue170006ES3_, symObjAddr: 0x637C, symBinAddr: 0x1000162B4, symSize: 0x20 }
  - { offsetInCU: 0x103C9, offset: 0x3551C, size: 0x8, addend: 0x0, symName: __ZNSt3__16vectorINS0_I4EdgeNS_9allocatorIS1_EEEENS2_IS4_EEEC2ERKS6_, symObjAddr: 0x639C, symBinAddr: 0x1000162D4, symSize: 0x94 }
  - { offsetInCU: 0x10403, offset: 0x35556, size: 0x8, addend: 0x0, symName: __ZNSt3__116allocator_traitsINS_9allocatorINS_6vectorI4EdgeNS1_IS3_EEEEEEE37select_on_container_copy_constructionB8ue170006IS6_vvEES6_RKS6_, symObjAddr: 0x6430, symBinAddr: 0x100016368, symSize: 0x10 }
  - { offsetInCU: 0x10437, offset: 0x3558A, size: 0x8, addend: 0x0, symName: __ZNSt3__117__compressed_pairIPNS_6vectorI4EdgeNS_9allocatorIS2_EEEENS3_IS5_EEEC1B8ue170006IDnS7_EEOT_OT0_, symObjAddr: 0x6440, symBinAddr: 0x100016378, symSize: 0x3C }
  - { offsetInCU: 0x1048E, offset: 0x355E1, size: 0x8, addend: 0x0, symName: __ZNSt3__16vectorINS0_I4EdgeNS_9allocatorIS1_EEEENS2_IS4_EEE16__init_with_sizeB8ue170006IPS4_S8_EEvT_T0_m, symObjAddr: 0x647C, symBinAddr: 0x1000163B4, symSize: 0xB8 }
  - { offsetInCU: 0x10501, offset: 0x35654, size: 0x8, addend: 0x0, symName: __ZNSt3__117__compressed_pairIPNS_6vectorI4EdgeNS_9allocatorIS2_EEEENS3_IS5_EEEC2B8ue170006IDnS7_EEOT_OT0_, symObjAddr: 0x6534, symBinAddr: 0x10001646C, symSize: 0x44 }
  - { offsetInCU: 0x10558, offset: 0x356AB, size: 0x8, addend: 0x0, symName: __ZNSt3__122__compressed_pair_elemINS_9allocatorINS_6vectorI4EdgeNS1_IS3_EEEEEELi1ELb1EEC2B8ue170006IS6_vEEOT_, symObjAddr: 0x6578, symBinAddr: 0x1000164B0, symSize: 0x18 }
  - { offsetInCU: 0x10599, offset: 0x356EC, size: 0x8, addend: 0x0, symName: __ZNSt3__16vectorINS0_I4EdgeNS_9allocatorIS1_EEEENS2_IS4_EEE11__vallocateB8ue170006Em, symObjAddr: 0x65D0, symBinAddr: 0x100016508, symSize: 0xB4 }
  - { offsetInCU: 0x105DB, offset: 0x3572E, size: 0x8, addend: 0x0, symName: __ZNSt3__16vectorINS0_I4EdgeNS_9allocatorIS1_EEEENS2_IS4_EEE18__construct_at_endIPS4_S8_EEvT_T0_m, symObjAddr: 0x6684, symBinAddr: 0x1000165BC, symSize: 0x8C }
  - { offsetInCU: 0x10650, offset: 0x357A3, size: 0x8, addend: 0x0, symName: __ZNSt3__128__exception_guard_exceptionsINS_6vectorINS1_I4EdgeNS_9allocatorIS2_EEEENS3_IS5_EEE16__destroy_vectorEE10__completeB8ue170006Ev, symObjAddr: 0x6710, symBinAddr: 0x100016648, symSize: 0x1C }
  - { offsetInCU: 0x10675, offset: 0x357C8, size: 0x8, addend: 0x0, symName: __ZNSt3__128__exception_guard_exceptionsINS_6vectorINS1_I4EdgeNS_9allocatorIS2_EEEENS3_IS5_EEE16__destroy_vectorEED1B8ue170006Ev, symObjAddr: 0x672C, symBinAddr: 0x100016664, symSize: 0x2C }
  - { offsetInCU: 0x1069E, offset: 0x357F1, size: 0x8, addend: 0x0, symName: __ZNSt3__128__exception_guard_exceptionsINS_6vectorINS1_I4EdgeNS_9allocatorIS2_EEEENS3_IS5_EEE16__destroy_vectorEEC1B8ue170006ES8_, symObjAddr: 0x6758, symBinAddr: 0x100016690, symSize: 0x34 }
  - { offsetInCU: 0x106D5, offset: 0x35828, size: 0x8, addend: 0x0, symName: __ZNSt3__128__exception_guard_exceptionsINS_6vectorINS1_I4EdgeNS_9allocatorIS2_EEEENS3_IS5_EEE16__destroy_vectorEEC2B8ue170006ES8_, symObjAddr: 0x678C, symBinAddr: 0x1000166C4, symSize: 0x24 }
  - { offsetInCU: 0x1072A, offset: 0x3587D, size: 0x8, addend: 0x0, symName: __ZNSt3__14pairIPNS_6vectorI4EdgeNS_9allocatorIS2_EEEES6_EC1B8ue170006IS6_S6_LPv0EEEOT_OT0_, symObjAddr: 0x6A1C, symBinAddr: 0x100016954, symSize: 0x3C }
  - { offsetInCU: 0x10787, offset: 0x358DA, size: 0x8, addend: 0x0, symName: __ZNSt3__14pairIPNS_6vectorI4EdgeNS_9allocatorIS2_EEEES6_EC2B8ue170006IS6_S6_LPv0EEEOT_OT0_, symObjAddr: 0x6A58, symBinAddr: 0x100016990, symSize: 0x34 }
  - { offsetInCU: 0x107E4, offset: 0x35937, size: 0x8, addend: 0x0, symName: __ZNSt3__129_AllocatorDestroyRangeReverseINS_9allocatorINS_6vectorI4EdgeNS1_IS3_EEEEEEPS5_EC1B8ue170006ERS6_RS7_SA_, symObjAddr: 0x6AD8, symBinAddr: 0x100016A10, symSize: 0x44 }
  - { offsetInCU: 0x1083A, offset: 0x3598D, size: 0x8, addend: 0x0, symName: __ZNSt3__116allocator_traitsINS_9allocatorINS_6vectorI4EdgeNS1_IS3_EEEEEEE9constructB8ue170006IS5_JRS5_EvEEvRS6_PT_DpOT0_, symObjAddr: 0x6B1C, symBinAddr: 0x100016A54, symSize: 0x34 }
  - { offsetInCU: 0x10891, offset: 0x359E4, size: 0x8, addend: 0x0, symName: __ZNSt3__128__exception_guard_exceptionsINS_29_AllocatorDestroyRangeReverseINS_9allocatorINS_6vectorI4EdgeNS2_IS4_EEEEEEPS6_EEE10__completeB8ue170006Ev, symObjAddr: 0x6B50, symBinAddr: 0x100016A88, symSize: 0x1C }
  - { offsetInCU: 0x108B6, offset: 0x35A09, size: 0x8, addend: 0x0, symName: __ZNSt3__128__exception_guard_exceptionsINS_29_AllocatorDestroyRangeReverseINS_9allocatorINS_6vectorI4EdgeNS2_IS4_EEEEEEPS6_EEED1B8ue170006Ev, symObjAddr: 0x6B6C, symBinAddr: 0x100016AA4, symSize: 0x2C }
  - { offsetInCU: 0x108DF, offset: 0x35A32, size: 0x8, addend: 0x0, symName: __ZNSt3__128__exception_guard_exceptionsINS_29_AllocatorDestroyRangeReverseINS_9allocatorINS_6vectorI4EdgeNS2_IS4_EEEEEEPS6_EEEC1B8ue170006ES9_, symObjAddr: 0x6B98, symBinAddr: 0x100016AD0, symSize: 0x34 }
  - { offsetInCU: 0x10917, offset: 0x35A6A, size: 0x8, addend: 0x0, symName: __ZNSt3__128__exception_guard_exceptionsINS_29_AllocatorDestroyRangeReverseINS_9allocatorINS_6vectorI4EdgeNS2_IS4_EEEEEEPS6_EEEC2B8ue170006ES9_, symObjAddr: 0x6BCC, symBinAddr: 0x100016B04, symSize: 0x30 }
  - { offsetInCU: 0x1094F, offset: 0x35AA2, size: 0x8, addend: 0x0, symName: __ZNSt3__129_AllocatorDestroyRangeReverseINS_9allocatorINS_6vectorI4EdgeNS1_IS3_EEEEEEPS5_EC2B8ue170006ERS6_RS7_SA_, symObjAddr: 0x6BFC, symBinAddr: 0x100016B34, symSize: 0x38 }
  - { offsetInCU: 0x109A5, offset: 0x35AF8, size: 0x8, addend: 0x0, symName: __ZNSt3__19allocatorINS_6vectorI4EdgeNS0_IS2_EEEEE9constructB8ue170006IS4_JRS4_EEEvPT_DpOT0_, symObjAddr: 0x6C34, symBinAddr: 0x100016B6C, symSize: 0x30 }
  - { offsetInCU: 0x109FA, offset: 0x35B4D, size: 0x8, addend: 0x0, symName: __ZNSt3__128__exception_guard_exceptionsINS_29_AllocatorDestroyRangeReverseINS_9allocatorINS_6vectorI4EdgeNS2_IS4_EEEEEEPS6_EEED2B8ue170006Ev, symObjAddr: 0x6C64, symBinAddr: 0x100016B9C, symSize: 0x50 }
  - { offsetInCU: 0x10A23, offset: 0x35B76, size: 0x8, addend: 0x0, symName: __ZNKSt3__129_AllocatorDestroyRangeReverseINS_9allocatorINS_6vectorI4EdgeNS1_IS3_EEEEEEPS5_EclB8ue170006Ev, symObjAddr: 0x6CB4, symBinAddr: 0x100016BEC, symSize: 0x68 }
  - { offsetInCU: 0x10A48, offset: 0x35B9B, size: 0x8, addend: 0x0, symName: __ZNSt3__118__unwrap_iter_implIPNS_6vectorI4EdgeNS_9allocatorIS2_EEEELb1EE8__unwrapB8ue170006ES6_, symObjAddr: 0x6D8C, symBinAddr: 0x100016CC4, symSize: 0x24 }
  - { offsetInCU: 0x10A6B, offset: 0x35BBE, size: 0x8, addend: 0x0, symName: __ZNSt3__118__unwrap_iter_implIPNS_6vectorI4EdgeNS_9allocatorIS2_EEEELb1EE8__rewrapB8ue170006ES6_S6_, symObjAddr: 0x6DB0, symBinAddr: 0x100016CE8, symSize: 0x58 }
  - { offsetInCU: 0x10A9C, offset: 0x35BEF, size: 0x8, addend: 0x0, symName: __ZNSt3__128__exception_guard_exceptionsINS_6vectorINS1_I4EdgeNS_9allocatorIS2_EEEENS3_IS5_EEE16__destroy_vectorEED2B8ue170006Ev, symObjAddr: 0x6E08, symBinAddr: 0x100016D40, symSize: 0x48 }
  - { offsetInCU: 0x10AC5, offset: 0x35C18, size: 0x8, addend: 0x0, symName: __ZNSt3__16vectorI4EdgeNS_9allocatorIS1_EEEC2ERKS4_, symObjAddr: 0x6E50, symBinAddr: 0x100016D88, symSize: 0x94 }
  - { offsetInCU: 0x10AFF, offset: 0x35C52, size: 0x8, addend: 0x0, symName: __ZNSt3__116allocator_traitsINS_9allocatorI4EdgeEEE37select_on_container_copy_constructionB8ue170006IS3_vvEES3_RKS3_, symObjAddr: 0x6EE4, symBinAddr: 0x100016E1C, symSize: 0x10 }
  - { offsetInCU: 0x10B2E, offset: 0x35C81, size: 0x8, addend: 0x0, symName: __ZNSt3__16vectorI4EdgeNS_9allocatorIS1_EEE16__init_with_sizeB8ue170006IPS1_S6_EEvT_T0_m, symObjAddr: 0x6EF4, symBinAddr: 0x100016E2C, symSize: 0xB8 }
  - { offsetInCU: 0x10BA1, offset: 0x35CF4, size: 0x8, addend: 0x0, symName: __ZNSt3__16vectorI4EdgeNS_9allocatorIS1_EEE11__vallocateB8ue170006Em, symObjAddr: 0x6FEC, symBinAddr: 0x100016F24, symSize: 0xAC }
  - { offsetInCU: 0x10BE3, offset: 0x35D36, size: 0x8, addend: 0x0, symName: __ZNSt3__16vectorI4EdgeNS_9allocatorIS1_EEE18__construct_at_endIPS1_S6_EEvT_T0_m, symObjAddr: 0x7098, symBinAddr: 0x100016FD0, symSize: 0x8C }
  - { offsetInCU: 0x10C58, offset: 0x35DAB, size: 0x8, addend: 0x0, symName: __ZNSt3__128__exception_guard_exceptionsINS_6vectorI4EdgeNS_9allocatorIS2_EEE16__destroy_vectorEE10__completeB8ue170006Ev, symObjAddr: 0x7124, symBinAddr: 0x10001705C, symSize: 0x1C }
  - { offsetInCU: 0x10C7D, offset: 0x35DD0, size: 0x8, addend: 0x0, symName: __ZNSt3__128__exception_guard_exceptionsINS_6vectorI4EdgeNS_9allocatorIS2_EEE16__destroy_vectorEED1B8ue170006Ev, symObjAddr: 0x7140, symBinAddr: 0x100017078, symSize: 0x2C }
  - { offsetInCU: 0x10CA6, offset: 0x35DF9, size: 0x8, addend: 0x0, symName: __ZNSt3__128__exception_guard_exceptionsINS_6vectorI4EdgeNS_9allocatorIS2_EEE16__destroy_vectorEEC1B8ue170006ES6_, symObjAddr: 0x716C, symBinAddr: 0x1000170A4, symSize: 0x34 }
  - { offsetInCU: 0x10CDD, offset: 0x35E30, size: 0x8, addend: 0x0, symName: __ZNSt3__128__exception_guard_exceptionsINS_6vectorI4EdgeNS_9allocatorIS2_EEE16__destroy_vectorEEC2B8ue170006ES6_, symObjAddr: 0x71A0, symBinAddr: 0x1000170D8, symSize: 0x24 }
  - { offsetInCU: 0x10D1E, offset: 0x35E71, size: 0x8, addend: 0x0, symName: __ZNKSt3__114__copy_trivialclB8ue170006I4EdgeS2_Li0EEENS_4pairIPT_PT0_EES5_S5_S7_, symObjAddr: 0x73F8, symBinAddr: 0x100017330, symSize: 0x48 }
  - { offsetInCU: 0x10D85, offset: 0x35ED8, size: 0x8, addend: 0x0, symName: __ZNSt3__128__exception_guard_exceptionsINS_6vectorI4EdgeNS_9allocatorIS2_EEE16__destroy_vectorEED2B8ue170006Ev, symObjAddr: 0x7440, symBinAddr: 0x100017378, symSize: 0x48 }
  - { offsetInCU: 0x54, offset: 0x3607B, size: 0x8, addend: 0x0, symName: __ZN12_GLOBAL__N_115autoRegistrar34E, symObjAddr: 0xB1C41, symBinAddr: 0x1000CC168, symSize: 0x0 }
  - { offsetInCU: 0x6D, offset: 0x36094, size: 0x8, addend: 0x0, symName: __ZN12_GLOBAL__N_115autoRegistrar82E, symObjAddr: 0xB1C42, symBinAddr: 0x1000CC169, symSize: 0x0 }
  - { offsetInCU: 0x86, offset: 0x360AD, size: 0x8, addend: 0x0, symName: __ZN12_GLOBAL__N_116autoRegistrar157E, symObjAddr: 0xB1C43, symBinAddr: 0x1000CC16A, symSize: 0x0 }
  - { offsetInCU: 0x9F, offset: 0x360C6, size: 0x8, addend: 0x0, symName: __ZN12_GLOBAL__N_116autoRegistrar235E, symObjAddr: 0xB1C44, symBinAddr: 0x1000CC16B, symSize: 0x0 }
  - { offsetInCU: 0xB9, offset: 0x360E0, size: 0x8, addend: 0x0, symName: __ZN12_GLOBAL__N_116autoRegistrar281E, symObjAddr: 0xB1C45, symBinAddr: 0x1000CC16C, symSize: 0x0 }
  - { offsetInCU: 0xD4, offset: 0x360FB, size: 0x8, addend: 0x0, symName: __ZN12_GLOBAL__N_116autoRegistrar319E, symObjAddr: 0xB1C46, symBinAddr: 0x1000CC16D, symSize: 0x0 }
  - { offsetInCU: 0x366, offset: 0x3638D, size: 0x8, addend: 0x0, symName: __ZN5Catch8Internal7compareILNS0_8OperatorE0EiiEEbRKT0_RKT1_, symObjAddr: 0x12A7C, symBinAddr: 0x100029C9C, symSize: 0x30 }
  - { offsetInCU: 0x426, offset: 0x3644D, size: 0x8, addend: 0x0, symName: __ZN5Catch8Internal6opCastIiEERT_RKS2_, symObjAddr: 0x12B04, symBinAddr: 0x100029D24, symSize: 0x14 }
  - { offsetInCU: 0x45D, offset: 0x36484, size: 0x8, addend: 0x0, symName: __ZN5Catch8Internal7compareILNS0_8OperatorE0EddEEbRKT0_RKT1_, symObjAddr: 0x13070, symBinAddr: 0x10002A210, symSize: 0x30 }
  - { offsetInCU: 0x4F8, offset: 0x3651F, size: 0x8, addend: 0x0, symName: __ZN5Catch8Internal6opCastIdEERT_RKS2_, symObjAddr: 0x130EC, symBinAddr: 0x10002A28C, symSize: 0x14 }
  - { offsetInCU: 0x52F, offset: 0x36556, size: 0x8, addend: 0x0, symName: __ZN5Catch8Internal7compareILNS0_8OperatorE0EbbEEbRKT0_RKT1_, symObjAddr: 0x18D14, symBinAddr: 0x10002F140, symSize: 0x30 }
  - { offsetInCU: 0x5CA, offset: 0x365F1, size: 0x8, addend: 0x0, symName: __ZN5Catch8Internal6opCastIbEERT_RKS2_, symObjAddr: 0x18D98, symBinAddr: 0x10002F1C4, symSize: 0x14 }
  - { offsetInCU: 0x601, offset: 0x36628, size: 0x8, addend: 0x0, symName: __ZN5Catch8Internal7compareILNS0_8OperatorE0EEEbmi, symObjAddr: 0x18F5C, symBinAddr: 0x10002F388, symSize: 0x3C }
  - { offsetInCU: 0x648, offset: 0x3666F, size: 0x8, addend: 0x0, symName: __ZN5Catch8Internal14applyEvaluatorILNS0_8OperatorE0EmjEEbRKT0_RKT1_, symObjAddr: 0x18F98, symBinAddr: 0x10002F3C4, symSize: 0x30 }
  - { offsetInCU: 0x6E3, offset: 0x3670A, size: 0x8, addend: 0x0, symName: __ZN5Catch8Internal6opCastImEERT_RKS2_, symObjAddr: 0x19014, symBinAddr: 0x10002F440, symSize: 0x14 }
  - { offsetInCU: 0x71A, offset: 0x36741, size: 0x8, addend: 0x0, symName: __ZN5Catch8Internal6opCastIjEERT_RKS2_, symObjAddr: 0x19028, symBinAddr: 0x10002F454, symSize: 0x14 }
  - { offsetInCU: 0x751, offset: 0x36778, size: 0x8, addend: 0x0, symName: __ZN5Catch8Internal7compareILNS0_8OperatorE0ENSt3__115__bit_referenceINS3_6vectorIbNS3_9allocatorIbEEEELb1EEEbEEbRKT0_RKT1_, symObjAddr: 0x19244, symBinAddr: 0x10002F670, symSize: 0x30 }
  - { offsetInCU: 0x7EC, offset: 0x36813, size: 0x8, addend: 0x0, symName: __ZN5Catch8Internal6opCastINSt3__115__bit_referenceINS2_6vectorIbNS2_9allocatorIbEEEELb1EEEEERT_RKS9_, symObjAddr: 0x192F4, symBinAddr: 0x10002F720, symSize: 0x14 }
  - { offsetInCU: 0x823, offset: 0x3684A, size: 0x8, addend: 0x0, symName: __ZN5Catch8Internal7compareILNS0_8OperatorE1ENSt3__111__wrap_iterIP4EdgeEES7_EEbRKT0_RKT1_, symObjAddr: 0x1D150, symBinAddr: 0x100030500, symSize: 0x30 }
  - { offsetInCU: 0x8E3, offset: 0x3690A, size: 0x8, addend: 0x0, symName: __ZN5Catch8Internal6opCastINSt3__111__wrap_iterIP4EdgeEEEERT_RKS7_, symObjAddr: 0x1D1FC, symBinAddr: 0x1000305AC, symSize: 0x14 }
  - { offsetInCU: 0x91A, offset: 0x36941, size: 0x8, addend: 0x0, symName: __ZN5Catch8Internal7compareILNS0_8OperatorE0E12DirectedEdgeS3_EEbRKT0_RKT1_, symObjAddr: 0x1FF44, symBinAddr: 0x10003097C, symSize: 0x30 }
  - { offsetInCU: 0x9B5, offset: 0x369DC, size: 0x8, addend: 0x0, symName: __ZN5Catch8Internal6opCastI12DirectedEdgeEERT_RKS3_, symObjAddr: 0x2002C, symBinAddr: 0x100030A64, symSize: 0x14 }
  - { offsetInCU: 0x18F7, offset: 0x3791E, size: 0x8, addend: 0x0, symName: __ZN5Catch10alwaysTrueEv, symObjAddr: 0x12380, symBinAddr: 0x100029734, symSize: 0xC }
  - { offsetInCU: 0x1916, offset: 0x3793D, size: 0x8, addend: 0x0, symName: __ZN5Catch6isTrueEb, symObjAddr: 0x123B8, symBinAddr: 0x10002976C, symSize: 0x20 }
  - { offsetInCU: 0x1CE8, offset: 0x37D0F, size: 0x8, addend: 0x0, symName: __ZN5Catch8toStringINSt3__115__bit_referenceINS1_6vectorIbNS1_9allocatorIbEEEELb1EEEEENS1_12basic_stringIcNS1_11char_traitsIcEENS4_IcEEEERKT_, symObjAddr: 0x19274, symBinAddr: 0x10002F6A0, symSize: 0x2C }
  - { offsetInCU: 0x1E62, offset: 0x37E89, size: 0x8, addend: 0x0, symName: __ZN5Catch8toStringINSt3__111__wrap_iterIP4EdgeEEEENS1_12basic_stringIcNS1_11char_traitsIcEENS1_9allocatorIcEEEERKT_, symObjAddr: 0x1D180, symBinAddr: 0x100030530, symSize: 0x2C }
  - { offsetInCU: 0x1FDC, offset: 0x38003, size: 0x8, addend: 0x0, symName: __ZN5Catch8toStringI12DirectedEdgeEENSt3__112basic_stringIcNS2_11char_traitsIcEENS2_9allocatorIcEEEERKT_, symObjAddr: 0x1FF74, symBinAddr: 0x1000309AC, symSize: 0x2C }
  - { offsetInCU: 0x7B8B, offset: 0x3DBB2, size: 0x8, addend: 0x0, symName: __ZNSt3__114__copy_alignedB8ue170006INS_6vectorIbNS_9allocatorIbEEEELb1EEENS_14__bit_iteratorIT_Lb0EXLi0EEEENS5_IS6_XT0_EXLi0EEEES8_S7_, symObjAddr: 0x15BE4, symBinAddr: 0x10002C0C0, symSize: 0x268 }
  - { offsetInCU: 0x7CB7, offset: 0x3DCDE, size: 0x8, addend: 0x0, symName: __ZNSt3__16copy_nB8ue170006IPKmmPmEENS_9enable_ifIXsr37__has_random_access_iterator_categoryIT_EE5valueET1_E4typeES5_T0_S6_, symObjAddr: 0x163E0, symBinAddr: 0x10002C8BC, symSize: 0x44 }
  - { offsetInCU: 0x7D5E, offset: 0x3DD85, size: 0x8, addend: 0x0, symName: __ZNSt3__116__copy_unalignedB8ue170006INS_6vectorIbNS_9allocatorIbEEEELb1EEENS_14__bit_iteratorIT_Lb0EXLi0EEEENS5_IS6_XT0_EXLi0EEEES8_S7_, symObjAddr: 0x15E4C, symBinAddr: 0x10002C328, symSize: 0x520 }
  - { offsetInCU: 0x7EDE, offset: 0x3DF05, size: 0x8, addend: 0x0, symName: __ZNSt3__113__fill_n_trueB8ue170006INS_6vectorIbNS_9allocatorIbEEEEEEvNS_14__bit_iteratorIT_Lb0EXLi0EEEENS6_9size_typeE, symObjAddr: 0x16D78, symBinAddr: 0x10002D1D4, symSize: 0x160 }
  - { offsetInCU: 0x7FA3, offset: 0x3DFCA, size: 0x8, addend: 0x0, symName: __ZNSt3__114__fill_n_falseB8ue170006INS_6vectorIbNS_9allocatorIbEEEEEEvNS_14__bit_iteratorIT_Lb0EXLi0EEEENS6_9size_typeE, symObjAddr: 0x16ED8, symBinAddr: 0x10002D334, symSize: 0x15C }
  - { offsetInCU: 0xE440, offset: 0x44467, size: 0x8, addend: 0x0, symName: __ZNSt3__118__constexpr_strlenB8ue170006EPKc, symObjAddr: 0x127A4, symBinAddr: 0x1000299C4, symSize: 0x24 }
  - { offsetInCU: 0xE46C, offset: 0x44493, size: 0x8, addend: 0x0, symName: __ZNSt3__14copyB8ue170006INS_6vectorIbNS_9allocatorIbEEEELb1EEENS_14__bit_iteratorIT_Lb0EXLi0EEEENS5_IS6_XT0_EXLi0EEEES8_S7_, symObjAddr: 0x14698, symBinAddr: 0x10002ADA0, symSize: 0xD4 }
  - { offsetInCU: 0xE4CC, offset: 0x444F3, size: 0x8, addend: 0x0, symName: __ZNSt3__16fill_nB8ue170006INS_6vectorIbNS_9allocatorIbEEEEEEvNS_14__bit_iteratorIT_Lb0EXLi0EEEENS6_9size_typeEb, symObjAddr: 0x14890, symBinAddr: 0x10002AF98, symSize: 0x94 }
  - { offsetInCU: 0xE720, offset: 0x44747, size: 0x8, addend: 0x0, symName: __ZNSt3__119__allocate_at_leastB8ue170006INS_9allocatorImEEEENS_19__allocation_resultINS_16allocator_traitsIT_E7pointerEEERS5_m, symObjAddr: 0x15094, symBinAddr: 0x10002B6B8, symSize: 0x40 }
  - { offsetInCU: 0xE763, offset: 0x4478A, size: 0x8, addend: 0x0, symName: __ZNSt3__16__copyB8ue170006INS_17_ClassicAlgPolicyENS_14__bit_iteratorINS_6vectorIbNS_9allocatorIbEEEELb0ELm0EEES7_S7_EENS_4pairIT0_T2_EES9_T1_SA_, symObjAddr: 0x15290, symBinAddr: 0x10002B820, symSize: 0x88 }
  - { offsetInCU: 0xE7D2, offset: 0x447F9, size: 0x8, addend: 0x0, symName: __ZNSt3__123__dispatch_copy_or_moveB8ue170006INS_17_ClassicAlgPolicyENS_11__copy_loopIS1_EENS_14__copy_trivialENS_14__bit_iteratorINS_6vectorIbNS_9allocatorIbEEEELb0ELm0EEESA_SA_EENS_4pairIT2_T4_EESC_T3_SD_, symObjAddr: 0x15318, symBinAddr: 0x10002B8A8, symSize: 0x88 }
  - { offsetInCU: 0xE853, offset: 0x4487A, size: 0x8, addend: 0x0, symName: __ZNSt3__121__unwrap_and_dispatchB8ue170006INS_10__overloadINS_11__copy_loopINS_17_ClassicAlgPolicyEEENS_14__copy_trivialEEENS_14__bit_iteratorINS_6vectorIbNS_9allocatorIbEEEELb0ELm0EEESC_SC_Li0EEENS_4pairIT0_T2_EESE_T1_SF_, symObjAddr: 0x153A0, symBinAddr: 0x10002B930, symSize: 0x15C }
  - { offsetInCU: 0xE8E6, offset: 0x4490D, size: 0x8, addend: 0x0, symName: __ZNSt3__114__unwrap_rangeB8ue170006INS_14__bit_iteratorINS_6vectorIbNS_9allocatorIbEEEELb0ELm0EEES6_EENS_4pairIT0_S8_EET_SA_, symObjAddr: 0x154FC, symBinAddr: 0x10002BA8C, symSize: 0x8C }
  - { offsetInCU: 0xEA5A, offset: 0x44A81, size: 0x8, addend: 0x0, symName: __ZNSt3__113__unwrap_iterB8ue170006INS_14__bit_iteratorINS_6vectorIbNS_9allocatorIbEEEELb0ELm0EEENS_18__unwrap_iter_implIS6_Lb0EEELi0EEEDTclsrT0_8__unwrapclsr3stdE7declvalIT_EEEESA_, symObjAddr: 0x15640, symBinAddr: 0x10002BBD0, symSize: 0x44 }
  - { offsetInCU: 0xEA9F, offset: 0x44AC6, size: 0x8, addend: 0x0, symName: __ZNSt3__19make_pairB8ue170006INS_14__bit_iteratorINS_6vectorIbNS_9allocatorIbEEEELb0ELm0EEES6_EENS_4pairINS_18__unwrap_ref_decayIT_E4typeENS8_IT0_E4typeEEEOS9_OSC_, symObjAddr: 0x15684, symBinAddr: 0x10002BC14, symSize: 0x40 }
  - { offsetInCU: 0xEAEE, offset: 0x44B15, size: 0x8, addend: 0x0, symName: __ZNSt3__114__rewrap_rangeB8ue170006INS_14__bit_iteratorINS_6vectorIbNS_9allocatorIbEEEELb0ELm0EEES6_EET_S7_T0_, symObjAddr: 0x156C4, symBinAddr: 0x10002BC54, symSize: 0x6C }
  - { offsetInCU: 0xEB3C, offset: 0x44B63, size: 0x8, addend: 0x0, symName: __ZNSt3__113__rewrap_iterB8ue170006INS_14__bit_iteratorINS_6vectorIbNS_9allocatorIbEEEELb0ELm0EEES6_NS_18__unwrap_iter_implIS6_Lb0EEEEET_S9_T0_, symObjAddr: 0x15730, symBinAddr: 0x10002BCC0, symSize: 0x74 }
  - { offsetInCU: 0xEB93, offset: 0x44BBA, size: 0x8, addend: 0x0, symName: __ZNSt3__1neB8ue170006ERKNS_14__bit_iteratorINS_6vectorIbNS_9allocatorIbEEEELb0ELm0EEES7_, symObjAddr: 0x157A4, symBinAddr: 0x10002BD34, symSize: 0x34 }
  - { offsetInCU: 0xEBD0, offset: 0x44BF7, size: 0x8, addend: 0x0, symName: __ZNSt3__1eqB8ue170006ERKNS_14__bit_iteratorINS_6vectorIbNS_9allocatorIbEEEELb0ELm0EEES7_, symObjAddr: 0x158B8, symBinAddr: 0x10002BE48, symSize: 0x64 }
  - { offsetInCU: 0xECCB, offset: 0x44CF2, size: 0x8, addend: 0x0, symName: __ZNSt3__1miB8ue170006ERKNS_14__bit_iteratorINS_6vectorIbNS_9allocatorIbEEEELb1ELm0EEES7_, symObjAddr: 0x1636C, symBinAddr: 0x10002C848, symSize: 0x48 }
  - { offsetInCU: 0xED08, offset: 0x44D2F, size: 0x8, addend: 0x0, symName: __ZNSt3__13minB8ue170006IlEERKT_S3_S3_, symObjAddr: 0x163B4, symBinAddr: 0x10002C890, symSize: 0x2C }
  - { offsetInCU: 0xED4B, offset: 0x44D72, size: 0x8, addend: 0x0, symName: __ZNSt3__112__to_addressB8ue170006IKmEEPT_S3_, symObjAddr: 0x16424, symBinAddr: 0x10002C900, symSize: 0x14 }
  - { offsetInCU: 0xED80, offset: 0x44DA7, size: 0x8, addend: 0x0, symName: __ZNSt3__112__to_addressB8ue170006ImEEPT_S2_, symObjAddr: 0x16438, symBinAddr: 0x10002C914, symSize: 0x14 }
  - { offsetInCU: 0xEDB5, offset: 0x44DDC, size: 0x8, addend: 0x0, symName: __ZNSt3__13minB8ue170006IlNS_6__lessIvvEEEERKT_S5_S5_T0_, symObjAddr: 0x1644C, symBinAddr: 0x10002C928, symSize: 0x54 }
  - { offsetInCU: 0xEE0F, offset: 0x44E36, size: 0x8, addend: 0x0, symName: __ZNSt3__14copyB8ue170006IPKmPmEET0_T_S5_S4_, symObjAddr: 0x164D4, symBinAddr: 0x10002C9B0, symSize: 0x40 }
  - { offsetInCU: 0xEE69, offset: 0x44E90, size: 0x8, addend: 0x0, symName: __ZNSt3__16__copyB8ue170006INS_17_ClassicAlgPolicyEPKmS3_PmEENS_4pairIT0_T2_EES6_T1_S7_, symObjAddr: 0x16514, symBinAddr: 0x10002C9F0, symSize: 0x44 }
  - { offsetInCU: 0xEED5, offset: 0x44EFC, size: 0x8, addend: 0x0, symName: __ZNSt3__123__dispatch_copy_or_moveB8ue170006INS_17_ClassicAlgPolicyENS_11__copy_loopIS1_EENS_14__copy_trivialEPKmS6_PmEENS_4pairIT2_T4_EES9_T3_SA_, symObjAddr: 0x16558, symBinAddr: 0x10002CA34, symSize: 0x44 }
  - { offsetInCU: 0xEF53, offset: 0x44F7A, size: 0x8, addend: 0x0, symName: __ZNSt3__121__unwrap_and_dispatchB8ue170006INS_10__overloadINS_11__copy_loopINS_17_ClassicAlgPolicyEEENS_14__copy_trivialEEEPKmS8_PmLi0EEENS_4pairIT0_T2_EESB_T1_SC_, symObjAddr: 0x1659C, symBinAddr: 0x10002CA78, symSize: 0xB4 }
  - { offsetInCU: 0xEFE1, offset: 0x45008, size: 0x8, addend: 0x0, symName: __ZNSt3__114__unwrap_rangeB8ue170006IPKmS2_EENS_4pairIT0_S4_EET_S6_, symObjAddr: 0x16650, symBinAddr: 0x10002CB2C, symSize: 0x60 }
  - { offsetInCU: 0xF1EE, offset: 0x45215, size: 0x8, addend: 0x0, symName: __ZNSt3__113__unwrap_iterB8ue170006IPmNS_18__unwrap_iter_implIS1_Lb1EEELi0EEEDTclsrT0_8__unwrapclsr3stdE7declvalIT_EEEES5_, symObjAddr: 0x166F8, symBinAddr: 0x10002CBD4, symSize: 0x24 }
  - { offsetInCU: 0xF232, offset: 0x45259, size: 0x8, addend: 0x0, symName: __ZNSt3__19make_pairB8ue170006IPKmPmEENS_4pairINS_18__unwrap_ref_decayIT_E4typeENS5_IT0_E4typeEEEOS6_OS9_, symObjAddr: 0x1671C, symBinAddr: 0x10002CBF8, symSize: 0x38 }
  - { offsetInCU: 0xF281, offset: 0x452A8, size: 0x8, addend: 0x0, symName: __ZNSt3__114__rewrap_rangeB8ue170006IPKmS2_EET_S3_T0_, symObjAddr: 0x16754, symBinAddr: 0x10002CC30, symSize: 0x2C }
  - { offsetInCU: 0xF2CD, offset: 0x452F4, size: 0x8, addend: 0x0, symName: __ZNSt3__113__rewrap_iterB8ue170006IPmS1_NS_18__unwrap_iter_implIS1_Lb1EEEEET_S4_T0_, symObjAddr: 0x16780, symBinAddr: 0x10002CC5C, symSize: 0x3C }
  - { offsetInCU: 0xF322, offset: 0x45349, size: 0x8, addend: 0x0, symName: __ZNSt3__19make_pairB8ue170006IPKmS2_EENS_4pairINS_18__unwrap_ref_decayIT_E4typeENS4_IT0_E4typeEEEOS5_OS8_, symObjAddr: 0x167BC, symBinAddr: 0x10002CC98, symSize: 0x38 }
  - { offsetInCU: 0xF371, offset: 0x45398, size: 0x8, addend: 0x0, symName: __ZNSt3__113__unwrap_iterB8ue170006IPKmNS_18__unwrap_iter_implIS2_Lb1EEELi0EEEDTclsrT0_8__unwrapclsr3stdE7declvalIT_EEEES6_, symObjAddr: 0x167F4, symBinAddr: 0x10002CCD0, symSize: 0x24 }
  - { offsetInCU: 0xF4DC, offset: 0x45503, size: 0x8, addend: 0x0, symName: __ZNSt3__119__copy_trivial_implB8ue170006IKmmEENS_4pairIPT_PT0_EES4_S4_S6_, symObjAddr: 0x168AC, symBinAddr: 0x10002CD88, symSize: 0x80 }
  - { offsetInCU: 0xF544, offset: 0x4556B, size: 0x8, addend: 0x0, symName: __ZNSt3__119__constexpr_memmoveB8ue170006ImKmLi0EEEPT_S3_PT0_NS_15__element_countE, symObjAddr: 0x1692C, symBinAddr: 0x10002CE08, symSize: 0x64 }
  - { offsetInCU: 0xF5B2, offset: 0x455D9, size: 0x8, addend: 0x0, symName: __ZNSt3__19make_pairB8ue170006IRPKmPmEENS_4pairINS_18__unwrap_ref_decayIT_E4typeENS6_IT0_E4typeEEEOS7_OSA_, symObjAddr: 0x16990, symBinAddr: 0x10002CE6C, symSize: 0x38 }
  - { offsetInCU: 0xF654, offset: 0x4567B, size: 0x8, addend: 0x0, symName: __ZNSt3__113__rewrap_iterB8ue170006IPKmS2_NS_18__unwrap_iter_implIS2_Lb1EEEEET_S5_T0_, symObjAddr: 0x16ACC, symBinAddr: 0x10002CFA8, symSize: 0x3C }
  - { offsetInCU: 0xF6A9, offset: 0x456D0, size: 0x8, addend: 0x0, symName: __ZNSt3__14swapB8ue170006IPmEENS_9enable_ifIXaasr21is_move_constructibleIT_EE5valuesr18is_move_assignableIS3_EE5valueEvE4typeERS3_S6_, symObjAddr: 0x16CEC, symBinAddr: 0x10002D148, symSize: 0x3C }
  - { offsetInCU: 0xF6FA, offset: 0x45721, size: 0x8, addend: 0x0, symName: __ZNSt3__14swapB8ue170006ImEENS_9enable_ifIXaasr21is_move_constructibleIT_EE5valuesr18is_move_assignableIS2_EE5valueEvE4typeERS2_S5_, symObjAddr: 0x16D28, symBinAddr: 0x10002D184, symSize: 0x3C }
  - { offsetInCU: 0xF74C, offset: 0x45773, size: 0x8, addend: 0x0, symName: __ZNSt3__116__swap_allocatorB8ue170006INS_9allocatorImEEEEvRT_S4_NS_17integral_constantIbLb0EEE, symObjAddr: 0x16D64, symBinAddr: 0x10002D1C0, symSize: 0x14 }
  - { offsetInCU: 0xF78D, offset: 0x457B4, size: 0x8, addend: 0x0, symName: __ZNSt3__16fill_nB8ue170006IPmmmEET_S2_T0_RKT1_, symObjAddr: 0x17034, symBinAddr: 0x10002D490, symSize: 0x44 }
  - { offsetInCU: 0xF7F0, offset: 0x45817, size: 0x8, addend: 0x0, symName: __ZNSt3__18__fill_nB8ue170006IPmmmEET_S2_T0_RKT1_, symObjAddr: 0x17078, symBinAddr: 0x10002D4D4, symSize: 0x64 }
  - { offsetInCU: 0xF853, offset: 0x4587A, size: 0x8, addend: 0x0, symName: __ZNSt3__16fill_nB8ue170006IPmmiEET_S2_T0_RKT1_, symObjAddr: 0x170F0, symBinAddr: 0x10002D538, symSize: 0x44 }
  - { offsetInCU: 0xF8B6, offset: 0x458DD, size: 0x8, addend: 0x0, symName: __ZNSt3__18__fill_nB8ue170006IPmmiEET_S2_T0_RKT1_, symObjAddr: 0x17134, symBinAddr: 0x10002D57C, symSize: 0x64 }
  - { offsetInCU: 0xF919, offset: 0x45940, size: 0x8, addend: 0x0, symName: __ZNSt3__112__to_addressB8ue170006IiEEPT_S2_, symObjAddr: 0x177E0, symBinAddr: 0x10002DC28, symSize: 0x14 }
  - { offsetInCU: 0xF94E, offset: 0x45975, size: 0x8, addend: 0x0, symName: __ZNSt3__119__allocate_at_leastB8ue170006INS_9allocatorIiEEEENS_19__allocation_resultINS_16allocator_traitsIT_E7pointerEEERS5_m, symObjAddr: 0x17BC4, symBinAddr: 0x10002DFF0, symSize: 0x40 }
  - { offsetInCU: 0xF991, offset: 0x459B8, size: 0x8, addend: 0x0, symName: __ZNSt3__142__uninitialized_allocator_move_if_noexceptB8ue170006INS_9allocatorIiEENS_16reverse_iteratorIPiEES5_ivEET1_RT_T0_S9_S6_, symObjAddr: 0x17EFC, symBinAddr: 0x10002E328, symSize: 0x78 }
  - { offsetInCU: 0xFA0E, offset: 0x45A35, size: 0x8, addend: 0x0, symName: __ZNSt3__14swapB8ue170006IPiEENS_9enable_ifIXaasr21is_move_constructibleIT_EE5valuesr18is_move_assignableIS3_EE5valueEvE4typeERS3_S6_, symObjAddr: 0x17FC0, symBinAddr: 0x10002E3EC, symSize: 0x3C }
  - { offsetInCU: 0xFA5F, offset: 0x45A86, size: 0x8, addend: 0x0, symName: __ZNSt3__14moveB8ue170006INS_16reverse_iteratorIPiEES3_EET0_T_S5_S4_, symObjAddr: 0x180F0, symBinAddr: 0x10002E51C, symSize: 0x78 }
  - { offsetInCU: 0xFAB9, offset: 0x45AE0, size: 0x8, addend: 0x0, symName: __ZNSt3__16__moveB8ue170006INS_17_ClassicAlgPolicyENS_16reverse_iteratorIPiEES4_S4_EENS_4pairIT0_T2_EES6_T1_S7_, symObjAddr: 0x18168, symBinAddr: 0x10002E594, symSize: 0x64 }
  - { offsetInCU: 0xFB25, offset: 0x45B4C, size: 0x8, addend: 0x0, symName: __ZNSt3__123__dispatch_copy_or_moveB8ue170006INS_17_ClassicAlgPolicyENS_11__move_loopIS1_EENS_14__move_trivialENS_16reverse_iteratorIPiEES7_S7_EENS_4pairIT2_T4_EES9_T3_SA_, symObjAddr: 0x181CC, symBinAddr: 0x10002E5F8, symSize: 0x64 }
  - { offsetInCU: 0xFBA3, offset: 0x45BCA, size: 0x8, addend: 0x0, symName: __ZNSt3__121__unwrap_and_dispatchB8ue170006INS_10__overloadINS_11__move_loopINS_17_ClassicAlgPolicyEEENS_14__move_trivialEEENS_16reverse_iteratorIPiEES9_S9_Li0EEENS_4pairIT0_T2_EESB_T1_SC_, symObjAddr: 0x18230, symBinAddr: 0x10002E65C, symSize: 0x12C }
  - { offsetInCU: 0xFC33, offset: 0x45C5A, size: 0x8, addend: 0x0, symName: __ZNSt3__114__unwrap_rangeB8ue170006INS_16reverse_iteratorIPiEES3_EENS_4pairIT0_S5_EET_S7_, symObjAddr: 0x1835C, symBinAddr: 0x10002E788, symSize: 0x84 }
  - { offsetInCU: 0xFDE4, offset: 0x45E0B, size: 0x8, addend: 0x0, symName: __ZNSt3__113__unwrap_iterB8ue170006INS_16reverse_iteratorIPiEENS_18__unwrap_iter_implIS3_Lb0EEELi0EEEDTclsrT0_8__unwrapclsr3stdE7declvalIT_EEEES7_, symObjAddr: 0x18480, symBinAddr: 0x10002E8AC, symSize: 0x44 }
  - { offsetInCU: 0xFE28, offset: 0x45E4F, size: 0x8, addend: 0x0, symName: __ZNSt3__19make_pairB8ue170006INS_16reverse_iteratorIPiEES3_EENS_4pairINS_18__unwrap_ref_decayIT_E4typeENS5_IT0_E4typeEEEOS6_OS9_, symObjAddr: 0x184C4, symBinAddr: 0x10002E8F0, symSize: 0x38 }
  - { offsetInCU: 0xFE77, offset: 0x45E9E, size: 0x8, addend: 0x0, symName: __ZNSt3__114__rewrap_rangeB8ue170006INS_16reverse_iteratorIPiEES3_EET_S4_T0_, symObjAddr: 0x184FC, symBinAddr: 0x10002E928, symSize: 0x5C }
  - { offsetInCU: 0xFEC3, offset: 0x45EEA, size: 0x8, addend: 0x0, symName: __ZNSt3__113__rewrap_iterB8ue170006INS_16reverse_iteratorIPiEES3_NS_18__unwrap_iter_implIS3_Lb0EEEEET_S6_T0_, symObjAddr: 0x18558, symBinAddr: 0x10002E984, symSize: 0x74 }
  - { offsetInCU: 0xFF18, offset: 0x45F3F, size: 0x8, addend: 0x0, symName: __ZNSt3__1neB8ue170006IPiS1_EEbRKNS_16reverse_iteratorIT_EERKNS2_IT0_EE, symObjAddr: 0x185CC, symBinAddr: 0x10002E9F8, symSize: 0x48 }
  - { offsetInCU: 0x10049, offset: 0x46070, size: 0x8, addend: 0x0, symName: __ZNSt3__14findB8ue170006INS_11__wrap_iterIP4EdgeEES2_EET_S5_S5_RKT0_, symObjAddr: 0x19B38, symBinAddr: 0x10002FD94, symSize: 0x78 }
  - { offsetInCU: 0x10316, offset: 0x4633D, size: 0x8, addend: 0x0, symName: __ZNSt3__113__rewrap_iterB8ue170006INS_11__wrap_iterIP4EdgeEES3_NS_18__unwrap_iter_implIS4_Lb1EEEEET_S7_T0_, symObjAddr: 0x1CD28, symBinAddr: 0x1000300D8, symSize: 0x4C }
  - { offsetInCU: 0x1036B, offset: 0x46392, size: 0x8, addend: 0x0, symName: __ZNSt3__111__find_implB8ue170006IP4EdgeS2_S1_NS_10__identityEEET_S4_T0_RKT1_RT2_, symObjAddr: 0x1CD74, symBinAddr: 0x100030124, symSize: 0x7C }
  - { offsetInCU: 0x103E5, offset: 0x4640C, size: 0x8, addend: 0x0, symName: __ZNSt3__113__unwrap_iterB8ue170006INS_11__wrap_iterIP4EdgeEENS_18__unwrap_iter_implIS4_Lb1EEELi0EEEDTclsrT0_8__unwrapclsr3stdE7declvalIT_EEEES8_, symObjAddr: 0x1CDF0, symBinAddr: 0x1000301A0, symSize: 0x2C }
  - { offsetInCU: 0x1047C, offset: 0x464A3, size: 0x8, addend: 0x0, symName: __ZNSt3__112__to_addressB8ue170006INS_11__wrap_iterIP4EdgeEEvEEu7__decayIDTclsr19__to_address_helperIT_EE6__callclsr3stdE7declvalIRKS5_EEEEES7_, symObjAddr: 0x1CEB4, symBinAddr: 0x100030264, symSize: 0x24 }
  - { offsetInCU: 0x10557, offset: 0x4657E, size: 0x8, addend: 0x0, symName: __ZNSt3__18__invokeB8ue170006IRNS_10__identityEJR4EdgeEEEDTclclsr3stdE7declvalIT_EEspclsr3stdE7declvalIT0_EEEEOS5_DpOS6_, symObjAddr: 0x1CFA4, symBinAddr: 0x100030354, symSize: 0x2C }
  - { offsetInCU: 0x113BE, offset: 0x473E5, size: 0x8, addend: 0x0, symName: __ZNSt3__16vectorIiNS_9allocatorIiEEE26__swap_out_circular_bufferERNS_14__split_bufferIiRS2_EE, symObjAddr: 0x175FC, symBinAddr: 0x10002DA44, symSize: 0x110 }
  - { offsetInCU: 0x13474, offset: 0x4949B, size: 0x8, addend: 0x0, symName: __ZL30____C_A_T_C_H____T_E_S_T____34v, symObjAddr: 0x0, symBinAddr: 0x1000173C0, symSize: 0x32B0 }
  - { offsetInCU: 0x1374F, offset: 0x49776, size: 0x8, addend: 0x0, symName: __ZN5Catch11NameAndDescC1EPKcS2_, symObjAddr: 0x32B0, symBinAddr: 0x10001A670, symSize: 0x3C }
  - { offsetInCU: 0x13796, offset: 0x497BD, size: 0x8, addend: 0x0, symName: __ZN5Catch14SourceLineInfoD1Ev, symObjAddr: 0x32EC, symBinAddr: 0x10001A6AC, symSize: 0x2C }
  - { offsetInCU: 0x137C2, offset: 0x497E9, size: 0x8, addend: 0x0, symName: __ZL30____C_A_T_C_H____T_E_S_T____82v, symObjAddr: 0x3318, symBinAddr: 0x10001A6D8, symSize: 0x3BE0 }
  - { offsetInCU: 0x13B6F, offset: 0x49B96, size: 0x8, addend: 0x0, symName: __ZL31____C_A_T_C_H____T_E_S_T____157v, symObjAddr: 0x6EF8, symBinAddr: 0x10001E2B8, symSize: 0x3B7C }
  - { offsetInCU: 0x13F1B, offset: 0x49F42, size: 0x8, addend: 0x0, symName: __ZL31____C_A_T_C_H____T_E_S_T____235v, symObjAddr: 0xAA74, symBinAddr: 0x100021E34, symSize: 0x1558 }
  - { offsetInCU: 0x1413C, offset: 0x4A163, size: 0x8, addend: 0x0, symName: __ZL31____C_A_T_C_H____T_E_S_T____281v, symObjAddr: 0xBFCC, symBinAddr: 0x10002338C, symSize: 0x159C }
  - { offsetInCU: 0x1431A, offset: 0x4A341, size: 0x8, addend: 0x0, symName: __ZL31____C_A_T_C_H____T_E_S_T____319v, symObjAddr: 0xD568, symBinAddr: 0x100024928, symSize: 0x4CC4 }
  - { offsetInCU: 0x14827, offset: 0x4A84E, size: 0x8, addend: 0x0, symName: __ZN5Catch11NameAndDescC2EPKcS2_, symObjAddr: 0x1222C, symBinAddr: 0x1000295EC, symSize: 0x2C }
  - { offsetInCU: 0x1486E, offset: 0x4A895, size: 0x8, addend: 0x0, symName: __ZN5Catch14SourceLineInfoD2Ev, symObjAddr: 0x12258, symBinAddr: 0x100029618, symSize: 0x2C }
  - { offsetInCU: 0x1489F, offset: 0x4A8C6, size: 0x8, addend: 0x0, symName: __ZNSt3__112basic_stringIcNS_11char_traitsIcEENS_9allocatorIcEEEC1B8ue170006ILi0EEEPKc, symObjAddr: 0x12284, symBinAddr: 0x100029644, symSize: 0x34 }
  - { offsetInCU: 0x148DD, offset: 0x4A904, size: 0x8, addend: 0x0, symName: __ZNSt3__112basic_stringIcNS_11char_traitsIcEENS_9allocatorIcEEEC1B8ue170006Ev, symObjAddr: 0x122B8, symBinAddr: 0x100029678, symSize: 0x2C }
  - { offsetInCU: 0x1490B, offset: 0x4A932, size: 0x8, addend: 0x0, symName: __ZN5Catch11SectionInfoD1Ev, symObjAddr: 0x122E4, symBinAddr: 0x1000296A4, symSize: 0x2C }
  - { offsetInCU: 0x14B59, offset: 0x4AB80, size: 0x8, addend: 0x0, symName: __ZN5Catch13ResultBuilderleIiEENS_13ExpressionLhsIRKT_EES5_, symObjAddr: 0x12310, symBinAddr: 0x1000296D0, symSize: 0x38 }
  - { offsetInCU: 0x14B96, offset: 0x4ABBD, size: 0x8, addend: 0x0, symName: __ZN5Catch13ExpressionLhsIRKiEeqIiEERNS_13ResultBuilderERKT_, symObjAddr: 0x12348, symBinAddr: 0x100029708, symSize: 0x2C }
  - { offsetInCU: 0x14BD3, offset: 0x4ABFA, size: 0x8, addend: 0x0, symName: __ZN5Catch13ResultBuilderD1Ev, symObjAddr: 0x1238C, symBinAddr: 0x100029740, symSize: 0x2C }
  - { offsetInCU: 0x14BFF, offset: 0x4AC26, size: 0x8, addend: 0x0, symName: __ZNSt3__16vectorI4EdgeNS_9allocatorIS1_EEEixB8ue170006Em, symObjAddr: 0x12404, symBinAddr: 0x10002978C, symSize: 0x24 }
  - { offsetInCU: 0x14C4E, offset: 0x4AC75, size: 0x8, addend: 0x0, symName: __ZN5Catch13ResultBuilderleIdEENS_13ExpressionLhsIRKT_EES5_, symObjAddr: 0x1254C, symBinAddr: 0x1000297B0, symSize: 0x38 }
  - { offsetInCU: 0x14C8B, offset: 0x4ACB2, size: 0x8, addend: 0x0, symName: __ZN5Catch13ExpressionLhsIRKdEeqIdEERNS_13ResultBuilderERKT_, symObjAddr: 0x1259C, symBinAddr: 0x1000297E8, symSize: 0x2C }
  - { offsetInCU: 0x14E5E, offset: 0x4AE85, size: 0x8, addend: 0x0, symName: __ZN17EdgeWeightedGraphD1Ev, symObjAddr: 0x125F4, symBinAddr: 0x100029814, symSize: 0x2C }
  - { offsetInCU: 0x14E89, offset: 0x4AEB0, size: 0x8, addend: 0x0, symName: __ZNSt3__112basic_stringIcNS_11char_traitsIcEENS_9allocatorIcEEEC2B8ue170006ILi0EEEPKc, symObjAddr: 0x12620, symBinAddr: 0x100029840, symSize: 0x58 }
  - { offsetInCU: 0x14ECC, offset: 0x4AEF3, size: 0x8, addend: 0x0, symName: __ZNSt3__117__compressed_pairINS_12basic_stringIcNS_11char_traitsIcEENS_9allocatorIcEEE5__repES5_EC1B8ue170006INS_18__default_init_tagESA_EEOT_OT0_, symObjAddr: 0x12678, symBinAddr: 0x100029898, symSize: 0x3C }
  - { offsetInCU: 0x14F23, offset: 0x4AF4A, size: 0x8, addend: 0x0, symName: __ZNSt3__111char_traitsIcE6lengthB8ue170006EPKc, symObjAddr: 0x126B4, symBinAddr: 0x1000298D4, symSize: 0x34 }
  - { offsetInCU: 0x14F46, offset: 0x4AF6D, size: 0x8, addend: 0x0, symName: __ZNSt3__117__compressed_pairINS_12basic_stringIcNS_11char_traitsIcEENS_9allocatorIcEEE5__repES5_EC2B8ue170006INS_18__default_init_tagESA_EEOT_OT0_, symObjAddr: 0x126E8, symBinAddr: 0x100029908, symSize: 0x3C }
  - { offsetInCU: 0x14F9D, offset: 0x4AFC4, size: 0x8, addend: 0x0, symName: __ZNSt3__122__compressed_pair_elemINS_12basic_stringIcNS_11char_traitsIcEENS_9allocatorIcEEE5__repELi0ELb0EEC2B8ue170006ENS_18__default_init_tagE, symObjAddr: 0x12724, symBinAddr: 0x100029944, symSize: 0x14 }
  - { offsetInCU: 0x14FD0, offset: 0x4AFF7, size: 0x8, addend: 0x0, symName: __ZNSt3__122__compressed_pair_elemINS_9allocatorIcEELi1ELb1EEC2B8ue170006ENS_18__default_init_tagE, symObjAddr: 0x12738, symBinAddr: 0x100029958, symSize: 0x2C }
  - { offsetInCU: 0x15003, offset: 0x4B02A, size: 0x8, addend: 0x0, symName: __ZNSt3__19allocatorIcEC2B8ue170006Ev, symObjAddr: 0x12764, symBinAddr: 0x100029984, symSize: 0x2C }
  - { offsetInCU: 0x1502C, offset: 0x4B053, size: 0x8, addend: 0x0, symName: __ZNSt3__116__non_trivial_ifILb1ENS_9allocatorIcEEEC2B8ue170006Ev, symObjAddr: 0x12790, symBinAddr: 0x1000299B0, symSize: 0x14 }
  - { offsetInCU: 0x15055, offset: 0x4B07C, size: 0x8, addend: 0x0, symName: __ZNSt3__112basic_stringIcNS_11char_traitsIcEENS_9allocatorIcEEEC2B8ue170006Ev, symObjAddr: 0x127C8, symBinAddr: 0x1000299E8, symSize: 0x48 }
  - { offsetInCU: 0x1507E, offset: 0x4B0A5, size: 0x8, addend: 0x0, symName: __ZNSt3__112basic_stringIcNS_11char_traitsIcEENS_9allocatorIcEEE14__default_initB8ue170006Ev, symObjAddr: 0x12810, symBinAddr: 0x100029A30, symSize: 0x40 }
  - { offsetInCU: 0x150A3, offset: 0x4B0CA, size: 0x8, addend: 0x0, symName: __ZNSt3__117__compressed_pairINS_12basic_stringIcNS_11char_traitsIcEENS_9allocatorIcEEE5__repES5_E5firstB8ue170006Ev, symObjAddr: 0x12850, symBinAddr: 0x100029A70, symSize: 0x24 }
  - { offsetInCU: 0x150C8, offset: 0x4B0EF, size: 0x8, addend: 0x0, symName: __ZNSt3__122__compressed_pair_elemINS_12basic_stringIcNS_11char_traitsIcEENS_9allocatorIcEEE5__repELi0ELb0EE5__getB8ue170006Ev, symObjAddr: 0x12874, symBinAddr: 0x100029A94, symSize: 0x14 }
  - { offsetInCU: 0x150ED, offset: 0x4B114, size: 0x8, addend: 0x0, symName: __ZN5Catch11SectionInfoD2Ev, symObjAddr: 0x12888, symBinAddr: 0x100029AA8, symSize: 0x44 }
  - { offsetInCU: 0x15119, offset: 0x4B140, size: 0x8, addend: 0x0, symName: __ZN5Catch13ExpressionLhsIRKiEC1ERNS_13ResultBuilderES2_, symObjAddr: 0x128CC, symBinAddr: 0x100029AEC, symSize: 0x3C }
  - { offsetInCU: 0x15160, offset: 0x4B187, size: 0x8, addend: 0x0, symName: __ZN5Catch13ExpressionLhsIRKiEC2ERNS_13ResultBuilderES2_, symObjAddr: 0x12908, symBinAddr: 0x100029B28, symSize: 0x2C }
  - { offsetInCU: 0x151A7, offset: 0x4B1CE, size: 0x8, addend: 0x0, symName: __ZN5Catch13ExpressionLhsIRKiE17captureExpressionILNS_8Internal8OperatorE0EiEERNS_13ResultBuilderERKT0_, symObjAddr: 0x12934, symBinAddr: 0x100029B54, symSize: 0x148 }
  - { offsetInCU: 0x151EE, offset: 0x4B215, size: 0x8, addend: 0x0, symName: __ZN5Catch8Internal14OperatorTraitsILNS0_8OperatorE0EE7getNameEv, symObjAddr: 0x12AAC, symBinAddr: 0x100029CCC, symSize: 0xC }
  - { offsetInCU: 0x15202, offset: 0x4B229, size: 0x8, addend: 0x0, symName: __ZN5Catch8Internal9EvaluatorIiiLNS0_8OperatorE0EE8evaluateERKiS5_, symObjAddr: 0x12AB8, symBinAddr: 0x100029CD8, symSize: 0x4C }
  - { offsetInCU: 0x15235, offset: 0x4B25C, size: 0x8, addend: 0x0, symName: __ZN5Catch13ResultBuilderD2Ev, symObjAddr: 0x12B18, symBinAddr: 0x100029D38, symSize: 0x50 }
  - { offsetInCU: 0x15261, offset: 0x4B288, size: 0x8, addend: 0x0, symName: __ZN5Catch14CopyableStreamD1Ev, symObjAddr: 0x12B68, symBinAddr: 0x100029D88, symSize: 0x2C }
  - { offsetInCU: 0x1528D, offset: 0x4B2B4, size: 0x8, addend: 0x0, symName: __ZN5Catch13ResultBuilder14ExprComponentsD1Ev, symObjAddr: 0x12B94, symBinAddr: 0x100029DB4, symSize: 0x2C }
  - { offsetInCU: 0x152B9, offset: 0x4B2E0, size: 0x8, addend: 0x0, symName: __ZN5Catch19AssertionResultDataD1Ev, symObjAddr: 0x12BC0, symBinAddr: 0x100029DE0, symSize: 0x2C }
  - { offsetInCU: 0x152E5, offset: 0x4B30C, size: 0x8, addend: 0x0, symName: __ZN5Catch13AssertionInfoD1Ev, symObjAddr: 0x12BEC, symBinAddr: 0x100029E0C, symSize: 0x2C }
  - { offsetInCU: 0x15311, offset: 0x4B338, size: 0x8, addend: 0x0, symName: __ZN5Catch14CopyableStreamD2Ev, symObjAddr: 0x12C18, symBinAddr: 0x100029E38, symSize: 0x2C }
  - { offsetInCU: 0x15342, offset: 0x4B369, size: 0x8, addend: 0x0, symName: __ZNSt3__119basic_ostringstreamIcNS_11char_traitsIcEENS_9allocatorIcEEED1Ev, symObjAddr: 0x12C44, symBinAddr: 0x100029E64, symSize: 0x40 }
  - { offsetInCU: 0x1536E, offset: 0x4B395, size: 0x8, addend: 0x0, symName: __ZNSt3__119basic_ostringstreamIcNS_11char_traitsIcEENS_9allocatorIcEEED2Ev, symObjAddr: 0x12C84, symBinAddr: 0x100029EA4, symSize: 0x64 }
  - { offsetInCU: 0x153A6, offset: 0x4B3CD, size: 0x8, addend: 0x0, symName: __ZTv0_n24_NSt3__119basic_ostringstreamIcNS_11char_traitsIcEENS_9allocatorIcEEED1Ev, symObjAddr: 0x12CE8, symBinAddr: 0x100029F08, symSize: 0x28 }
  - { offsetInCU: 0x153C2, offset: 0x4B3E9, size: 0x8, addend: 0x0, symName: __ZNSt3__115basic_stringbufIcNS_11char_traitsIcEENS_9allocatorIcEEED1Ev, symObjAddr: 0x12D10, symBinAddr: 0x100029F30, symSize: 0x2C }
  - { offsetInCU: 0x153EE, offset: 0x4B415, size: 0x8, addend: 0x0, symName: __ZNSt3__115basic_stringbufIcNS_11char_traitsIcEENS_9allocatorIcEEED2Ev, symObjAddr: 0x12D3C, symBinAddr: 0x100029F5C, symSize: 0x48 }
  - { offsetInCU: 0x1541A, offset: 0x4B441, size: 0x8, addend: 0x0, symName: __ZN5Catch13ResultBuilder14ExprComponentsD2Ev, symObjAddr: 0x12D84, symBinAddr: 0x100029FA4, symSize: 0x48 }
  - { offsetInCU: 0x15446, offset: 0x4B46D, size: 0x8, addend: 0x0, symName: __ZN5Catch19AssertionResultDataD2Ev, symObjAddr: 0x12DCC, symBinAddr: 0x100029FEC, symSize: 0x38 }
  - { offsetInCU: 0x15472, offset: 0x4B499, size: 0x8, addend: 0x0, symName: __ZN5Catch13AssertionInfoD2Ev, symObjAddr: 0x12E04, symBinAddr: 0x10002A024, symSize: 0x44 }
  - { offsetInCU: 0x1549E, offset: 0x4B4C5, size: 0x8, addend: 0x0, symName: __ZN5Catch13ExpressionLhsIRKdEC1ERNS_13ResultBuilderES2_, symObjAddr: 0x12EC8, symBinAddr: 0x10002A068, symSize: 0x3C }
  - { offsetInCU: 0x154E5, offset: 0x4B50C, size: 0x8, addend: 0x0, symName: __ZN5Catch13ExpressionLhsIRKdEC2ERNS_13ResultBuilderES2_, symObjAddr: 0x12F04, symBinAddr: 0x10002A0A4, symSize: 0x2C }
  - { offsetInCU: 0x1552C, offset: 0x4B553, size: 0x8, addend: 0x0, symName: __ZN5Catch13ExpressionLhsIRKdE17captureExpressionILNS_8Internal8OperatorE0EdEERNS_13ResultBuilderERKT0_, symObjAddr: 0x12F30, symBinAddr: 0x10002A0D0, symSize: 0x140 }
  - { offsetInCU: 0x15573, offset: 0x4B59A, size: 0x8, addend: 0x0, symName: __ZN5Catch8Internal9EvaluatorIddLNS0_8OperatorE0EE8evaluateERKdS5_, symObjAddr: 0x130A0, symBinAddr: 0x10002A240, symSize: 0x4C }
  - { offsetInCU: 0x155A6, offset: 0x4B5CD, size: 0x8, addend: 0x0, symName: __ZN17EdgeWeightedGraphD2Ev, symObjAddr: 0x13B74, symBinAddr: 0x10002A2A0, symSize: 0x30 }
  - { offsetInCU: 0x155D1, offset: 0x4B5F8, size: 0x8, addend: 0x0, symName: __ZNSt3__16vectorIbNS_9allocatorIbEEEC1B8ue170006Ev, symObjAddr: 0x13BA4, symBinAddr: 0x10002A2D0, symSize: 0x2C }
  - { offsetInCU: 0x155FC, offset: 0x4B623, size: 0x8, addend: 0x0, symName: __ZNSt3__16vectorIiNS_9allocatorIiEEEC1B8ue170006Ev, symObjAddr: 0x13BD0, symBinAddr: 0x10002A2FC, symSize: 0x2C }
  - { offsetInCU: 0x15625, offset: 0x4B64C, size: 0x8, addend: 0x0, symName: __ZNSt3__16vectorIbNS_9allocatorIbEEE6resizeEmb, symObjAddr: 0x13BFC, symBinAddr: 0x10002A328, symSize: 0x220 }
  - { offsetInCU: 0x156C5, offset: 0x4B6EC, size: 0x8, addend: 0x0, symName: __ZNSt3__16vectorIiNS_9allocatorIiEEE6resizeEmRKi, symObjAddr: 0x13E1C, symBinAddr: 0x10002A548, symSize: 0x9C }
  - { offsetInCU: 0x15718, offset: 0x4B73F, size: 0x8, addend: 0x0, symName: __ZN5Catch13ResultBuilderleEb, symObjAddr: 0x13EB8, symBinAddr: 0x10002A5E4, symSize: 0x44 }
  - { offsetInCU: 0x1574D, offset: 0x4B774, size: 0x8, addend: 0x0, symName: __ZN5Catch13ExpressionLhsIbEeqEb, symObjAddr: 0x13EFC, symBinAddr: 0x10002A628, symSize: 0x30 }
  - { offsetInCU: 0x1579A, offset: 0x4B7C1, size: 0x8, addend: 0x0, symName: __ZN5Catch13ResultBuilderleImEENS_13ExpressionLhsIRKT_EES5_, symObjAddr: 0x13F2C, symBinAddr: 0x10002A658, symSize: 0x38 }
  - { offsetInCU: 0x157D7, offset: 0x4B7FE, size: 0x8, addend: 0x0, symName: __ZNKSt3__16vectorIiNS_9allocatorIiEEE4sizeB8ue170006Ev, symObjAddr: 0x13F64, symBinAddr: 0x10002A690, symSize: 0x28 }
  - { offsetInCU: 0x157FC, offset: 0x4B823, size: 0x8, addend: 0x0, symName: __ZN5Catch13ExpressionLhsIRKmEeqIiEERNS_13ResultBuilderERKT_, symObjAddr: 0x13F8C, symBinAddr: 0x10002A6B8, symSize: 0x2C }
  - { offsetInCU: 0x15839, offset: 0x4B860, size: 0x8, addend: 0x0, symName: __ZNKSt3__16vectorIbNS_9allocatorIbEEE4sizeB8ue170006Ev, symObjAddr: 0x13FB8, symBinAddr: 0x10002A6E4, symSize: 0x18 }
  - { offsetInCU: 0x1585E, offset: 0x4B885, size: 0x8, addend: 0x0, symName: __ZNSt3__16vectorIiNS_9allocatorIiEEEixB8ue170006Em, symObjAddr: 0x13FD0, symBinAddr: 0x10002A6FC, symSize: 0x24 }
  - { offsetInCU: 0x158AD, offset: 0x4B8D4, size: 0x8, addend: 0x0, symName: __ZN5Catch13ResultBuilderleINSt3__115__bit_referenceINS2_6vectorIbNS2_9allocatorIbEEEELb1EEEEENS_13ExpressionLhsIRKT_EESC_, symObjAddr: 0x13FF4, symBinAddr: 0x10002A720, symSize: 0x38 }
  - { offsetInCU: 0x158EA, offset: 0x4B911, size: 0x8, addend: 0x0, symName: __ZNSt3__16vectorIbNS_9allocatorIbEEEixB8ue170006Em, symObjAddr: 0x1402C, symBinAddr: 0x10002A758, symSize: 0x3C }
  - { offsetInCU: 0x1591E, offset: 0x4B945, size: 0x8, addend: 0x0, symName: __ZN5Catch13ExpressionLhsIRKNSt3__115__bit_referenceINS1_6vectorIbNS1_9allocatorIbEEEELb1EEEEeqEb, symObjAddr: 0x14068, symBinAddr: 0x10002A794, symSize: 0x30 }
  - { offsetInCU: 0x15952, offset: 0x4B979, size: 0x8, addend: 0x0, symName: __ZNSt3__16vectorIiNS_9allocatorIiEEED1B8ue170006Ev, symObjAddr: 0x14098, symBinAddr: 0x10002A7C4, symSize: 0x2C }
  - { offsetInCU: 0x1597B, offset: 0x4B9A2, size: 0x8, addend: 0x0, symName: __ZNSt3__16vectorIbNS_9allocatorIbEEED1B8ue170006Ev, symObjAddr: 0x140C4, symBinAddr: 0x10002A7F0, symSize: 0x2C }
  - { offsetInCU: 0x159A4, offset: 0x4B9CB, size: 0x8, addend: 0x0, symName: __ZNSt3__16vectorIbNS_9allocatorIbEEEC2B8ue170006Ev, symObjAddr: 0x140F0, symBinAddr: 0x10002A81C, symSize: 0x4C }
  - { offsetInCU: 0x159D4, offset: 0x4B9FB, size: 0x8, addend: 0x0, symName: __ZNSt3__117__compressed_pairImNS_9allocatorImEEEC1B8ue170006IiNS_18__default_init_tagEEEOT_OT0_, symObjAddr: 0x1413C, symBinAddr: 0x10002A868, symSize: 0x3C }
  - { offsetInCU: 0x15A2B, offset: 0x4BA52, size: 0x8, addend: 0x0, symName: __ZNSt3__117__compressed_pairImNS_9allocatorImEEEC2B8ue170006IiNS_18__default_init_tagEEEOT_OT0_, symObjAddr: 0x14178, symBinAddr: 0x10002A8A4, symSize: 0x40 }
  - { offsetInCU: 0x15A82, offset: 0x4BAA9, size: 0x8, addend: 0x0, symName: __ZNSt3__122__compressed_pair_elemINS_9allocatorImEELi1ELb1EEC2B8ue170006ENS_18__default_init_tagE, symObjAddr: 0x141DC, symBinAddr: 0x10002A8E4, symSize: 0x2C }
  - { offsetInCU: 0x15AB5, offset: 0x4BADC, size: 0x8, addend: 0x0, symName: __ZNSt3__19allocatorImEC2B8ue170006Ev, symObjAddr: 0x14208, symBinAddr: 0x10002A910, symSize: 0x2C }
  - { offsetInCU: 0x15ADE, offset: 0x4BB05, size: 0x8, addend: 0x0, symName: __ZNSt3__116__non_trivial_ifILb1ENS_9allocatorImEEEC2B8ue170006Ev, symObjAddr: 0x14234, symBinAddr: 0x10002A93C, symSize: 0x14 }
  - { offsetInCU: 0x15B07, offset: 0x4BB2E, size: 0x8, addend: 0x0, symName: __ZNSt3__16vectorIiNS_9allocatorIiEEEC2B8ue170006Ev, symObjAddr: 0x14248, symBinAddr: 0x10002A950, symSize: 0x4C }
  - { offsetInCU: 0x15B35, offset: 0x4BB5C, size: 0x8, addend: 0x0, symName: __ZNSt3__117__compressed_pairIPiNS_9allocatorIiEEEC1B8ue170006IDnNS_18__default_init_tagEEEOT_OT0_, symObjAddr: 0x14294, symBinAddr: 0x10002A99C, symSize: 0x3C }
  - { offsetInCU: 0x15B8C, offset: 0x4BBB3, size: 0x8, addend: 0x0, symName: __ZNSt3__117__compressed_pairIPiNS_9allocatorIiEEEC2B8ue170006IDnNS_18__default_init_tagEEEOT_OT0_, symObjAddr: 0x142D0, symBinAddr: 0x10002A9D8, symSize: 0x40 }
  - { offsetInCU: 0x15BE3, offset: 0x4BC0A, size: 0x8, addend: 0x0, symName: __ZNSt3__122__compressed_pair_elemIPiLi0ELb0EEC2B8ue170006IDnvEEOT_, symObjAddr: 0x14310, symBinAddr: 0x10002AA18, symSize: 0x1C }
  - { offsetInCU: 0x15C24, offset: 0x4BC4B, size: 0x8, addend: 0x0, symName: __ZNSt3__122__compressed_pair_elemINS_9allocatorIiEELi1ELb1EEC2B8ue170006ENS_18__default_init_tagE, symObjAddr: 0x1432C, symBinAddr: 0x10002AA34, symSize: 0x2C }
  - { offsetInCU: 0x15C57, offset: 0x4BC7E, size: 0x8, addend: 0x0, symName: __ZNSt3__19allocatorIiEC2B8ue170006Ev, symObjAddr: 0x14358, symBinAddr: 0x10002AA60, symSize: 0x2C }
  - { offsetInCU: 0x15C80, offset: 0x4BCA7, size: 0x8, addend: 0x0, symName: __ZNSt3__116__non_trivial_ifILb1ENS_9allocatorIiEEEC2B8ue170006Ev, symObjAddr: 0x14384, symBinAddr: 0x10002AA8C, symSize: 0x14 }
  - { offsetInCU: 0x15CA9, offset: 0x4BCD0, size: 0x8, addend: 0x0, symName: __ZNSt3__114__bit_iteratorINS_6vectorIbNS_9allocatorIbEEEELb0ELm0EEC1B8ue170006Ev, symObjAddr: 0x14398, symBinAddr: 0x10002AAA0, symSize: 0x2C }
  - { offsetInCU: 0x15CD2, offset: 0x4BCF9, size: 0x8, addend: 0x0, symName: __ZNKSt3__16vectorIbNS_9allocatorIbEEE8capacityB8ue170006Ev, symObjAddr: 0x143C4, symBinAddr: 0x10002AACC, symSize: 0x2C }
  - { offsetInCU: 0x15CF7, offset: 0x4BD1E, size: 0x8, addend: 0x0, symName: __ZNSt3__16vectorIbNS_9allocatorIbEEE3endB8ue170006Ev, symObjAddr: 0x143F0, symBinAddr: 0x10002AAF8, symSize: 0x30 }
  - { offsetInCU: 0x15D1C, offset: 0x4BD43, size: 0x8, addend: 0x0, symName: __ZNSt3__114__bit_iteratorINS_6vectorIbNS_9allocatorIbEEEELb0ELm0EEaSB8ue170006ERKS5_, symObjAddr: 0x14420, symBinAddr: 0x10002AB28, symSize: 0x30 }
  - { offsetInCU: 0x15D50, offset: 0x4BD77, size: 0x8, addend: 0x0, symName: __ZNKSt3__16vectorIbNS_9allocatorIbEEE13get_allocatorB8ue170006Ev, symObjAddr: 0x14450, symBinAddr: 0x10002AB58, symSize: 0x30 }
  - { offsetInCU: 0x15D75, offset: 0x4BD9C, size: 0x8, addend: 0x0, symName: __ZNSt3__16vectorIbNS_9allocatorIbEEEC1B8ue170006ERKS2_, symObjAddr: 0x14480, symBinAddr: 0x10002AB88, symSize: 0x34 }
  - { offsetInCU: 0x15DAF, offset: 0x4BDD6, size: 0x8, addend: 0x0, symName: __ZNSt3__16vectorIbNS_9allocatorIbEEE7reserveEm, symObjAddr: 0x144B4, symBinAddr: 0x10002ABBC, symSize: 0x118 }
  - { offsetInCU: 0x15DFA, offset: 0x4BE21, size: 0x8, addend: 0x0, symName: __ZNKSt3__16vectorIbNS_9allocatorIbEEE11__recommendB8ue170006Em, symObjAddr: 0x145CC, symBinAddr: 0x10002ACD4, symSize: 0xCC }
  - { offsetInCU: 0x15E4D, offset: 0x4BE74, size: 0x8, addend: 0x0, symName: __ZNKSt3__16vectorIbNS_9allocatorIbEEE6cbeginB8ue170006Ev, symObjAddr: 0x1476C, symBinAddr: 0x10002AE74, symSize: 0x38 }
  - { offsetInCU: 0x15E72, offset: 0x4BE99, size: 0x8, addend: 0x0, symName: __ZNKSt3__16vectorIbNS_9allocatorIbEEE4cendB8ue170006Ev, symObjAddr: 0x147A4, symBinAddr: 0x10002AEAC, symSize: 0x38 }
  - { offsetInCU: 0x15E97, offset: 0x4BEBE, size: 0x8, addend: 0x0, symName: __ZNSt3__16vectorIbNS_9allocatorIbEEE5beginB8ue170006Ev, symObjAddr: 0x147DC, symBinAddr: 0x10002AEE4, symSize: 0x30 }
  - { offsetInCU: 0x15EBC, offset: 0x4BEE3, size: 0x8, addend: 0x0, symName: __ZNSt3__16vectorIbNS_9allocatorIbEEE4swapERS3_, symObjAddr: 0x1480C, symBinAddr: 0x10002AF14, symSize: 0x84 }
  - { offsetInCU: 0x15EF1, offset: 0x4BF18, size: 0x8, addend: 0x0, symName: __ZNSt3__114__bit_iteratorINS_6vectorIbNS_9allocatorIbEEEELb0ELm0EEC1B8ue170006ERKS5_, symObjAddr: 0x14924, symBinAddr: 0x10002B02C, symSize: 0x34 }
  - { offsetInCU: 0x15F29, offset: 0x4BF50, size: 0x8, addend: 0x0, symName: __ZNSt3__114__bit_iteratorINS_6vectorIbNS_9allocatorIbEEEELb0ELm0EEC2B8ue170006Ev, symObjAddr: 0x14958, symBinAddr: 0x10002B060, symSize: 0x1C }
  - { offsetInCU: 0x15F52, offset: 0x4BF79, size: 0x8, addend: 0x0, symName: __ZNSt3__16vectorIbNS_9allocatorIbEEE26__internal_cap_to_externalB8ue170006Em, symObjAddr: 0x14974, symBinAddr: 0x10002B07C, symSize: 0x18 }
  - { offsetInCU: 0x15F76, offset: 0x4BF9D, size: 0x8, addend: 0x0, symName: __ZNKSt3__16vectorIbNS_9allocatorIbEEE5__capB8ue170006Ev, symObjAddr: 0x1498C, symBinAddr: 0x10002B094, symSize: 0x28 }
  - { offsetInCU: 0x15F9B, offset: 0x4BFC2, size: 0x8, addend: 0x0, symName: __ZNKSt3__117__compressed_pairImNS_9allocatorImEEE5firstB8ue170006Ev, symObjAddr: 0x149B4, symBinAddr: 0x10002B0BC, symSize: 0x24 }
  - { offsetInCU: 0x15FC0, offset: 0x4BFE7, size: 0x8, addend: 0x0, symName: __ZNKSt3__122__compressed_pair_elemImLi0ELb0EE5__getB8ue170006Ev, symObjAddr: 0x149D8, symBinAddr: 0x10002B0E0, symSize: 0x14 }
  - { offsetInCU: 0x15FE5, offset: 0x4C00C, size: 0x8, addend: 0x0, symName: __ZNSt3__16vectorIbNS_9allocatorIbEEE11__make_iterB8ue170006Em, symObjAddr: 0x149EC, symBinAddr: 0x10002B0F4, symSize: 0x64 }
  - { offsetInCU: 0x16019, offset: 0x4C040, size: 0x8, addend: 0x0, symName: __ZNSt3__114__bit_iteratorINS_6vectorIbNS_9allocatorIbEEEELb0ELm0EEC1B8ue170006EPmj, symObjAddr: 0x14A50, symBinAddr: 0x10002B158, symSize: 0x3C }
  - { offsetInCU: 0x16060, offset: 0x4C087, size: 0x8, addend: 0x0, symName: __ZNSt3__114__bit_iteratorINS_6vectorIbNS_9allocatorIbEEEELb0ELm0EEC2B8ue170006EPmj, symObjAddr: 0x14A8C, symBinAddr: 0x10002B194, symSize: 0x2C }
  - { offsetInCU: 0x160A7, offset: 0x4C0CE, size: 0x8, addend: 0x0, symName: __ZNKSt3__16vectorIbNS_9allocatorIbEEE7__allocB8ue170006Ev, symObjAddr: 0x14AB8, symBinAddr: 0x10002B1C0, symSize: 0x28 }
  - { offsetInCU: 0x160CC, offset: 0x4C0F3, size: 0x8, addend: 0x0, symName: __ZNSt3__19allocatorIbEC1B8ue170006ImEERKNS0_IT_EE, symObjAddr: 0x14AE0, symBinAddr: 0x10002B1E8, symSize: 0x34 }
  - { offsetInCU: 0x16108, offset: 0x4C12F, size: 0x8, addend: 0x0, symName: __ZNKSt3__117__compressed_pairImNS_9allocatorImEEE6secondB8ue170006Ev, symObjAddr: 0x14B14, symBinAddr: 0x10002B21C, symSize: 0x24 }
  - { offsetInCU: 0x1612D, offset: 0x4C154, size: 0x8, addend: 0x0, symName: __ZNKSt3__122__compressed_pair_elemINS_9allocatorImEELi1ELb1EE5__getB8ue170006Ev, symObjAddr: 0x14B38, symBinAddr: 0x10002B240, symSize: 0x14 }
  - { offsetInCU: 0x16152, offset: 0x4C179, size: 0x8, addend: 0x0, symName: __ZNSt3__19allocatorIbEC2B8ue170006ImEERKNS0_IT_EE, symObjAddr: 0x14B4C, symBinAddr: 0x10002B254, symSize: 0x30 }
  - { offsetInCU: 0x1618E, offset: 0x4C1B5, size: 0x8, addend: 0x0, symName: __ZNSt3__116__non_trivial_ifILb1ENS_9allocatorIbEEEC2B8ue170006Ev, symObjAddr: 0x14B7C, symBinAddr: 0x10002B284, symSize: 0x14 }
  - { offsetInCU: 0x161B7, offset: 0x4C1DE, size: 0x8, addend: 0x0, symName: __ZNSt3__16vectorIbNS_9allocatorIbEEEC2B8ue170006ERKS2_, symObjAddr: 0x14B90, symBinAddr: 0x10002B298, symSize: 0x6C }
  - { offsetInCU: 0x161F6, offset: 0x4C21D, size: 0x8, addend: 0x0, symName: __ZNSt3__19allocatorImEC1B8ue170006IbEERKNS0_IT_EE, symObjAddr: 0x14BFC, symBinAddr: 0x10002B304, symSize: 0x34 }
  - { offsetInCU: 0x16237, offset: 0x4C25E, size: 0x8, addend: 0x0, symName: __ZNSt3__117__compressed_pairImNS_9allocatorImEEEC1B8ue170006IiS2_EEOT_OT0_, symObjAddr: 0x14C30, symBinAddr: 0x10002B338, symSize: 0x3C }
  - { offsetInCU: 0x1628E, offset: 0x4C2B5, size: 0x8, addend: 0x0, symName: __ZNSt3__19allocatorImEC2B8ue170006IbEERKNS0_IT_EE, symObjAddr: 0x14C6C, symBinAddr: 0x10002B374, symSize: 0x30 }
  - { offsetInCU: 0x162CA, offset: 0x4C2F1, size: 0x8, addend: 0x0, symName: __ZNSt3__117__compressed_pairImNS_9allocatorImEEEC2B8ue170006IiS2_EEOT_OT0_, symObjAddr: 0x14C9C, symBinAddr: 0x10002B3A4, symSize: 0x44 }
  - { offsetInCU: 0x16321, offset: 0x4C348, size: 0x8, addend: 0x0, symName: __ZNSt3__122__compressed_pair_elemINS_9allocatorImEELi1ELb1EEC2B8ue170006IS2_vEEOT_, symObjAddr: 0x14CE0, symBinAddr: 0x10002B3E8, symSize: 0x18 }
  - { offsetInCU: 0x16362, offset: 0x4C389, size: 0x8, addend: 0x0, symName: __ZNKSt3__16vectorIbNS_9allocatorIbEEE8max_sizeEv, symObjAddr: 0x14CF8, symBinAddr: 0x10002B400, symSize: 0x7C }
  - { offsetInCU: 0x163A6, offset: 0x4C3CD, size: 0x8, addend: 0x0, symName: __ZNKSt3__16vectorIbNS_9allocatorIbEEE20__throw_length_errorB8ue170006Ev, symObjAddr: 0x14D74, symBinAddr: 0x10002B47C, symSize: 0x1C }
  - { offsetInCU: 0x163CB, offset: 0x4C3F2, size: 0x8, addend: 0x0, symName: __ZNSt3__16vectorIbNS_9allocatorIbEEE11__vallocateB8ue170006Em, symObjAddr: 0x14D90, symBinAddr: 0x10002B498, symSize: 0xA0 }
  - { offsetInCU: 0x1640E, offset: 0x4C435, size: 0x8, addend: 0x0, symName: __ZNSt3__16vectorIbNS_9allocatorIbEEE18__construct_at_endINS_14__bit_iteratorIS3_Lb0ELm0EEES6_EEvT_T0_m, symObjAddr: 0x14E30, symBinAddr: 0x10002B538, symSize: 0x12C }
  - { offsetInCU: 0x1648E, offset: 0x4C4B5, size: 0x8, addend: 0x0, symName: __ZNSt3__116allocator_traitsINS_9allocatorImEEE8max_sizeB8ue170006IS2_vEEmRKS2_, symObjAddr: 0x14F5C, symBinAddr: 0x10002B664, symSize: 0x24 }
  - { offsetInCU: 0x164BC, offset: 0x4C4E3, size: 0x8, addend: 0x0, symName: __ZNSt3__114numeric_limitsImE3maxB8ue170006Ev, symObjAddr: 0x14F80, symBinAddr: 0x10002B688, symSize: 0x14 }
  - { offsetInCU: 0x164D0, offset: 0x4C4F7, size: 0x8, addend: 0x0, symName: __ZNKSt3__19allocatorImE8max_sizeB8ue170006Ev, symObjAddr: 0x14F94, symBinAddr: 0x10002B69C, symSize: 0x14 }
  - { offsetInCU: 0x164F5, offset: 0x4C51C, size: 0x8, addend: 0x0, symName: __ZNSt3__123__libcpp_numeric_limitsImLb1EE3maxB8ue170006Ev, symObjAddr: 0x14FA8, symBinAddr: 0x10002B6B0, symSize: 0x8 }
  - { offsetInCU: 0x16509, offset: 0x4C530, size: 0x8, addend: 0x0, symName: __ZNSt3__16vectorIbNS_9allocatorIbEEE7__allocB8ue170006Ev, symObjAddr: 0x150D4, symBinAddr: 0x10002B6F8, symSize: 0x28 }
  - { offsetInCU: 0x1652E, offset: 0x4C555, size: 0x8, addend: 0x0, symName: __ZNSt3__16vectorIbNS_9allocatorIbEEE26__external_cap_to_internalB8ue170006Em, symObjAddr: 0x150FC, symBinAddr: 0x10002B720, symSize: 0x24 }
  - { offsetInCU: 0x16552, offset: 0x4C579, size: 0x8, addend: 0x0, symName: __ZNSt3__16vectorIbNS_9allocatorIbEEE5__capB8ue170006Ev, symObjAddr: 0x15120, symBinAddr: 0x10002B744, symSize: 0x28 }
  - { offsetInCU: 0x16577, offset: 0x4C59E, size: 0x8, addend: 0x0, symName: __ZNSt3__19allocatorImE8allocateB8ue170006Em, symObjAddr: 0x15148, symBinAddr: 0x10002B76C, symSize: 0x58 }
  - { offsetInCU: 0x165AA, offset: 0x4C5D1, size: 0x8, addend: 0x0, symName: __ZNSt3__117__compressed_pairImNS_9allocatorImEEE6secondB8ue170006Ev, symObjAddr: 0x15220, symBinAddr: 0x10002B7C4, symSize: 0x24 }
  - { offsetInCU: 0x165CF, offset: 0x4C5F6, size: 0x8, addend: 0x0, symName: __ZNSt3__122__compressed_pair_elemINS_9allocatorImEELi1ELb1EE5__getB8ue170006Ev, symObjAddr: 0x15244, symBinAddr: 0x10002B7E8, symSize: 0x14 }
  - { offsetInCU: 0x165F4, offset: 0x4C61B, size: 0x8, addend: 0x0, symName: __ZNSt3__117__compressed_pairImNS_9allocatorImEEE5firstB8ue170006Ev, symObjAddr: 0x15258, symBinAddr: 0x10002B7FC, symSize: 0x24 }
  - { offsetInCU: 0x1663C, offset: 0x4C663, size: 0x8, addend: 0x0, symName: __ZNKSt3__111__copy_loopINS_17_ClassicAlgPolicyEEclB8ue170006INS_14__bit_iteratorINS_6vectorIbNS_9allocatorIbEEEELb0ELm0EEES9_S9_EENS_4pairIT_T1_EESB_T0_SC_, symObjAddr: 0x15588, symBinAddr: 0x10002BB18, symSize: 0xB8 }
  - { offsetInCU: 0x166A9, offset: 0x4C6D0, size: 0x8, addend: 0x0, symName: __ZNKSt3__114__bit_iteratorINS_6vectorIbNS_9allocatorIbEEEELb0ELm0EEdeB8ue170006Ev, symObjAddr: 0x157D8, symBinAddr: 0x10002BD68, symSize: 0x44 }
  - { offsetInCU: 0x166CE, offset: 0x4C6F5, size: 0x8, addend: 0x0, symName: __ZNSt3__115__bit_referenceINS_6vectorIbNS_9allocatorIbEEEELb1EEaSB8ue170006ERKS5_, symObjAddr: 0x1581C, symBinAddr: 0x10002BDAC, symSize: 0x40 }
  - { offsetInCU: 0x16701, offset: 0x4C728, size: 0x8, addend: 0x0, symName: __ZNSt3__114__bit_iteratorINS_6vectorIbNS_9allocatorIbEEEELb0ELm0EEppB8ue170006Ev, symObjAddr: 0x1585C, symBinAddr: 0x10002BDEC, symSize: 0x5C }
  - { offsetInCU: 0x16726, offset: 0x4C74D, size: 0x8, addend: 0x0, symName: __ZNSt3__115__bit_referenceINS_6vectorIbNS_9allocatorIbEEEELb1EEC1B8ue170006EPmm, symObjAddr: 0x1591C, symBinAddr: 0x10002BEAC, symSize: 0x3C }
  - { offsetInCU: 0x1676B, offset: 0x4C792, size: 0x8, addend: 0x0, symName: __ZNSt3__115__bit_referenceINS_6vectorIbNS_9allocatorIbEEEELb1EEC2B8ue170006EPmm, symObjAddr: 0x15958, symBinAddr: 0x10002BEE8, symSize: 0x2C }
  - { offsetInCU: 0x167B0, offset: 0x4C7D7, size: 0x8, addend: 0x0, symName: __ZNSt3__115__bit_referenceINS_6vectorIbNS_9allocatorIbEEEELb1EEaSB8ue170006Eb, symObjAddr: 0x15984, symBinAddr: 0x10002BF14, symSize: 0x6C }
  - { offsetInCU: 0x167E3, offset: 0x4C80A, size: 0x8, addend: 0x0, symName: __ZNKSt3__115__bit_referenceINS_6vectorIbNS_9allocatorIbEEEELb1EEcvbB8ue170006Ev, symObjAddr: 0x159F0, symBinAddr: 0x10002BF80, symSize: 0x2C }
  - { offsetInCU: 0x16808, offset: 0x4C82F, size: 0x8, addend: 0x0, symName: __ZNSt3__118__unwrap_iter_implINS_14__bit_iteratorINS_6vectorIbNS_9allocatorIbEEEELb0ELm0EEELb0EE8__unwrapB8ue170006ES6_, symObjAddr: 0x15A1C, symBinAddr: 0x10002BFAC, symSize: 0x38 }
  - { offsetInCU: 0x16831, offset: 0x4C858, size: 0x8, addend: 0x0, symName: __ZNSt3__14pairINS_14__bit_iteratorINS_6vectorIbNS_9allocatorIbEEEELb0ELm0EEES6_EC1B8ue170006IS6_S6_LPv0EEEOT_OT0_, symObjAddr: 0x15A54, symBinAddr: 0x10002BFE4, symSize: 0x3C }
  - { offsetInCU: 0x1688E, offset: 0x4C8B5, size: 0x8, addend: 0x0, symName: __ZNSt3__14pairINS_14__bit_iteratorINS_6vectorIbNS_9allocatorIbEEEELb0ELm0EEES6_EC2B8ue170006IS6_S6_LPv0EEEOT_OT0_, symObjAddr: 0x15A90, symBinAddr: 0x10002C020, symSize: 0x48 }
  - { offsetInCU: 0x168EB, offset: 0x4C912, size: 0x8, addend: 0x0, symName: __ZNSt3__118__unwrap_iter_implINS_14__bit_iteratorINS_6vectorIbNS_9allocatorIbEEEELb0ELm0EEELb0EE8__rewrapB8ue170006ES6_S6_, symObjAddr: 0x15AD8, symBinAddr: 0x10002C068, symSize: 0x3C }
  - { offsetInCU: 0x1691A, offset: 0x4C941, size: 0x8, addend: 0x0, symName: __ZNSt3__16vectorIbNS_9allocatorIbEEE10__align_itB8ue170006Em, symObjAddr: 0x15B40, symBinAddr: 0x10002C0A4, symSize: 0x1C }
  - { offsetInCU: 0x16952, offset: 0x4C979, size: 0x8, addend: 0x0, symName: __ZNKSt3__16__lessIvvEclB8ue170006IllEEbRKT_RKT0_, symObjAddr: 0x164A0, symBinAddr: 0x10002C97C, symSize: 0x34 }
  - { offsetInCU: 0x169C8, offset: 0x4C9EF, size: 0x8, addend: 0x0, symName: __ZNKSt3__114__copy_trivialclB8ue170006IKmmLi0EEENS_4pairIPT_PT0_EES5_S5_S7_, symObjAddr: 0x166B0, symBinAddr: 0x10002CB8C, symSize: 0x48 }
  - { offsetInCU: 0x16A4D, offset: 0x4CA74, size: 0x8, addend: 0x0, symName: __ZNSt3__14pairIPKmS2_EC1B8ue170006IS2_S2_LPv0EEEOT_OT0_, symObjAddr: 0x16818, symBinAddr: 0x10002CCF4, symSize: 0x3C }
  - { offsetInCU: 0x16AAA, offset: 0x4CAD1, size: 0x8, addend: 0x0, symName: __ZNSt3__14pairIPKmS2_EC2B8ue170006IS2_S2_LPv0EEEOT_OT0_, symObjAddr: 0x16854, symBinAddr: 0x10002CD30, symSize: 0x34 }
  - { offsetInCU: 0x16B07, offset: 0x4CB2E, size: 0x8, addend: 0x0, symName: __ZNSt3__118__unwrap_iter_implIPKmLb1EE8__unwrapB8ue170006ES2_, symObjAddr: 0x16888, symBinAddr: 0x10002CD64, symSize: 0x24 }
  - { offsetInCU: 0x16B34, offset: 0x4CB5B, size: 0x8, addend: 0x0, symName: __ZNSt3__14pairIPKmPmEC1B8ue170006IRS2_S3_LPv0EEEOT_OT0_, symObjAddr: 0x169C8, symBinAddr: 0x10002CEA4, symSize: 0x3C }
  - { offsetInCU: 0x16B91, offset: 0x4CBB8, size: 0x8, addend: 0x0, symName: __ZNSt3__14pairIPKmPmEC2B8ue170006IRS2_S3_LPv0EEEOT_OT0_, symObjAddr: 0x16A04, symBinAddr: 0x10002CEE0, symSize: 0x34 }
  - { offsetInCU: 0x16BEE, offset: 0x4CC15, size: 0x8, addend: 0x0, symName: __ZNSt3__118__unwrap_iter_implIPmLb1EE8__unwrapB8ue170006ES1_, symObjAddr: 0x16A38, symBinAddr: 0x10002CF14, symSize: 0x24 }
  - { offsetInCU: 0x16C11, offset: 0x4CC38, size: 0x8, addend: 0x0, symName: __ZNSt3__14pairIPKmPmEC1B8ue170006IS2_S3_LPv0EEEOT_OT0_, symObjAddr: 0x16A5C, symBinAddr: 0x10002CF38, symSize: 0x3C }
  - { offsetInCU: 0x16C6E, offset: 0x4CC95, size: 0x8, addend: 0x0, symName: __ZNSt3__14pairIPKmPmEC2B8ue170006IS2_S3_LPv0EEEOT_OT0_, symObjAddr: 0x16A98, symBinAddr: 0x10002CF74, symSize: 0x34 }
  - { offsetInCU: 0x16CCB, offset: 0x4CCF2, size: 0x8, addend: 0x0, symName: __ZNSt3__118__unwrap_iter_implIPKmLb1EE8__rewrapB8ue170006ES2_S2_, symObjAddr: 0x16B08, symBinAddr: 0x10002CFE4, symSize: 0x50 }
  - { offsetInCU: 0x16CFC, offset: 0x4CD23, size: 0x8, addend: 0x0, symName: __ZNSt3__118__unwrap_iter_implIPmLb1EE8__rewrapB8ue170006ES1_S1_, symObjAddr: 0x16B58, symBinAddr: 0x10002D034, symSize: 0x50 }
  - { offsetInCU: 0x16D2D, offset: 0x4CD54, size: 0x8, addend: 0x0, symName: __ZNKSt3__16vectorIbNS_9allocatorIbEEE11__make_iterB8ue170006Em, symObjAddr: 0x16C28, symBinAddr: 0x10002D084, symSize: 0x5C }
  - { offsetInCU: 0x16D61, offset: 0x4CD88, size: 0x8, addend: 0x0, symName: __ZNSt3__114__bit_iteratorINS_6vectorIbNS_9allocatorIbEEEELb1ELm0EEC1B8ue170006EPKmj, symObjAddr: 0x16C84, symBinAddr: 0x10002D0E0, symSize: 0x3C }
  - { offsetInCU: 0x16DA8, offset: 0x4CDCF, size: 0x8, addend: 0x0, symName: __ZNSt3__114__bit_iteratorINS_6vectorIbNS_9allocatorIbEEEELb1ELm0EEC2B8ue170006EPKmj, symObjAddr: 0x16CC0, symBinAddr: 0x10002D11C, symSize: 0x2C }
  - { offsetInCU: 0x16DEF, offset: 0x4CE16, size: 0x8, addend: 0x0, symName: __ZNSt3__114__bit_iteratorINS_6vectorIbNS_9allocatorIbEEEELb0ELm0EEC2B8ue170006ERKS5_, symObjAddr: 0x17198, symBinAddr: 0x10002D5E0, symSize: 0x30 }
  - { offsetInCU: 0x16E27, offset: 0x4CE4E, size: 0x8, addend: 0x0, symName: __ZNSt3__16vectorIiNS_9allocatorIiEEE8__appendEmRKi, symObjAddr: 0x171C8, symBinAddr: 0x10002D610, symSize: 0x114 }
  - { offsetInCU: 0x16E90, offset: 0x4CEB7, size: 0x8, addend: 0x0, symName: __ZNSt3__16vectorIiNS_9allocatorIiEEE17__destruct_at_endB8ue170006EPi, symObjAddr: 0x172DC, symBinAddr: 0x10002D724, symSize: 0x4C }
  - { offsetInCU: 0x16ED3, offset: 0x4CEFA, size: 0x8, addend: 0x0, symName: __ZNSt3__16vectorIiNS_9allocatorIiEEE9__end_capB8ue170006Ev, symObjAddr: 0x17328, symBinAddr: 0x10002D770, symSize: 0x28 }
  - { offsetInCU: 0x16EF8, offset: 0x4CF1F, size: 0x8, addend: 0x0, symName: __ZNSt3__16vectorIiNS_9allocatorIiEEE18__construct_at_endEmRKi, symObjAddr: 0x17350, symBinAddr: 0x10002D798, symSize: 0xD0 }
  - { offsetInCU: 0x16F77, offset: 0x4CF9E, size: 0x8, addend: 0x0, symName: __ZNSt3__16vectorIiNS_9allocatorIiEEE7__allocB8ue170006Ev, symObjAddr: 0x17420, symBinAddr: 0x10002D868, symSize: 0x28 }
  - { offsetInCU: 0x16F9C, offset: 0x4CFC3, size: 0x8, addend: 0x0, symName: __ZNKSt3__16vectorIiNS_9allocatorIiEEE11__recommendB8ue170006Em, symObjAddr: 0x17448, symBinAddr: 0x10002D890, symSize: 0xB4 }
  - { offsetInCU: 0x16FEF, offset: 0x4D016, size: 0x8, addend: 0x0, symName: __ZNSt3__114__split_bufferIiRNS_9allocatorIiEEEC1EmmS3_, symObjAddr: 0x174FC, symBinAddr: 0x10002D944, symSize: 0x44 }
  - { offsetInCU: 0x17044, offset: 0x4D06B, size: 0x8, addend: 0x0, symName: __ZNSt3__114__split_bufferIiRNS_9allocatorIiEEE18__construct_at_endEmRKi, symObjAddr: 0x17540, symBinAddr: 0x10002D988, symSize: 0xBC }
  - { offsetInCU: 0x17095, offset: 0x4D0BC, size: 0x8, addend: 0x0, symName: __ZNSt3__114__split_bufferIiRNS_9allocatorIiEEED1Ev, symObjAddr: 0x1770C, symBinAddr: 0x10002DB54, symSize: 0x2C }
  - { offsetInCU: 0x170C0, offset: 0x4D0E7, size: 0x8, addend: 0x0, symName: __ZNSt3__117__compressed_pairIPiNS_9allocatorIiEEE5firstB8ue170006Ev, symObjAddr: 0x17738, symBinAddr: 0x10002DB80, symSize: 0x24 }
  - { offsetInCU: 0x170E5, offset: 0x4D10C, size: 0x8, addend: 0x0, symName: __ZNSt3__122__compressed_pair_elemIPiLi0ELb0EE5__getB8ue170006Ev, symObjAddr: 0x1775C, symBinAddr: 0x10002DBA4, symSize: 0x14 }
  - { offsetInCU: 0x17123, offset: 0x4D14A, size: 0x8, addend: 0x0, symName: __ZNSt3__16vectorIiNS_9allocatorIiEEE21_ConstructTransactionC1B8ue170006ERS3_m, symObjAddr: 0x17770, symBinAddr: 0x10002DBB8, symSize: 0x3C }
  - { offsetInCU: 0x1716A, offset: 0x4D191, size: 0x8, addend: 0x0, symName: __ZNSt3__116allocator_traitsINS_9allocatorIiEEE9constructB8ue170006IiJRKiEvEEvRS2_PT_DpOT0_, symObjAddr: 0x177AC, symBinAddr: 0x10002DBF4, symSize: 0x34 }
  - { offsetInCU: 0x171C1, offset: 0x4D1E8, size: 0x8, addend: 0x0, symName: __ZNSt3__16vectorIiNS_9allocatorIiEEE21_ConstructTransactionD1B8ue170006Ev, symObjAddr: 0x177F4, symBinAddr: 0x10002DC3C, symSize: 0x2C }
  - { offsetInCU: 0x171EA, offset: 0x4D211, size: 0x8, addend: 0x0, symName: __ZNSt3__16vectorIiNS_9allocatorIiEEE21_ConstructTransactionC2B8ue170006ERS3_m, symObjAddr: 0x17820, symBinAddr: 0x10002DC68, symSize: 0x44 }
  - { offsetInCU: 0x17231, offset: 0x4D258, size: 0x8, addend: 0x0, symName: __ZNSt3__19allocatorIiE9constructB8ue170006IiJRKiEEEvPT_DpOT0_, symObjAddr: 0x17864, symBinAddr: 0x10002DCAC, symSize: 0x28 }
  - { offsetInCU: 0x17286, offset: 0x4D2AD, size: 0x8, addend: 0x0, symName: __ZNSt3__16vectorIiNS_9allocatorIiEEE21_ConstructTransactionD2B8ue170006Ev, symObjAddr: 0x1788C, symBinAddr: 0x10002DCD4, symSize: 0x20 }
  - { offsetInCU: 0x172AF, offset: 0x4D2D6, size: 0x8, addend: 0x0, symName: __ZNSt3__117__compressed_pairIPiNS_9allocatorIiEEE6secondB8ue170006Ev, symObjAddr: 0x178AC, symBinAddr: 0x10002DCF4, symSize: 0x24 }
  - { offsetInCU: 0x172D4, offset: 0x4D2FB, size: 0x8, addend: 0x0, symName: __ZNSt3__122__compressed_pair_elemINS_9allocatorIiEELi1ELb1EE5__getB8ue170006Ev, symObjAddr: 0x178D0, symBinAddr: 0x10002DD18, symSize: 0x14 }
  - { offsetInCU: 0x172F9, offset: 0x4D320, size: 0x8, addend: 0x0, symName: __ZNKSt3__16vectorIiNS_9allocatorIiEEE8max_sizeEv, symObjAddr: 0x178E4, symBinAddr: 0x10002DD2C, symSize: 0x60 }
  - { offsetInCU: 0x1731F, offset: 0x4D346, size: 0x8, addend: 0x0, symName: __ZNKSt3__16vectorIiNS_9allocatorIiEEE20__throw_length_errorB8ue170006Ev, symObjAddr: 0x17944, symBinAddr: 0x10002DD8C, symSize: 0x1C }
  - { offsetInCU: 0x17344, offset: 0x4D36B, size: 0x8, addend: 0x0, symName: __ZNKSt3__16vectorIiNS_9allocatorIiEEE8capacityB8ue170006Ev, symObjAddr: 0x17960, symBinAddr: 0x10002DDA8, symSize: 0x40 }
  - { offsetInCU: 0x17373, offset: 0x4D39A, size: 0x8, addend: 0x0, symName: __ZNSt3__116allocator_traitsINS_9allocatorIiEEE8max_sizeB8ue170006IS2_vEEmRKS2_, symObjAddr: 0x179A0, symBinAddr: 0x10002DDE8, symSize: 0x24 }
  - { offsetInCU: 0x173A1, offset: 0x4D3C8, size: 0x8, addend: 0x0, symName: __ZNKSt3__16vectorIiNS_9allocatorIiEEE7__allocB8ue170006Ev, symObjAddr: 0x179C4, symBinAddr: 0x10002DE0C, symSize: 0x28 }
  - { offsetInCU: 0x173C6, offset: 0x4D3ED, size: 0x8, addend: 0x0, symName: __ZNKSt3__19allocatorIiE8max_sizeB8ue170006Ev, symObjAddr: 0x17A00, symBinAddr: 0x10002DE34, symSize: 0x14 }
  - { offsetInCU: 0x173EB, offset: 0x4D412, size: 0x8, addend: 0x0, symName: __ZNKSt3__117__compressed_pairIPiNS_9allocatorIiEEE6secondB8ue170006Ev, symObjAddr: 0x17A14, symBinAddr: 0x10002DE48, symSize: 0x24 }
  - { offsetInCU: 0x17410, offset: 0x4D437, size: 0x8, addend: 0x0, symName: __ZNKSt3__122__compressed_pair_elemINS_9allocatorIiEELi1ELb1EE5__getB8ue170006Ev, symObjAddr: 0x17A38, symBinAddr: 0x10002DE6C, symSize: 0x14 }
  - { offsetInCU: 0x17435, offset: 0x4D45C, size: 0x8, addend: 0x0, symName: __ZNKSt3__16vectorIiNS_9allocatorIiEEE9__end_capB8ue170006Ev, symObjAddr: 0x17A54, symBinAddr: 0x10002DE80, symSize: 0x28 }
  - { offsetInCU: 0x1745A, offset: 0x4D481, size: 0x8, addend: 0x0, symName: __ZNKSt3__117__compressed_pairIPiNS_9allocatorIiEEE5firstB8ue170006Ev, symObjAddr: 0x17A7C, symBinAddr: 0x10002DEA8, symSize: 0x24 }
  - { offsetInCU: 0x1747F, offset: 0x4D4A6, size: 0x8, addend: 0x0, symName: __ZNKSt3__122__compressed_pair_elemIPiLi0ELb0EE5__getB8ue170006Ev, symObjAddr: 0x17AA0, symBinAddr: 0x10002DECC, symSize: 0x14 }
  - { offsetInCU: 0x174A4, offset: 0x4D4CB, size: 0x8, addend: 0x0, symName: __ZNSt3__114__split_bufferIiRNS_9allocatorIiEEEC2EmmS3_, symObjAddr: 0x17AB4, symBinAddr: 0x10002DEE0, symSize: 0xD4 }
  - { offsetInCU: 0x17516, offset: 0x4D53D, size: 0x8, addend: 0x0, symName: __ZNSt3__117__compressed_pairIPiRNS_9allocatorIiEEEC1B8ue170006IDnS4_EEOT_OT0_, symObjAddr: 0x17B88, symBinAddr: 0x10002DFB4, symSize: 0x3C }
  - { offsetInCU: 0x1756D, offset: 0x4D594, size: 0x8, addend: 0x0, symName: __ZNSt3__114__split_bufferIiRNS_9allocatorIiEEE7__allocB8ue170006Ev, symObjAddr: 0x17C04, symBinAddr: 0x10002E030, symSize: 0x28 }
  - { offsetInCU: 0x17592, offset: 0x4D5B9, size: 0x8, addend: 0x0, symName: __ZNSt3__114__split_bufferIiRNS_9allocatorIiEEE9__end_capB8ue170006Ev, symObjAddr: 0x17C2C, symBinAddr: 0x10002E058, symSize: 0x28 }
  - { offsetInCU: 0x175B7, offset: 0x4D5DE, size: 0x8, addend: 0x0, symName: __ZNSt3__117__compressed_pairIPiRNS_9allocatorIiEEEC2B8ue170006IDnS4_EEOT_OT0_, symObjAddr: 0x17C54, symBinAddr: 0x10002E080, symSize: 0x48 }
  - { offsetInCU: 0x1760E, offset: 0x4D635, size: 0x8, addend: 0x0, symName: __ZNSt3__122__compressed_pair_elemIRNS_9allocatorIiEELi1ELb0EEC2B8ue170006IS3_vEEOT_, symObjAddr: 0x17C9C, symBinAddr: 0x10002E0C8, symSize: 0x20 }
  - { offsetInCU: 0x1764F, offset: 0x4D676, size: 0x8, addend: 0x0, symName: __ZNSt3__19allocatorIiE8allocateB8ue170006Em, symObjAddr: 0x17CBC, symBinAddr: 0x10002E0E8, symSize: 0x58 }
  - { offsetInCU: 0x17682, offset: 0x4D6A9, size: 0x8, addend: 0x0, symName: __ZNSt3__117__compressed_pairIPiRNS_9allocatorIiEEE6secondB8ue170006Ev, symObjAddr: 0x17D14, symBinAddr: 0x10002E140, symSize: 0x28 }
  - { offsetInCU: 0x176A7, offset: 0x4D6CE, size: 0x8, addend: 0x0, symName: __ZNSt3__122__compressed_pair_elemIRNS_9allocatorIiEELi1ELb0EE5__getB8ue170006Ev, symObjAddr: 0x17D3C, symBinAddr: 0x10002E168, symSize: 0x18 }
  - { offsetInCU: 0x176CC, offset: 0x4D6F3, size: 0x8, addend: 0x0, symName: __ZNSt3__117__compressed_pairIPiRNS_9allocatorIiEEE5firstB8ue170006Ev, symObjAddr: 0x17D54, symBinAddr: 0x10002E180, symSize: 0x24 }
  - { offsetInCU: 0x176FB, offset: 0x4D722, size: 0x8, addend: 0x0, symName: __ZNSt3__114__split_bufferIiRNS_9allocatorIiEEE21_ConstructTransactionC1B8ue170006EPPim, symObjAddr: 0x17D78, symBinAddr: 0x10002E1A4, symSize: 0x3C }
  - { offsetInCU: 0x17740, offset: 0x4D767, size: 0x8, addend: 0x0, symName: __ZNSt3__114__split_bufferIiRNS_9allocatorIiEEE21_ConstructTransactionD1B8ue170006Ev, symObjAddr: 0x17DB4, symBinAddr: 0x10002E1E0, symSize: 0x2C }
  - { offsetInCU: 0x17769, offset: 0x4D790, size: 0x8, addend: 0x0, symName: __ZNSt3__114__split_bufferIiRNS_9allocatorIiEEE21_ConstructTransactionC2B8ue170006EPPim, symObjAddr: 0x17DE0, symBinAddr: 0x10002E20C, symSize: 0x44 }
  - { offsetInCU: 0x177AE, offset: 0x4D7D5, size: 0x8, addend: 0x0, symName: __ZNSt3__114__split_bufferIiRNS_9allocatorIiEEE21_ConstructTransactionD2B8ue170006Ev, symObjAddr: 0x17E24, symBinAddr: 0x10002E250, symSize: 0x20 }
  - { offsetInCU: 0x177D7, offset: 0x4D7FE, size: 0x8, addend: 0x0, symName: __ZNKSt3__16vectorIiNS_9allocatorIiEEE17__annotate_deleteB8ue170006Ev, symObjAddr: 0x17E44, symBinAddr: 0x10002E270, symSize: 0xB8 }
  - { offsetInCU: 0x177FC, offset: 0x4D823, size: 0x8, addend: 0x0, symName: __ZNSt3__116reverse_iteratorIPiEC1B8ue170006ES1_, symObjAddr: 0x17F74, symBinAddr: 0x10002E3A0, symSize: 0x34 }
  - { offsetInCU: 0x17833, offset: 0x4D85A, size: 0x8, addend: 0x0, symName: __ZNKSt3__116reverse_iteratorIPiE4baseB8ue170006Ev, symObjAddr: 0x17FA8, symBinAddr: 0x10002E3D4, symSize: 0x18 }
  - { offsetInCU: 0x17858, offset: 0x4D87F, size: 0x8, addend: 0x0, symName: __ZNKSt3__16vectorIiNS_9allocatorIiEEE14__annotate_newB8ue170006Em, symObjAddr: 0x17FFC, symBinAddr: 0x10002E428, symSize: 0xAC }
  - { offsetInCU: 0x1788C, offset: 0x4D8B3, size: 0x8, addend: 0x0, symName: __ZNKSt3__16vectorIiNS_9allocatorIiEEE31__annotate_contiguous_containerB8ue170006EPKvS5_S5_S5_, symObjAddr: 0x180A8, symBinAddr: 0x10002E4D4, symSize: 0x20 }
  - { offsetInCU: 0x178DD, offset: 0x4D904, size: 0x8, addend: 0x0, symName: __ZNKSt3__16vectorIiNS_9allocatorIiEEE4dataB8ue170006Ev, symObjAddr: 0x180C8, symBinAddr: 0x10002E4F4, symSize: 0x28 }
  - { offsetInCU: 0x17925, offset: 0x4D94C, size: 0x8, addend: 0x0, symName: __ZNKSt3__111__move_loopINS_17_ClassicAlgPolicyEEclB8ue170006INS_16reverse_iteratorIPiEES6_S6_EENS_4pairIT_T1_EES8_T0_S9_, symObjAddr: 0x183E0, symBinAddr: 0x10002E80C, symSize: 0xA0 }
  - { offsetInCU: 0x1798F, offset: 0x4D9B6, size: 0x8, addend: 0x0, symName: __ZNSt3__18_IterOpsINS_17_ClassicAlgPolicyEE11__iter_moveB8ue170006IRNS_16reverse_iteratorIPiEEEENS_9enable_ifIXsr12is_referenceIDTdeclsr3stdE7declvalIRT_EEEEE5valueEDTclsr3stdE4movedeclsr3stdE7declvalISA_EEEEE4typeEOS9_, symObjAddr: 0x18614, symBinAddr: 0x10002EA40, symSize: 0x28 }
  - { offsetInCU: 0x179BB, offset: 0x4D9E2, size: 0x8, addend: 0x0, symName: __ZNKSt3__116reverse_iteratorIPiEdeB8ue170006Ev, symObjAddr: 0x1863C, symBinAddr: 0x10002EA68, symSize: 0x28 }
  - { offsetInCU: 0x179EE, offset: 0x4DA15, size: 0x8, addend: 0x0, symName: __ZNSt3__116reverse_iteratorIPiEppB8ue170006Ev, symObjAddr: 0x18664, symBinAddr: 0x10002EA90, symSize: 0x20 }
  - { offsetInCU: 0x17A13, offset: 0x4DA3A, size: 0x8, addend: 0x0, symName: __ZNSt3__18_IterOpsINS_17_ClassicAlgPolicyEE25__validate_iter_referenceB8ue170006IRNS_16reverse_iteratorIPiEEEEvv, symObjAddr: 0x18684, symBinAddr: 0x10002EAB0, symSize: 0x4 }
  - { offsetInCU: 0x17A31, offset: 0x4DA58, size: 0x8, addend: 0x0, symName: __ZNSt3__118__unwrap_iter_implINS_16reverse_iteratorIPiEELb0EE8__unwrapB8ue170006ES3_, symObjAddr: 0x18688, symBinAddr: 0x10002EAB4, symSize: 0x24 }
  - { offsetInCU: 0x17A59, offset: 0x4DA80, size: 0x8, addend: 0x0, symName: __ZNSt3__14pairINS_16reverse_iteratorIPiEES3_EC1B8ue170006IS3_S3_LPv0EEEOT_OT0_, symObjAddr: 0x186AC, symBinAddr: 0x10002EAD8, symSize: 0x3C }
  - { offsetInCU: 0x17AB6, offset: 0x4DADD, size: 0x8, addend: 0x0, symName: __ZNSt3__14pairINS_16reverse_iteratorIPiEES3_EC2B8ue170006IS3_S3_LPv0EEEOT_OT0_, symObjAddr: 0x186E8, symBinAddr: 0x10002EB14, symSize: 0x34 }
  - { offsetInCU: 0x17B13, offset: 0x4DB3A, size: 0x8, addend: 0x0, symName: __ZNSt3__118__unwrap_iter_implINS_16reverse_iteratorIPiEELb0EE8__rewrapB8ue170006ES3_S3_, symObjAddr: 0x1871C, symBinAddr: 0x10002EB48, symSize: 0x2C }
  - { offsetInCU: 0x17B40, offset: 0x4DB67, size: 0x8, addend: 0x0, symName: __ZNSt3__116reverse_iteratorIPiEC2B8ue170006ES1_, symObjAddr: 0x18748, symBinAddr: 0x10002EB74, symSize: 0x28 }
  - { offsetInCU: 0x17B77, offset: 0x4DB9E, size: 0x8, addend: 0x0, symName: __ZNSt3__114__split_bufferIiRNS_9allocatorIiEEED2Ev, symObjAddr: 0x18770, symBinAddr: 0x10002EB9C, symSize: 0x8C }
  - { offsetInCU: 0x17BA2, offset: 0x4DBC9, size: 0x8, addend: 0x0, symName: __ZNSt3__114__split_bufferIiRNS_9allocatorIiEEE5clearB8ue170006Ev, symObjAddr: 0x187FC, symBinAddr: 0x10002EC28, symSize: 0x28 }
  - { offsetInCU: 0x17BC7, offset: 0x4DBEE, size: 0x8, addend: 0x0, symName: __ZNSt3__116allocator_traitsINS_9allocatorIiEEE10deallocateB8ue170006ERS2_Pim, symObjAddr: 0x18824, symBinAddr: 0x10002EC50, symSize: 0x34 }
  - { offsetInCU: 0x17C09, offset: 0x4DC30, size: 0x8, addend: 0x0, symName: __ZNKSt3__114__split_bufferIiRNS_9allocatorIiEEE8capacityB8ue170006Ev, symObjAddr: 0x18858, symBinAddr: 0x10002EC84, symSize: 0x40 }
  - { offsetInCU: 0x17C2E, offset: 0x4DC55, size: 0x8, addend: 0x0, symName: __ZNSt3__114__split_bufferIiRNS_9allocatorIiEEE17__destruct_at_endB8ue170006EPi, symObjAddr: 0x18898, symBinAddr: 0x10002ECC4, symSize: 0x2C }
  - { offsetInCU: 0x17C61, offset: 0x4DC88, size: 0x8, addend: 0x0, symName: __ZNSt3__114__split_bufferIiRNS_9allocatorIiEEE17__destruct_at_endB8ue170006EPiNS_17integral_constantIbLb0EEE, symObjAddr: 0x188C4, symBinAddr: 0x10002ECF0, symSize: 0x80 }
  - { offsetInCU: 0x17C9F, offset: 0x4DCC6, size: 0x8, addend: 0x0, symName: __ZNSt3__116allocator_traitsINS_9allocatorIiEEE7destroyB8ue170006IivEEvRS2_PT_, symObjAddr: 0x18944, symBinAddr: 0x10002ED70, symSize: 0x2C }
  - { offsetInCU: 0x17CDC, offset: 0x4DD03, size: 0x8, addend: 0x0, symName: __ZNSt3__19allocatorIiE7destroyB8ue170006EPi, symObjAddr: 0x18970, symBinAddr: 0x10002ED9C, symSize: 0x14 }
  - { offsetInCU: 0x17D0F, offset: 0x4DD36, size: 0x8, addend: 0x0, symName: __ZNSt3__19allocatorIiE10deallocateB8ue170006EPim, symObjAddr: 0x18984, symBinAddr: 0x10002EDB0, symSize: 0x40 }
  - { offsetInCU: 0x17D50, offset: 0x4DD77, size: 0x8, addend: 0x0, symName: __ZNKSt3__114__split_bufferIiRNS_9allocatorIiEEE9__end_capB8ue170006Ev, symObjAddr: 0x189C4, symBinAddr: 0x10002EDF0, symSize: 0x28 }
  - { offsetInCU: 0x17D75, offset: 0x4DD9C, size: 0x8, addend: 0x0, symName: __ZNKSt3__117__compressed_pairIPiRNS_9allocatorIiEEE5firstB8ue170006Ev, symObjAddr: 0x189EC, symBinAddr: 0x10002EE18, symSize: 0x24 }
  - { offsetInCU: 0x17D9A, offset: 0x4DDC1, size: 0x8, addend: 0x0, symName: __ZNSt3__16vectorIiNS_9allocatorIiEEE22__base_destruct_at_endB8ue170006EPi, symObjAddr: 0x18A10, symBinAddr: 0x10002EE3C, symSize: 0x8C }
  - { offsetInCU: 0x17DDD, offset: 0x4DE04, size: 0x8, addend: 0x0, symName: __ZNKSt3__16vectorIiNS_9allocatorIiEEE17__annotate_shrinkB8ue170006Em, symObjAddr: 0x18A9C, symBinAddr: 0x10002EEC8, symSize: 0xB4 }
  - { offsetInCU: 0x17E11, offset: 0x4DE38, size: 0x8, addend: 0x0, symName: __ZN5Catch13ExpressionLhsIbEC1ERNS_13ResultBuilderEb, symObjAddr: 0x18B50, symBinAddr: 0x10002EF7C, symSize: 0x48 }
  - { offsetInCU: 0x17E58, offset: 0x4DE7F, size: 0x8, addend: 0x0, symName: __ZN5Catch13ExpressionLhsIbEC2ERNS_13ResultBuilderEb, symObjAddr: 0x18B98, symBinAddr: 0x10002EFC4, symSize: 0x38 }
  - { offsetInCU: 0x17E9F, offset: 0x4DEC6, size: 0x8, addend: 0x0, symName: __ZN5Catch13ExpressionLhsIbE17captureExpressionILNS_8Internal8OperatorE0EbEERNS_13ResultBuilderERKT0_, symObjAddr: 0x18BD0, symBinAddr: 0x10002EFFC, symSize: 0x144 }
  - { offsetInCU: 0x17EE6, offset: 0x4DF0D, size: 0x8, addend: 0x0, symName: __ZN5Catch8Internal9EvaluatorIbbLNS0_8OperatorE0EE8evaluateERKbS5_, symObjAddr: 0x18D44, symBinAddr: 0x10002F170, symSize: 0x54 }
  - { offsetInCU: 0x17F19, offset: 0x4DF40, size: 0x8, addend: 0x0, symName: __ZN5Catch13ExpressionLhsIRKmEC1ERNS_13ResultBuilderES2_, symObjAddr: 0x18DAC, symBinAddr: 0x10002F1D8, symSize: 0x3C }
  - { offsetInCU: 0x17F60, offset: 0x4DF87, size: 0x8, addend: 0x0, symName: __ZN5Catch13ExpressionLhsIRKmEC2ERNS_13ResultBuilderES2_, symObjAddr: 0x18DE8, symBinAddr: 0x10002F214, symSize: 0x2C }
  - { offsetInCU: 0x17FA7, offset: 0x4DFCE, size: 0x8, addend: 0x0, symName: __ZN5Catch13ExpressionLhsIRKmE17captureExpressionILNS_8Internal8OperatorE0EiEERNS_13ResultBuilderERKT0_, symObjAddr: 0x18E14, symBinAddr: 0x10002F240, symSize: 0x148 }
  - { offsetInCU: 0x17FF3, offset: 0x4E01A, size: 0x8, addend: 0x0, symName: __ZN5Catch8Internal9EvaluatorImjLNS0_8OperatorE0EE8evaluateERKmRKj, symObjAddr: 0x18FC8, symBinAddr: 0x10002F3F4, symSize: 0x4C }
  - { offsetInCU: 0x18026, offset: 0x4E04D, size: 0x8, addend: 0x0, symName: __ZN5Catch13ExpressionLhsIRKNSt3__115__bit_referenceINS1_6vectorIbNS1_9allocatorIbEEEELb1EEEEC1ERNS_13ResultBuilderES9_, symObjAddr: 0x1903C, symBinAddr: 0x10002F468, symSize: 0x3C }
  - { offsetInCU: 0x1806D, offset: 0x4E094, size: 0x8, addend: 0x0, symName: __ZN5Catch13ExpressionLhsIRKNSt3__115__bit_referenceINS1_6vectorIbNS1_9allocatorIbEEEELb1EEEEC2ERNS_13ResultBuilderES9_, symObjAddr: 0x19078, symBinAddr: 0x10002F4A4, symSize: 0x2C }
  - { offsetInCU: 0x180B4, offset: 0x4E0DB, size: 0x8, addend: 0x0, symName: __ZNSt3__16vectorIbNS_9allocatorIbEEE10__make_refB8ue170006Em, symObjAddr: 0x190A4, symBinAddr: 0x10002F4D0, symSize: 0x60 }
  - { offsetInCU: 0x180E8, offset: 0x4E10F, size: 0x8, addend: 0x0, symName: __ZN5Catch13ExpressionLhsIRKNSt3__115__bit_referenceINS1_6vectorIbNS1_9allocatorIbEEEELb1EEEE17captureExpressionILNS_8Internal8OperatorE0EbEERNS_13ResultBuilderERKT0_, symObjAddr: 0x19104, symBinAddr: 0x10002F530, symSize: 0x140 }
  - { offsetInCU: 0x1812F, offset: 0x4E156, size: 0x8, addend: 0x0, symName: __ZN5Catch8Internal9EvaluatorINSt3__115__bit_referenceINS2_6vectorIbNS2_9allocatorIbEEEELb1EEEbLNS0_8OperatorE0EE8evaluateERKS8_RKb, symObjAddr: 0x192A0, symBinAddr: 0x10002F6CC, symSize: 0x54 }
  - { offsetInCU: 0x18162, offset: 0x4E189, size: 0x8, addend: 0x0, symName: __ZN5Catch6Detail15StringMakerBaseILb1EE7convertINSt3__115__bit_referenceINS4_6vectorIbNS4_9allocatorIbEEEELb1EEEEENS4_12basic_stringIcNS4_11char_traitsIcEENS7_IcEEEERKT_, symObjAddr: 0x19308, symBinAddr: 0x10002F734, symSize: 0xA0 }
  - { offsetInCU: 0x1819E, offset: 0x4E1C5, size: 0x8, addend: 0x0, symName: __ZNSt3__119basic_ostringstreamIcNS_11char_traitsIcEENS_9allocatorIcEEEC1B8ue170006Ev, symObjAddr: 0x193A8, symBinAddr: 0x10002F7D4, symSize: 0xEC }
  - { offsetInCU: 0x181C7, offset: 0x4E1EE, size: 0x8, addend: 0x0, symName: __ZNKSt3__119basic_ostringstreamIcNS_11char_traitsIcEENS_9allocatorIcEEE3strB8ue170006Ev, symObjAddr: 0x19494, symBinAddr: 0x10002F8C0, symSize: 0x30 }
  - { offsetInCU: 0x181EC, offset: 0x4E213, size: 0x8, addend: 0x0, symName: __ZNSt3__113basic_ostreamIcNS_11char_traitsIcEEEC2B8ue170006EPNS_15basic_streambufIcS2_EE, symObjAddr: 0x19508, symBinAddr: 0x10002F8F0, symSize: 0x60 }
  - { offsetInCU: 0x1822F, offset: 0x4E256, size: 0x8, addend: 0x0, symName: __ZNSt3__115basic_stringbufIcNS_11char_traitsIcEENS_9allocatorIcEEEC1B8ue170006Ej, symObjAddr: 0x19568, symBinAddr: 0x10002F950, symSize: 0x34 }
  - { offsetInCU: 0x18267, offset: 0x4E28E, size: 0x8, addend: 0x0, symName: __ZNSt3__115basic_stringbufIcNS_11char_traitsIcEENS_9allocatorIcEEEC2B8ue170006Ej, symObjAddr: 0x1960C, symBinAddr: 0x10002F984, symSize: 0x60 }
  - { offsetInCU: 0x1829F, offset: 0x4E2C6, size: 0x8, addend: 0x0, symName: __ZNSt3__16vectorIiNS_9allocatorIiEEED2B8ue170006Ev, symObjAddr: 0x1966C, symBinAddr: 0x10002F9E4, symSize: 0x44 }
  - { offsetInCU: 0x182C8, offset: 0x4E2EF, size: 0x8, addend: 0x0, symName: __ZNSt3__16vectorIiNS_9allocatorIiEEE16__destroy_vectorC1B8ue170006ERS3_, symObjAddr: 0x196B0, symBinAddr: 0x10002FA28, symSize: 0x34 }
  - { offsetInCU: 0x18300, offset: 0x4E327, size: 0x8, addend: 0x0, symName: __ZNSt3__16vectorIiNS_9allocatorIiEEE16__destroy_vectorclB8ue170006Ev, symObjAddr: 0x196E4, symBinAddr: 0x10002FA5C, symSize: 0x90 }
  - { offsetInCU: 0x18325, offset: 0x4E34C, size: 0x8, addend: 0x0, symName: __ZNSt3__16vectorIiNS_9allocatorIiEEE16__destroy_vectorC2B8ue170006ERS3_, symObjAddr: 0x19774, symBinAddr: 0x10002FAEC, symSize: 0x20 }
  - { offsetInCU: 0x1835D, offset: 0x4E384, size: 0x8, addend: 0x0, symName: __ZNSt3__16vectorIiNS_9allocatorIiEEE7__clearB8ue170006Ev, symObjAddr: 0x19794, symBinAddr: 0x10002FB0C, symSize: 0x28 }
  - { offsetInCU: 0x18382, offset: 0x4E3A9, size: 0x8, addend: 0x0, symName: __ZNSt3__16vectorIbNS_9allocatorIbEEED2B8ue170006Ev, symObjAddr: 0x197BC, symBinAddr: 0x10002FB34, symSize: 0x44 }
  - { offsetInCU: 0x183AB, offset: 0x4E3D2, size: 0x8, addend: 0x0, symName: __ZNSt3__16vectorIbNS_9allocatorIbEEE16__destroy_vectorC1B8ue170006ERS3_, symObjAddr: 0x19800, symBinAddr: 0x10002FB78, symSize: 0x34 }
  - { offsetInCU: 0x183E3, offset: 0x4E40A, size: 0x8, addend: 0x0, symName: __ZNSt3__16vectorIbNS_9allocatorIbEEE16__destroy_vectorclB8ue170006Ev, symObjAddr: 0x19834, symBinAddr: 0x10002FBAC, symSize: 0x7C }
  - { offsetInCU: 0x18408, offset: 0x4E42F, size: 0x8, addend: 0x0, symName: __ZNSt3__16vectorIbNS_9allocatorIbEEE16__destroy_vectorC2B8ue170006ERS3_, symObjAddr: 0x198B0, symBinAddr: 0x10002FC28, symSize: 0x20 }
  - { offsetInCU: 0x18440, offset: 0x4E467, size: 0x8, addend: 0x0, symName: __ZNSt3__116allocator_traitsINS_9allocatorImEEE10deallocateB8ue170006ERS2_Pmm, symObjAddr: 0x198D0, symBinAddr: 0x10002FC48, symSize: 0x34 }
  - { offsetInCU: 0x18482, offset: 0x4E4A9, size: 0x8, addend: 0x0, symName: __ZNSt3__19allocatorImE10deallocateB8ue170006EPmm, symObjAddr: 0x19904, symBinAddr: 0x10002FC7C, symSize: 0x40 }
  - { offsetInCU: 0x184C8, offset: 0x4E4EF, size: 0x8, addend: 0x0, symName: __ZN17EdgeWeightedGraphC1ERKS_, symObjAddr: 0x19944, symBinAddr: 0x10002FCBC, symSize: 0x34 }
  - { offsetInCU: 0x184FC, offset: 0x4E523, size: 0x8, addend: 0x0, symName: __ZNSt3__16vectorI4EdgeNS_9allocatorIS1_EEE9push_backB8ue170006EOS1_, symObjAddr: 0x199A4, symBinAddr: 0x10002FCF0, symSize: 0x6C }
  - { offsetInCU: 0x1854F, offset: 0x4E576, size: 0x8, addend: 0x0, symName: __ZN5Catch13ResultBuilderleINSt3__111__wrap_iterIP4EdgeEEEENS_13ExpressionLhsIRKT_EESA_, symObjAddr: 0x19B00, symBinAddr: 0x10002FD5C, symSize: 0x38 }
  - { offsetInCU: 0x1858C, offset: 0x4E5B3, size: 0x8, addend: 0x0, symName: __ZN5Catch13ExpressionLhsIRKNSt3__111__wrap_iterIP4EdgeEEEneIS5_EERNS_13ResultBuilderERKT_, symObjAddr: 0x19BB0, symBinAddr: 0x10002FE0C, symSize: 0x2C }
  - { offsetInCU: 0x186D0, offset: 0x4E6F7, size: 0x8, addend: 0x0, symName: __ZN7PrimMSTD1Ev, symObjAddr: 0x19BFC, symBinAddr: 0x10002FE38, symSize: 0x2C }
  - { offsetInCU: 0x186FB, offset: 0x4E722, size: 0x8, addend: 0x0, symName: __ZN17EdgeWeightedGraphC2ERKS_, symObjAddr: 0x19C28, symBinAddr: 0x10002FE64, symSize: 0x48 }
  - { offsetInCU: 0x1877A, offset: 0x4E7A1, size: 0x8, addend: 0x0, symName: __ZNSt3__16vectorI4EdgeNS_9allocatorIS1_EEE22__construct_one_at_endB8ue170006IJS1_EEEvDpOT_, symObjAddr: 0x1BC14, symBinAddr: 0x10002FEAC, symSize: 0x90 }
  - { offsetInCU: 0x187C8, offset: 0x4E7EF, size: 0x8, addend: 0x0, symName: __ZNSt3__16vectorI4EdgeNS_9allocatorIS1_EEE21__push_back_slow_pathIS1_EEvOT_, symObjAddr: 0x1BCA4, symBinAddr: 0x10002FF3C, symSize: 0xD8 }
  - { offsetInCU: 0x18824, offset: 0x4E84B, size: 0x8, addend: 0x0, symName: __ZNSt3__116allocator_traitsINS_9allocatorI4EdgeEEE9constructB8ue170006IS2_JS2_EvEEvRS3_PT_DpOT0_, symObjAddr: 0x1BD7C, symBinAddr: 0x100030014, symSize: 0x34 }
  - { offsetInCU: 0x1887B, offset: 0x4E8A2, size: 0x8, addend: 0x0, symName: __ZNSt3__19allocatorI4EdgeE9constructB8ue170006IS1_JS1_EEEvPT_DpOT0_, symObjAddr: 0x1BDB0, symBinAddr: 0x100030048, symSize: 0x28 }
  - { offsetInCU: 0x188D0, offset: 0x4E8F7, size: 0x8, addend: 0x0, symName: __ZN5Catch13ExpressionLhsIRKNSt3__111__wrap_iterIP4EdgeEEEC1ERNS_13ResultBuilderES7_, symObjAddr: 0x1CCC0, symBinAddr: 0x100030070, symSize: 0x3C }
  - { offsetInCU: 0x18917, offset: 0x4E93E, size: 0x8, addend: 0x0, symName: __ZN5Catch13ExpressionLhsIRKNSt3__111__wrap_iterIP4EdgeEEEC2ERNS_13ResultBuilderES7_, symObjAddr: 0x1CCFC, symBinAddr: 0x1000300AC, symSize: 0x2C }
  - { offsetInCU: 0x1895E, offset: 0x4E985, size: 0x8, addend: 0x0, symName: __ZNSt3__118__unwrap_iter_implINS_11__wrap_iterIP4EdgeEELb1EE8__rewrapB8ue170006ES4_S3_, symObjAddr: 0x1CE1C, symBinAddr: 0x1000301CC, symSize: 0x5C }
  - { offsetInCU: 0x1898F, offset: 0x4E9B6, size: 0x8, addend: 0x0, symName: __ZNKSt3__111__wrap_iterIP4EdgeEplB8ue170006El, symObjAddr: 0x1CE78, symBinAddr: 0x100030228, symSize: 0x3C }
  - { offsetInCU: 0x189D0, offset: 0x4E9F7, size: 0x8, addend: 0x0, symName: __ZNSt3__111__wrap_iterIP4EdgeEpLB8ue170006El, symObjAddr: 0x1CED8, symBinAddr: 0x100030288, symSize: 0x28 }
  - { offsetInCU: 0x18A08, offset: 0x4EA2F, size: 0x8, addend: 0x0, symName: __ZNSt3__119__to_address_helperINS_11__wrap_iterIP4EdgeEEvE6__callB8ue170006ERKS4_, symObjAddr: 0x1CF00, symBinAddr: 0x1000302B0, symSize: 0x30 }
  - { offsetInCU: 0x18A2B, offset: 0x4EA52, size: 0x8, addend: 0x0, symName: __ZNSt3__114pointer_traitsINS_11__wrap_iterIP4EdgeEEE10to_addressB8ue170006ES4_, symObjAddr: 0x1CF30, symBinAddr: 0x1000302E0, symSize: 0x2C }
  - { offsetInCU: 0x18A4D, offset: 0x4EA74, size: 0x8, addend: 0x0, symName: __ZeqRK4EdgeS1_, symObjAddr: 0x1CF5C, symBinAddr: 0x10003030C, symSize: 0x48 }
  - { offsetInCU: 0x18A92, offset: 0x4EAB9, size: 0x8, addend: 0x0, symName: __ZNKSt3__110__identityclB8ue170006IR4EdgeEEOT_S5_, symObjAddr: 0x1CFD0, symBinAddr: 0x100030380, symSize: 0x18 }
  - { offsetInCU: 0x18ACE, offset: 0x4EAF5, size: 0x8, addend: 0x0, symName: __ZNSt3__118__unwrap_iter_implINS_11__wrap_iterIP4EdgeEELb1EE8__unwrapB8ue170006ES4_, symObjAddr: 0x1CFE8, symBinAddr: 0x100030398, symSize: 0x28 }
  - { offsetInCU: 0x18AF1, offset: 0x4EB18, size: 0x8, addend: 0x0, symName: __ZN5Catch13ExpressionLhsIRKNSt3__111__wrap_iterIP4EdgeEEE17captureExpressionILNS_8Internal8OperatorE1ES5_EERNS_13ResultBuilderERKT0_, symObjAddr: 0x1D010, symBinAddr: 0x1000303C0, symSize: 0x140 }
  - { offsetInCU: 0x18B38, offset: 0x4EB5F, size: 0x8, addend: 0x0, symName: __ZN5Catch8Internal14OperatorTraitsILNS0_8OperatorE1EE7getNameEv, symObjAddr: 0x1D1AC, symBinAddr: 0x10003055C, symSize: 0xC }
  - { offsetInCU: 0x18B4C, offset: 0x4EB73, size: 0x8, addend: 0x0, symName: __ZN5Catch8Internal9EvaluatorINSt3__111__wrap_iterIP4EdgeEES6_LNS0_8OperatorE1EE8evaluateERKS6_SA_, symObjAddr: 0x1D1B8, symBinAddr: 0x100030568, symSize: 0x44 }
  - { offsetInCU: 0x18B7F, offset: 0x4EBA6, size: 0x8, addend: 0x0, symName: __ZN5Catch6Detail15StringMakerBaseILb0EE7convertINSt3__111__wrap_iterIP4EdgeEEEENS4_12basic_stringIcNS4_11char_traitsIcEENS4_9allocatorIcEEEERKT_, symObjAddr: 0x1D210, symBinAddr: 0x1000305C0, symSize: 0x2C }
  - { offsetInCU: 0x18BAC, offset: 0x4EBD3, size: 0x8, addend: 0x0, symName: __ZN5Catch6Detail15EnumStringMakerINSt3__111__wrap_iterIP4EdgeEELb0EE7convertERKS6_, symObjAddr: 0x1D23C, symBinAddr: 0x1000305EC, symSize: 0x3C }
  - { offsetInCU: 0x18BCC, offset: 0x4EBF3, size: 0x8, addend: 0x0, symName: __ZN7PrimMSTD2Ev, symObjAddr: 0x1D278, symBinAddr: 0x100030628, symSize: 0x44 }
  - { offsetInCU: 0x18BF7, offset: 0x4EC1E, size: 0x8, addend: 0x0, symName: __ZNSt3__114priority_queueI4EdgeNS_6vectorIS1_NS_9allocatorIS1_EEEENS_7greaterIS1_EEED1Ev, symObjAddr: 0x1D2BC, symBinAddr: 0x10003066C, symSize: 0x2C }
  - { offsetInCU: 0x18C23, offset: 0x4EC4A, size: 0x8, addend: 0x0, symName: __ZNSt3__114priority_queueI4EdgeNS_6vectorIS1_NS_9allocatorIS1_EEEENS_7greaterIS1_EEED2Ev, symObjAddr: 0x1D2E8, symBinAddr: 0x100030698, symSize: 0x2C }
  - { offsetInCU: 0x18CD9, offset: 0x4ED00, size: 0x8, addend: 0x0, symName: __ZN10KruskalMSTD1Ev, symObjAddr: 0x1D314, symBinAddr: 0x1000306C4, symSize: 0x2C }
  - { offsetInCU: 0x18D04, offset: 0x4ED2B, size: 0x8, addend: 0x0, symName: __ZN10KruskalMSTD2Ev, symObjAddr: 0x1D340, symBinAddr: 0x1000306F0, symSize: 0x38 }
  - { offsetInCU: 0x18EBD, offset: 0x4EEE4, size: 0x8, addend: 0x0, symName: __ZN5Catch13ResultBuilderleI12DirectedEdgeEENS_13ExpressionLhsIRKT_EES6_, symObjAddr: 0x1D400, symBinAddr: 0x100030728, symSize: 0x38 }
  - { offsetInCU: 0x18EFA, offset: 0x4EF21, size: 0x8, addend: 0x0, symName: __ZNSt3__16vectorI12DirectedEdgeNS_9allocatorIS1_EEEixB8ue170006Em, symObjAddr: 0x1D438, symBinAddr: 0x100030760, symSize: 0x24 }
  - { offsetInCU: 0x18F30, offset: 0x4EF57, size: 0x8, addend: 0x0, symName: __ZN5Catch13ExpressionLhsIRK12DirectedEdgeEeqIS1_EERNS_13ResultBuilderERKT_, symObjAddr: 0x1D45C, symBinAddr: 0x100030784, symSize: 0x2C }
  - { offsetInCU: 0x190A7, offset: 0x4F0CE, size: 0x8, addend: 0x0, symName: __ZN10DijkstraSPD1Ev, symObjAddr: 0x1D4F8, symBinAddr: 0x1000307B0, symSize: 0x2C }
  - { offsetInCU: 0x1910E, offset: 0x4F135, size: 0x8, addend: 0x0, symName: __ZN5Catch13ExpressionLhsIRK12DirectedEdgeEC1ERNS_13ResultBuilderES3_, symObjAddr: 0x1FDA4, symBinAddr: 0x1000307DC, symSize: 0x3C }
  - { offsetInCU: 0x19155, offset: 0x4F17C, size: 0x8, addend: 0x0, symName: __ZN5Catch13ExpressionLhsIRK12DirectedEdgeEC2ERNS_13ResultBuilderES3_, symObjAddr: 0x1FDE0, symBinAddr: 0x100030818, symSize: 0x2C }
  - { offsetInCU: 0x1919C, offset: 0x4F1C3, size: 0x8, addend: 0x0, symName: __ZN5Catch13ExpressionLhsIRK12DirectedEdgeE17captureExpressionILNS_8Internal8OperatorE0ES1_EERNS_13ResultBuilderERKT0_, symObjAddr: 0x1FE0C, symBinAddr: 0x100030844, symSize: 0x138 }
  - { offsetInCU: 0x191E3, offset: 0x4F20A, size: 0x8, addend: 0x0, symName: __ZN5Catch8Internal9EvaluatorI12DirectedEdgeS2_LNS0_8OperatorE0EE8evaluateERKS2_S6_, symObjAddr: 0x1FFA0, symBinAddr: 0x1000309D8, symSize: 0x44 }
  - { offsetInCU: 0x19215, offset: 0x4F23C, size: 0x8, addend: 0x0, symName: __ZeqRK12DirectedEdgeS1_, symObjAddr: 0x1FFE4, symBinAddr: 0x100030A1C, symSize: 0x48 }
  - { offsetInCU: 0x19250, offset: 0x4F277, size: 0x8, addend: 0x0, symName: __ZN5Catch6Detail15StringMakerBaseILb0EE7convertI12DirectedEdgeEENSt3__112basic_stringIcNS5_11char_traitsIcEENS5_9allocatorIcEEEERKT_, symObjAddr: 0x20058, symBinAddr: 0x100030A78, symSize: 0x2C }
  - { offsetInCU: 0x1927D, offset: 0x4F2A4, size: 0x8, addend: 0x0, symName: __ZN5Catch6Detail15EnumStringMakerI12DirectedEdgeLb0EE7convertERKS2_, symObjAddr: 0x20084, symBinAddr: 0x100030AA4, symSize: 0x3C }
  - { offsetInCU: 0x1929D, offset: 0x4F2C4, size: 0x8, addend: 0x0, symName: __ZN10DijkstraSPD2Ev, symObjAddr: 0x20138, symBinAddr: 0x100030AE0, symSize: 0x44 }
  - { offsetInCU: 0x18A3, offset: 0x50D53, size: 0x8, addend: 0x0, symName: '__ZNSt3__111__introsortINS_17_ClassicAlgPolicyERZN10KruskalMSTC1E17EdgeWeightedGraphE3$_0P4EdgeLb0EEEvT1_S8_T0_NS_15iterator_traitsIS8_E15difference_typeEb', symObjAddr: 0x197C, symBinAddr: 0x1000315F0, symSize: 0x434 }
  - { offsetInCU: 0x19CF, offset: 0x50E7F, size: 0x8, addend: 0x0, symName: '__ZNSt3__126__insertion_sort_unguardedB8ue170006INS_17_ClassicAlgPolicyERZN10KruskalMSTC1E17EdgeWeightedGraphE3$_0P4EdgeEEvT1_S8_T0_', symObjAddr: 0x2080, symBinAddr: 0x100031CF4, symSize: 0x120 }
  - { offsetInCU: 0x1AC0, offset: 0x50F70, size: 0x8, addend: 0x0, symName: '__ZNSt3__111__sift_downB8ue170006INS_17_ClassicAlgPolicyERZN10KruskalMSTC1E17EdgeWeightedGraphE3$_0P4EdgeEEvT1_OT0_NS_15iterator_traitsIS8_E15difference_typeES8_', symObjAddr: 0x323C, symBinAddr: 0x100032EB0, symSize: 0x20C }
  - { offsetInCU: 0x1B6E, offset: 0x5101E, size: 0x8, addend: 0x0, symName: '__ZNSt3__117__floyd_sift_downB8ue170006INS_17_ClassicAlgPolicyERZN10KruskalMSTC1E17EdgeWeightedGraphE3$_0P4EdgeEET1_S8_OT0_NS_15iterator_traitsIS8_E15difference_typeE', symObjAddr: 0x35E4, symBinAddr: 0x100033258, symSize: 0x100 }
  - { offsetInCU: 0x1C07, offset: 0x510B7, size: 0x8, addend: 0x0, symName: '__ZNSt3__131__partition_with_equals_on_leftB8ue170006INS_17_ClassicAlgPolicyEP4EdgeRZN10KruskalMSTC1E17EdgeWeightedGraphE3$_0EET0_S8_S8_T1_', symObjAddr: 0x23AC, symBinAddr: 0x100032020, symSize: 0x20C }
  - { offsetInCU: 0x1CC3, offset: 0x51173, size: 0x8, addend: 0x0, symName: '__ZNSt3__118__bitset_partitionB8ue170006INS_17_ClassicAlgPolicyEP4EdgeRZN10KruskalMSTC1E17EdgeWeightedGraphE3$_0EENS_4pairIT0_bEES9_S9_T1_', symObjAddr: 0x25B8, symBinAddr: 0x10003222C, symSize: 0x324 }
  - { offsetInCU: 0x1DBE, offset: 0x5126E, size: 0x8, addend: 0x0, symName: __ZNSt3__124__swap_bitmap_pos_withinB8ue170006INS_17_ClassicAlgPolicyEP4EdgeEEvRT0_S5_RyS6_, symObjAddr: 0x3D30, symBinAddr: 0x1000339A4, symSize: 0x1E0 }
  - { offsetInCU: 0x1E8B, offset: 0x5133B, size: 0x8, addend: 0x0, symName: '__ZNSt3__132__partition_with_equals_on_rightB8ue170006INS_17_ClassicAlgPolicyEP4EdgeRZN10KruskalMSTC1E17EdgeWeightedGraphE3$_0EENS_4pairIT0_bEES9_S9_T1_', symObjAddr: 0x28DC, symBinAddr: 0x100032550, symSize: 0x21C }
  - { offsetInCU: 0x1F56, offset: 0x51406, size: 0x8, addend: 0x0, symName: '__ZNSt3__127__insertion_sort_incompleteB8ue170006INS_17_ClassicAlgPolicyERZN10KruskalMSTC1E17EdgeWeightedGraphE3$_0P4EdgeEEbT1_S8_T0_', symObjAddr: 0x2AF8, symBinAddr: 0x10003276C, symSize: 0x304 }
  - { offsetInCU: 0x5446, offset: 0x548F6, size: 0x8, addend: 0x0, symName: '__ZNSt3__14sortB8ue170006INS_11__wrap_iterIP4EdgeEEZN10KruskalMSTC1E17EdgeWeightedGraphE3$_0EEvT_S8_T0_', symObjAddr: 0x37C, symBinAddr: 0x100031290, symSize: 0x40 }
  - { offsetInCU: 0x54A1, offset: 0x54951, size: 0x8, addend: 0x0, symName: '__ZNSt3__111__sort_implB8ue170006INS_17_ClassicAlgPolicyENS_11__wrap_iterIP4EdgeEEZN10KruskalMSTC1E17EdgeWeightedGraphE3$_0EEvT0_S9_RT1_', symObjAddr: 0x17C4, symBinAddr: 0x100031464, symSize: 0xA8 }
  - { offsetInCU: 0x5505, offset: 0x549B5, size: 0x8, addend: 0x0, symName: __ZNSt3__123__debug_randomize_rangeB8ue170006INS_17_ClassicAlgPolicyENS_11__wrap_iterIP4EdgeEES5_EEvT0_T1_, symObjAddr: 0x186C, symBinAddr: 0x10003150C, symSize: 0x14 }
  - { offsetInCU: 0x5557, offset: 0x54A07, size: 0x8, addend: 0x0, symName: '__ZNSt3__115__sort_dispatchB8ue170006INS_17_ClassicAlgPolicyEP4EdgeZN10KruskalMSTC1E17EdgeWeightedGraphE3$_0EEvT0_S7_RT1_', symObjAddr: 0x1880, symBinAddr: 0x100031520, symSize: 0x64 }
  - { offsetInCU: 0x55D6, offset: 0x54A86, size: 0x8, addend: 0x0, symName: '__ZNSt3__135__check_strict_weak_ordering_sortedB8ue170006IP4EdgeZN10KruskalMSTC1E17EdgeWeightedGraphE3$_0EEvT_S6_RT0_', symObjAddr: 0x1910, symBinAddr: 0x100031584, symSize: 0x18 }
  - { offsetInCU: 0x562D, offset: 0x54ADD, size: 0x8, addend: 0x0, symName: __ZNSt3__17__log2iB8ue170006IlEET_S1_, symObjAddr: 0x1928, symBinAddr: 0x10003159C, symSize: 0x54 }
  - { offsetInCU: 0x5664, offset: 0x54B14, size: 0x8, addend: 0x0, symName: __ZNSt3__112__libcpp_clzB8ue170006Em, symObjAddr: 0x1DC8, symBinAddr: 0x100031A3C, symSize: 0x1C }
  - { offsetInCU: 0x57D7, offset: 0x54C87, size: 0x8, addend: 0x0, symName: '__ZNSt3__124__sort3_maybe_branchlessB8ue170006INS_17_ClassicAlgPolicyERZN10KruskalMSTC1E17EdgeWeightedGraphE3$_0P4EdgeEENS_9enable_ifIXntsr21__use_branchless_sortIT0_T1_EE5valueEvE4typeESA_SA_SA_S9_', symObjAddr: 0x1E64, symBinAddr: 0x100031AD8, symSize: 0x3C }
  - { offsetInCU: 0x5849, offset: 0x54CF9, size: 0x8, addend: 0x0, symName: '__ZNSt3__124__sort4_maybe_branchlessB8ue170006INS_17_ClassicAlgPolicyERZN10KruskalMSTC1E17EdgeWeightedGraphE3$_0P4EdgeEENS_9enable_ifIXntsr21__use_branchless_sortIT0_T1_EE5valueEvE4typeESA_SA_SA_SA_S9_', symObjAddr: 0x1EA0, symBinAddr: 0x100031B14, symSize: 0x44 }
  - { offsetInCU: 0x58C9, offset: 0x54D79, size: 0x8, addend: 0x0, symName: '__ZNSt3__124__sort5_maybe_branchlessB8ue170006INS_17_ClassicAlgPolicyERZN10KruskalMSTC1E17EdgeWeightedGraphE3$_0P4EdgeEENS_9enable_ifIXntsr21__use_branchless_sortIT0_T1_EE5valueEvE4typeESA_SA_SA_SA_SA_S9_', symObjAddr: 0x1EE4, symBinAddr: 0x100031B58, symSize: 0x4C }
  - { offsetInCU: 0x5957, offset: 0x54E07, size: 0x8, addend: 0x0, symName: '__ZNSt3__116__insertion_sortB8ue170006INS_17_ClassicAlgPolicyERZN10KruskalMSTC1E17EdgeWeightedGraphE3$_0P4EdgeEEvT1_S8_T0_', symObjAddr: 0x1F30, symBinAddr: 0x100031BA4, symSize: 0x150 }
  - { offsetInCU: 0x5A1B, offset: 0x54ECB, size: 0x8, addend: 0x0, symName: '__ZNSt3__114__partial_sortB8ue170006INS_17_ClassicAlgPolicyERZN10KruskalMSTC1E17EdgeWeightedGraphE3$_0P4EdgeS7_EET1_S8_S8_T2_RT0_', symObjAddr: 0x21A0, symBinAddr: 0x100031E14, symSize: 0x94 }
  - { offsetInCU: 0x5AA4, offset: 0x54F54, size: 0x8, addend: 0x0, symName: '__ZNSt3__17__sort3B8ue170006INS_17_ClassicAlgPolicyERZN10KruskalMSTC1E17EdgeWeightedGraphE3$_0P4EdgeEEjT1_S8_S8_T0_', symObjAddr: 0x2234, symBinAddr: 0x100031EA8, symSize: 0x144 }
  - { offsetInCU: 0x5B24, offset: 0x54FD4, size: 0x8, addend: 0x0, symName: __ZNSt3__19iter_swapB8ue170006IP4EdgeS2_EEvT_T0_, symObjAddr: 0x2E14, symBinAddr: 0x100032A88, symSize: 0x2C }
  - { offsetInCU: 0x5B6C, offset: 0x5501C, size: 0x8, addend: 0x0, symName: __ZNSt3__14swapB8ue170006I4EdgeEENS_9enable_ifIXaasr21is_move_constructibleIT_EE5valuesr18is_move_assignableIS3_EE5valueEvE4typeERS3_S6_, symObjAddr: 0x2E40, symBinAddr: 0x100032AB4, symSize: 0x3C }
  - { offsetInCU: 0x5BBD, offset: 0x5506D, size: 0x8, addend: 0x0, symName: '__ZNSt3__17__sort4B8ue170006INS_17_ClassicAlgPolicyERZN10KruskalMSTC1E17EdgeWeightedGraphE3$_0P4EdgeEEvT1_S8_S8_S8_T0_', symObjAddr: 0x2E7C, symBinAddr: 0x100032AF0, symSize: 0xB8 }
  - { offsetInCU: 0x5C39, offset: 0x550E9, size: 0x8, addend: 0x0, symName: '__ZNSt3__17__sort5B8ue170006INS_17_ClassicAlgPolicyERZN10KruskalMSTC1E17EdgeWeightedGraphE3$_0P4EdgeEEvT1_S8_S8_S8_S8_T0_', symObjAddr: 0x2F34, symBinAddr: 0x100032BA8, symSize: 0xE8 }
  - { offsetInCU: 0x5CC3, offset: 0x55173, size: 0x8, addend: 0x0, symName: __ZNSt3__123__debug_randomize_rangeB8ue170006INS_17_ClassicAlgPolicyEP4EdgeS3_EEvT0_T1_, symObjAddr: 0x3060, symBinAddr: 0x100032CD4, symSize: 0x14 }
  - { offsetInCU: 0x5D15, offset: 0x551C5, size: 0x8, addend: 0x0, symName: '__ZNSt3__119__partial_sort_implB8ue170006INS_17_ClassicAlgPolicyERZN10KruskalMSTC1E17EdgeWeightedGraphE3$_0P4EdgeS7_EET1_S8_S8_T2_OT0_', symObjAddr: 0x3074, symBinAddr: 0x100032CE8, symSize: 0x110 }
  - { offsetInCU: 0x5DAC, offset: 0x5525C, size: 0x8, addend: 0x0, symName: '__ZNSt3__111__make_heapB8ue170006INS_17_ClassicAlgPolicyERZN10KruskalMSTC1E17EdgeWeightedGraphE3$_0P4EdgeEEvT1_S8_OT0_', symObjAddr: 0x3184, symBinAddr: 0x100032DF8, symSize: 0xB8 }
  - { offsetInCU: 0x5E4F, offset: 0x552FF, size: 0x8, addend: 0x0, symName: '__ZNSt3__111__sort_heapB8ue170006INS_17_ClassicAlgPolicyERZN10KruskalMSTC1E17EdgeWeightedGraphE3$_0P4EdgeEEvT1_S8_OT0_', symObjAddr: 0x3448, symBinAddr: 0x1000330BC, symSize: 0xA8 }
  - { offsetInCU: 0x5EF2, offset: 0x553A2, size: 0x8, addend: 0x0, symName: '__ZNSt3__110__pop_heapB8ue170006INS_17_ClassicAlgPolicyEZN10KruskalMSTC1E17EdgeWeightedGraphE3$_0P4EdgeEEvT1_S7_RT0_NS_15iterator_traitsIS7_E15difference_typeE', symObjAddr: 0x34F0, symBinAddr: 0x100033164, symSize: 0xF4 }
  - { offsetInCU: 0x5FA3, offset: 0x55453, size: 0x8, addend: 0x0, symName: '__ZNSt3__19__sift_upB8ue170006INS_17_ClassicAlgPolicyERZN10KruskalMSTC1E17EdgeWeightedGraphE3$_0P4EdgeEEvT1_S8_OT0_NS_15iterator_traitsIS8_E15difference_typeE', symObjAddr: 0x36E4, symBinAddr: 0x100033358, symSize: 0x11C }
  - { offsetInCU: 0x6054, offset: 0x55504, size: 0x8, addend: 0x0, symName: '__ZNSt3__122__populate_left_bitsetB8ue170006IRZN10KruskalMSTC1E17EdgeWeightedGraphE3$_0P4EdgeS5_EEvT0_T_RT1_Ry', symObjAddr: 0x3800, symBinAddr: 0x100033474, symSize: 0xA8 }
  - { offsetInCU: 0x6110, offset: 0x555C0, size: 0x8, addend: 0x0, symName: '__ZNSt3__123__populate_right_bitsetB8ue170006IRZN10KruskalMSTC1E17EdgeWeightedGraphE3$_0P4EdgeS5_EEvT0_T_RT1_Ry', symObjAddr: 0x38A8, symBinAddr: 0x10003351C, symSize: 0xA0 }
  - { offsetInCU: 0x61CC, offset: 0x5567C, size: 0x8, addend: 0x0, symName: __ZNSt3__117__swap_bitmap_posB8ue170006INS_17_ClassicAlgPolicyEP4EdgeEEvT0_S4_RyS5_, symObjAddr: 0x3948, symBinAddr: 0x1000335BC, symSize: 0x100 }
  - { offsetInCU: 0x626D, offset: 0x5571D, size: 0x8, addend: 0x0, symName: '__ZNSt3__133__bitset_partition_partial_blocksB8ue170006INS_17_ClassicAlgPolicyERZN10KruskalMSTC1E17EdgeWeightedGraphE3$_0P4EdgeS6_EEvRT1_S9_T0_RT2_RySD_', symObjAddr: 0x3A48, symBinAddr: 0x1000336BC, symSize: 0x2E8 }
  - { offsetInCU: 0x63EF, offset: 0x5589F, size: 0x8, addend: 0x0, symName: __ZNSt3__19make_pairB8ue170006IRP4EdgeRbEENS_4pairINS_18__unwrap_ref_decayIT_E4typeENS6_IT0_E4typeEEEOS7_OSA_, symObjAddr: 0x3F10, symBinAddr: 0x100033B84, symSize: 0x38 }
  - { offsetInCU: 0x643E, offset: 0x558EE, size: 0x8, addend: 0x0, symName: __ZNSt3__112__libcpp_ctzB8ue170006Ey, symObjAddr: 0x3F48, symBinAddr: 0x100033BBC, symSize: 0x20 }
  - { offsetInCU: 0x646A, offset: 0x5591A, size: 0x8, addend: 0x0, symName: __ZNSt3__113__libcpp_blsrB8ue170006Ey, symObjAddr: 0x3F68, symBinAddr: 0x100033BDC, symSize: 0x2C }
  - { offsetInCU: 0x6496, offset: 0x55946, size: 0x8, addend: 0x0, symName: __ZNSt3__112__libcpp_clzB8ue170006Ey, symObjAddr: 0x3FC8, symBinAddr: 0x100033C3C, symSize: 0x1C }
  - { offsetInCU: 0x87C8, offset: 0x57C78, size: 0x8, addend: 0x0, symName: __ZN10KruskalMSTC2E17EdgeWeightedGraph, symObjAddr: 0x0, symBinAddr: 0x100030F6C, symSize: 0x324 }
  - { offsetInCU: 0x88FD, offset: 0x57DAD, size: 0x8, addend: 0x0, symName: __ZNSt3__16vectorIiNS_9allocatorIiEEE6resizeEm, symObjAddr: 0x41C, symBinAddr: 0x1000312D0, symSize: 0x94 }
  - { offsetInCU: 0x8942, offset: 0x57DF2, size: 0x8, addend: 0x0, symName: __ZN10KruskalMSTC1E17EdgeWeightedGraph, symObjAddr: 0x750, symBinAddr: 0x100031364, symSize: 0x34 }
  - { offsetInCU: 0x89A0, offset: 0x57E50, size: 0x8, addend: 0x0, symName: __ZNK10KruskalMST5edgesEv, symObjAddr: 0x784, symBinAddr: 0x100031398, symSize: 0x38 }
  - { offsetInCU: 0x89C6, offset: 0x57E76, size: 0x8, addend: 0x0, symName: __ZNK10KruskalMST6weightEv, symObjAddr: 0x7F0, symBinAddr: 0x1000313D0, symSize: 0x94 }
  - { offsetInCU: 0x8A55, offset: 0x57F05, size: 0x8, addend: 0x0, symName: '__ZZN10KruskalMSTC1E17EdgeWeightedGraphENK3$_0clERK4EdgeS4_', symObjAddr: 0x1DE4, symBinAddr: 0x100031A58, symSize: 0x4C }
  - { offsetInCU: 0x8A9A, offset: 0x57F4A, size: 0x8, addend: 0x0, symName: __ZNSt3__18_IterOpsINS_17_ClassicAlgPolicyEE9iter_swapB8ue170006IRP4EdgeS6_EEvOT_OT0_, symObjAddr: 0x1E30, symBinAddr: 0x100031AA4, symSize: 0x34 }
  - { offsetInCU: 0x8AE2, offset: 0x57F92, size: 0x8, addend: 0x0, symName: __ZNSt3__18_IterOpsINS_17_ClassicAlgPolicyEE9iter_swapB8ue170006IRP4EdgeS5_EEvOT_OT0_, symObjAddr: 0x2378, symBinAddr: 0x100031FEC, symSize: 0x34 }
  - { offsetInCU: 0x8B25, offset: 0x57FD5, size: 0x8, addend: 0x0, symName: __ZNSt3__18_IterOpsINS_17_ClassicAlgPolicyEE11__iter_moveB8ue170006IRP4EdgeEENS_9enable_ifIXsr12is_referenceIDTdeclsr3stdE7declvalIRT_EEEEE5valueEDTclsr3stdE4movedeclsr3stdE7declvalIS9_EEEEE4typeEOS8_, symObjAddr: 0x301C, symBinAddr: 0x100032C90, symSize: 0x28 }
  - { offsetInCU: 0x8B51, offset: 0x58001, size: 0x8, addend: 0x0, symName: __ZNSt3__18_IterOpsINS_17_ClassicAlgPolicyEE25__validate_iter_referenceB8ue170006IRP4EdgeEEvv, symObjAddr: 0x3044, symBinAddr: 0x100032CB8, symSize: 0x4 }
  - { offsetInCU: 0x8B6F, offset: 0x5801F, size: 0x8, addend: 0x0, symName: __ZNSt3__18_IterOpsINS_17_ClassicAlgPolicyEE4nextB8ue170006IP4EdgeEET_S6_S6_, symObjAddr: 0x3048, symBinAddr: 0x100032CBC, symSize: 0x18 }
  - { offsetInCU: 0x8BA5, offset: 0x58055, size: 0x8, addend: 0x0, symName: __ZNSt3__18_IterOpsINS_17_ClassicAlgPolicyEE9iter_swapB8ue170006IP4EdgeS5_EEvOT_OT0_, symObjAddr: 0x3F94, symBinAddr: 0x100033C08, symSize: 0x34 }
  - { offsetInCU: 0x8C06, offset: 0x580B6, size: 0x8, addend: 0x0, symName: __ZNSt3__14pairIP4EdgebEC1B8ue170006IRS2_RbLPv0EEEOT_OT0_, symObjAddr: 0x3FE4, symBinAddr: 0x100033C58, symSize: 0x3C }
  - { offsetInCU: 0x8C63, offset: 0x58113, size: 0x8, addend: 0x0, symName: __ZNSt3__14pairIP4EdgebEC2B8ue170006IRS2_RbLPv0EEEOT_OT0_, symObjAddr: 0x4020, symBinAddr: 0x100033C94, symSize: 0x38 }
  - { offsetInCU: 0x8CBF, offset: 0x5816F, size: 0x8, addend: 0x0, symName: __ZNSt3__16vectorIiNS_9allocatorIiEEE8__appendEm, symObjAddr: 0x4100, symBinAddr: 0x100033CCC, symSize: 0x108 }
  - { offsetInCU: 0x8D19, offset: 0x581C9, size: 0x8, addend: 0x0, symName: __ZNSt3__16vectorIiNS_9allocatorIiEEE18__construct_at_endEm, symObjAddr: 0x427C, symBinAddr: 0x100033DD4, symSize: 0xC8 }
  - { offsetInCU: 0x8D89, offset: 0x58239, size: 0x8, addend: 0x0, symName: __ZNSt3__114__split_bufferIiRNS_9allocatorIiEEE18__construct_at_endEm, symObjAddr: 0x443C, symBinAddr: 0x100033E9C, symSize: 0xB4 }
  - { offsetInCU: 0x8DE6, offset: 0x58296, size: 0x8, addend: 0x0, symName: __ZNSt3__116allocator_traitsINS_9allocatorIiEEE9constructB8ue170006IiJEvEEvRS2_PT_DpOT0_, symObjAddr: 0x46A0, symBinAddr: 0x100033F50, symSize: 0x2C }
  - { offsetInCU: 0x8E28, offset: 0x582D8, size: 0x8, addend: 0x0, symName: __ZNSt3__19allocatorIiE9constructB8ue170006IiJEEEvPT_DpOT0_, symObjAddr: 0x473C, symBinAddr: 0x100033F7C, symSize: 0x1C }
  - { offsetInCU: 0x41E0, offset: 0x5C552, size: 0x8, addend: 0x0, symName: __ZNSt3__117__floyd_sift_downB8ue170006INS_17_ClassicAlgPolicyERNS_7greaterI4EdgeEENS_11__wrap_iterIPS3_EEEET1_S9_OT0_NS_15iterator_traitsIS9_E15difference_typeE, symObjAddr: 0x4C5C, symBinAddr: 0x100034A04, symSize: 0x14C }
  - { offsetInCU: 0x4FA2, offset: 0x5D314, size: 0x8, addend: 0x0, symName: __ZNSt3__18pop_heapB8ue170006INS_11__wrap_iterIP4EdgeEENS_7greaterIS2_EEEEvT_S7_T0_, symObjAddr: 0x4A34, symBinAddr: 0x1000347DC, symSize: 0x58 }
  - { offsetInCU: 0x5006, offset: 0x5D378, size: 0x8, addend: 0x0, symName: __ZNSt3__1miB8ue170006IP4EdgeS2_EEDTmicldtfp_4baseEcldtfp0_4baseEERKNS_11__wrap_iterIT_EERKNS4_IT0_EE, symObjAddr: 0x4AB8, symBinAddr: 0x100034860, symSize: 0x48 }
  - { offsetInCU: 0x5052, offset: 0x5D3C4, size: 0x8, addend: 0x0, symName: __ZNSt3__110__pop_heapB8ue170006INS_17_ClassicAlgPolicyENS_7greaterI4EdgeEENS_11__wrap_iterIPS3_EEEEvT1_S8_RT0_NS_15iterator_traitsIS8_E15difference_typeE, symObjAddr: 0x4B00, symBinAddr: 0x1000348A8, symSize: 0x134 }
  - { offsetInCU: 0x517C, offset: 0x5D4EE, size: 0x8, addend: 0x0, symName: __ZNSt3__19__sift_upB8ue170006INS_17_ClassicAlgPolicyERNS_7greaterI4EdgeEENS_11__wrap_iterIPS3_EEEEvT1_S9_OT0_NS_15iterator_traitsIS9_E15difference_typeE, symObjAddr: 0x4DC8, symBinAddr: 0x100034B70, symSize: 0x160 }
  - { offsetInCU: 0x522C, offset: 0x5D59E, size: 0x8, addend: 0x0, symName: __ZNSt3__19push_heapB8ue170006INS_11__wrap_iterIP4EdgeEENS_7greaterIS2_EEEEvT_S7_T0_, symObjAddr: 0x6534, symBinAddr: 0x100034D80, symSize: 0x40 }
  - { offsetInCU: 0x5282, offset: 0x5D5F4, size: 0x8, addend: 0x0, symName: __ZNSt3__111__push_heapB8ue170006INS_17_ClassicAlgPolicyENS_11__wrap_iterIP4EdgeEENS_7greaterIS3_EEEEvT0_S8_RT1_, symObjAddr: 0x6574, symBinAddr: 0x100034DC0, symSize: 0x5C }
  - { offsetInCU: 0x755D, offset: 0x5F8CF, size: 0x8, addend: 0x0, symName: __ZN7PrimMSTC2E17EdgeWeightedGraphi, symObjAddr: 0x0, symBinAddr: 0x100033F98, symSize: 0x334 }
  - { offsetInCU: 0x75DA, offset: 0x5F94C, size: 0x8, addend: 0x0, symName: __ZNSt3__114priority_queueI4EdgeNS_6vectorIS1_NS_9allocatorIS1_EEEENS_7greaterIS1_EEEC1B8ue170006Ev, symObjAddr: 0x38C, symBinAddr: 0x1000342CC, symSize: 0x2C }
  - { offsetInCU: 0x7602, offset: 0x5F974, size: 0x8, addend: 0x0, symName: __ZNSt3__16vectorIbNS_9allocatorIbEEE6assignEmRKb, symObjAddr: 0x3B8, symBinAddr: 0x1000342F8, symSize: 0x120 }
  - { offsetInCU: 0x7673, offset: 0x5F9E5, size: 0x8, addend: 0x0, symName: __ZN7PrimMST5visitE17EdgeWeightedGraphi, symObjAddr: 0x4D8, symBinAddr: 0x100034418, symSize: 0x154 }
  - { offsetInCU: 0x7708, offset: 0x5FA7A, size: 0x8, addend: 0x0, symName: __ZNKSt3__114priority_queueI4EdgeNS_6vectorIS1_NS_9allocatorIS1_EEEENS_7greaterIS1_EEE5emptyB8ue170006Ev, symObjAddr: 0x68C, symBinAddr: 0x10003456C, symSize: 0x28 }
  - { offsetInCU: 0x772D, offset: 0x5FA9F, size: 0x8, addend: 0x0, symName: __ZNKSt3__114priority_queueI4EdgeNS_6vectorIS1_NS_9allocatorIS1_EEEENS_7greaterIS1_EEE3topB8ue170006Ev, symObjAddr: 0x6B4, symBinAddr: 0x100034594, symSize: 0x24 }
  - { offsetInCU: 0x7751, offset: 0x5FAC3, size: 0x8, addend: 0x0, symName: __ZNSt3__114priority_queueI4EdgeNS_6vectorIS1_NS_9allocatorIS1_EEEENS_7greaterIS1_EEE3popEv, symObjAddr: 0x6D8, symBinAddr: 0x1000345B8, symSize: 0x50 }
  - { offsetInCU: 0x7777, offset: 0x5FAE9, size: 0x8, addend: 0x0, symName: __ZN7PrimMSTC1E17EdgeWeightedGraphi, symObjAddr: 0x9A4, symBinAddr: 0x100034608, symSize: 0x3C }
  - { offsetInCU: 0x77BF, offset: 0x5FB31, size: 0x8, addend: 0x0, symName: __ZNSt3__114priority_queueI4EdgeNS_6vectorIS1_NS_9allocatorIS1_EEEENS_7greaterIS1_EEE4pushERKS1_, symObjAddr: 0xAF8, symBinAddr: 0x100034644, symSize: 0x58 }
  - { offsetInCU: 0x77F5, offset: 0x5FB67, size: 0x8, addend: 0x0, symName: __ZNK7PrimMST5edgesEv, symObjAddr: 0xB70, symBinAddr: 0x10003469C, symSize: 0x3C }
  - { offsetInCU: 0x781B, offset: 0x5FB8D, size: 0x8, addend: 0x0, symName: __ZNK7PrimMST6weightEv, symObjAddr: 0xBE0, symBinAddr: 0x1000346D8, symSize: 0x98 }
  - { offsetInCU: 0x78C3, offset: 0x5FC35, size: 0x8, addend: 0x0, symName: __ZNSt3__114priority_queueI4EdgeNS_6vectorIS1_NS_9allocatorIS1_EEEENS_7greaterIS1_EEEC2B8ue170006Ev, symObjAddr: 0x2A0C, symBinAddr: 0x100034770, symSize: 0x2C }
  - { offsetInCU: 0x78EC, offset: 0x5FC5E, size: 0x8, addend: 0x0, symName: __ZNKSt3__16vectorI4EdgeNS_9allocatorIS1_EEE5emptyB8ue170006Ev, symObjAddr: 0x49F4, symBinAddr: 0x10003479C, symSize: 0x28 }
  - { offsetInCU: 0x7911, offset: 0x5FC83, size: 0x8, addend: 0x0, symName: __ZNKSt3__16vectorI4EdgeNS_9allocatorIS1_EEE5frontB8ue170006Ev, symObjAddr: 0x4A1C, symBinAddr: 0x1000347C4, symSize: 0x18 }
  - { offsetInCU: 0x7935, offset: 0x5FCA7, size: 0x8, addend: 0x0, symName: __ZNSt3__16vectorI4EdgeNS_9allocatorIS1_EEE8pop_backEv, symObjAddr: 0x4A8C, symBinAddr: 0x100034834, symSize: 0x2C }
  - { offsetInCU: 0x795C, offset: 0x5FCCE, size: 0x8, addend: 0x0, symName: __ZNSt3__18_IterOpsINS_17_ClassicAlgPolicyEE11__iter_moveB8ue170006IRNS_11__wrap_iterIP4EdgeEEEENS_9enable_ifIXsr12is_referenceIDTdeclsr3stdE7declvalIRT_EEEEE5valueEDTclsr3stdE4movedeclsr3stdE7declvalISB_EEEEE4typeEOSA_, symObjAddr: 0x4C34, symBinAddr: 0x1000349DC, symSize: 0x28 }
  - { offsetInCU: 0x7988, offset: 0x5FCFA, size: 0x8, addend: 0x0, symName: __ZNSt3__111__wrap_iterIP4EdgeEmmB8ue170006Ev, symObjAddr: 0x4DA8, symBinAddr: 0x100034B50, symSize: 0x20 }
  - { offsetInCU: 0x79AD, offset: 0x5FD1F, size: 0x8, addend: 0x0, symName: __ZNSt3__18_IterOpsINS_17_ClassicAlgPolicyEE25__validate_iter_referenceB8ue170006IRNS_11__wrap_iterIP4EdgeEEEEvv, symObjAddr: 0x4F28, symBinAddr: 0x100034CD0, symSize: 0x4 }
  - { offsetInCU: 0x79CB, offset: 0x5FD3D, size: 0x8, addend: 0x0, symName: __ZNKSt3__17greaterI4EdgeEclB8ue170006ERKS1_S4_, symObjAddr: 0x4F54, symBinAddr: 0x100034CD4, symSize: 0x34 }
  - { offsetInCU: 0x7A0D, offset: 0x5FD7F, size: 0x8, addend: 0x0, symName: __ZgtRK4EdgeS1_, symObjAddr: 0x4FC4, symBinAddr: 0x100034D08, symSize: 0x30 }
  - { offsetInCU: 0x7A47, offset: 0x5FDB9, size: 0x8, addend: 0x0, symName: __ZltRK4EdgeS1_, symObjAddr: 0x4FF4, symBinAddr: 0x100034D38, symSize: 0x48 }
  - { offsetInCU: 0x4A, offset: 0x5FE83, size: 0x8, addend: 0x0, symName: __ZN5Catch5Clara1_E, symObjAddr: 0x3FC238, symBinAddr: 0x1000CC1D0, symSize: 0x0 }
  - { offsetInCU: 0x8FD, offset: 0x60736, size: 0x8, addend: 0x0, symName: __ZN5Catch5Clara6Detail11convertIntoERKNSt3__112basic_stringIcNS2_11char_traitsIcEENS2_9allocatorIcEEEERS8_, symObjAddr: 0x40814, symBinAddr: 0x10007376C, symSize: 0x2C }
  - { offsetInCU: 0x936, offset: 0x6076F, size: 0x8, addend: 0x0, symName: __ZN5Catch5Clara6Detail11convertIntoINSt3__112basic_stringIcNS3_11char_traitsIcEENS3_9allocatorIcEEEEEEvbRT_, symObjAddr: 0x40840, symBinAddr: 0x100073798, symSize: 0x70 }
  - { offsetInCU: 0x970, offset: 0x607A9, size: 0x8, addend: 0x0, symName: __ZN5Catch5Clara6Detail10startsWithERKNSt3__112basic_stringIcNS2_11char_traitsIcEENS2_9allocatorIcEEEESA_, symObjAddr: 0x42E64, symBinAddr: 0x100075DBC, symSize: 0xE0 }
  - { offsetInCU: 0xA9D, offset: 0x608D6, size: 0x8, addend: 0x0, symName: __ZN5Catch5Clara6Detail11convertIntoERKNSt3__112basic_stringIcNS2_11char_traitsIcEENS2_9allocatorIcEEEERb, symObjAddr: 0x43170, symBinAddr: 0x1000760C8, symSize: 0x2B8 }
  - { offsetInCU: 0xAE5, offset: 0x6091E, size: 0x8, addend: 0x0, symName: __ZN5Catch5Clara6Detail11convertIntoEbRb, symObjAddr: 0x43428, symBinAddr: 0x100076380, symSize: 0x2C }
  - { offsetInCU: 0xDE6, offset: 0x60C1F, size: 0x8, addend: 0x0, symName: __ZN5Catch5Clara6Detail11convertIntoIiEEvRKNSt3__112basic_stringIcNS3_11char_traitsIcEENS3_9allocatorIcEEEERT_, symObjAddr: 0x44B6C, symBinAddr: 0x100077AC4, symSize: 0x1AC }
  - { offsetInCU: 0xE38, offset: 0x60C71, size: 0x8, addend: 0x0, symName: __ZN5Catch5Clara6Detail11convertIntoIiEEvbRT_, symObjAddr: 0x45198, symBinAddr: 0x100077F44, symSize: 0x70 }
  - { offsetInCU: 0x1223, offset: 0x6105C, size: 0x8, addend: 0x0, symName: __ZN5Catch5Clara10addOptNameERNS0_11CommandLineINS_10ConfigDataEE3ArgERKNSt3__112basic_stringIcNS6_11char_traitsIcEENS6_9allocatorIcEEEE, symObjAddr: 0x40A58, symBinAddr: 0x1000739B0, symSize: 0x438 }
  - { offsetInCU: 0x126A, offset: 0x610A3, size: 0x8, addend: 0x0, symName: __ZN5Catch10signalDefsE, symObjAddr: 0x8D450, symBinAddr: 0x1000CC000, symSize: 0x0 }
  - { offsetInCU: 0x12A3, offset: 0x610DC, size: 0x8, addend: 0x0, symName: __ZN5Catch7Session19alreadyInstantiatedE, symObjAddr: 0x3FC239, symBinAddr: 0x1000CC1D1, symSize: 0x0 }
  - { offsetInCU: 0x2620, offset: 0x62459, size: 0x8, addend: 0x0, symName: __ZN5Catch12_GLOBAL__N_138catch_internal_RegistrarForXmlReporterE, symObjAddr: 0x3FC2D0, symBinAddr: 0x1000CC1B0, symSize: 0x0 }
  - { offsetInCU: 0x263B, offset: 0x62474, size: 0x8, addend: 0x0, symName: __ZN5Catch12_GLOBAL__N_140catch_internal_RegistrarForJunitReporterE, symObjAddr: 0x3FC2D1, symBinAddr: 0x1000CC1B1, symSize: 0x0 }
  - { offsetInCU: 0x2656, offset: 0x6248F, size: 0x8, addend: 0x0, symName: __ZN5Catch12_GLOBAL__N_142catch_internal_RegistrarForConsoleReporterE, symObjAddr: 0x3FC2D2, symBinAddr: 0x1000CC1B2, symSize: 0x0 }
  - { offsetInCU: 0x2671, offset: 0x624AA, size: 0x8, addend: 0x0, symName: __ZN5Catch12_GLOBAL__N_142catch_internal_RegistrarForCompactReporterE, symObjAddr: 0x3FC2D3, symBinAddr: 0x1000CC1B3, symSize: 0x0 }
  - { offsetInCU: 0x267F, offset: 0x624B8, size: 0x8, addend: 0x0, symName: __ZN5Catch12_GLOBAL__N_117getTheRegistryHubEv, symObjAddr: 0x36A8, symBinAddr: 0x100038334, symSize: 0x80 }
  - { offsetInCU: 0x26AB, offset: 0x624E4, size: 0x8, addend: 0x0, symName: __ZZN5Catch12_GLOBAL__N_117getTheRegistryHubEvE14theRegistryHub, symObjAddr: 0x3FC2D8, symBinAddr: 0x1000CC1B8, symSize: 0x0 }
  - { offsetInCU: 0x2842, offset: 0x6267B, size: 0x8, addend: 0x0, symName: __ZN5Catch12_GLOBAL__N_114currentContextE, symObjAddr: 0x3FC290, symBinAddr: 0x1000CC170, symSize: 0x0 }
  - { offsetInCU: 0x2922, offset: 0x6275B, size: 0x8, addend: 0x0, symName: __ZN5Catch12_GLOBAL__N_122platformColourInstanceEv, symObjAddr: 0x465C, symBinAddr: 0x100039238, symSize: 0x128 }
  - { offsetInCU: 0x2951, offset: 0x6278A, size: 0x8, addend: 0x0, symName: __ZN5Catch12_GLOBAL__N_115getCurrentTicksEv, symObjAddr: 0x758C, symBinAddr: 0x10003C0E4, symSize: 0x3C }
  - { offsetInCU: 0x298E, offset: 0x627C7, size: 0x8, addend: 0x0, symName: __ZN5Catch14libraryVersionE, symObjAddr: 0x3FC240, symBinAddr: 0x1000CC1D8, symSize: 0x0 }
  - { offsetInCU: 0x2A39, offset: 0x62872, size: 0x8, addend: 0x0, symName: __ZN5Catch11MessageInfo11globalCountE, symObjAddr: 0x3FC270, symBinAddr: 0x1000CC208, symSize: 0x0 }
  - { offsetInCU: 0x2B3B, offset: 0x62974, size: 0x8, addend: 0x0, symName: __ZN5Catch4trimERKNSt3__112basic_stringIcNS0_11char_traitsIcEENS0_9allocatorIcEEEE, symObjAddr: 0x79D0, symBinAddr: 0x10003C528, symSize: 0xA4 }
  - { offsetInCU: 0x2B66, offset: 0x6299F, size: 0x8, addend: 0x0, symName: __ZZN5Catch4trimERKNSt3__112basic_stringIcNS0_11char_traitsIcEENS0_9allocatorIcEEEEE15whitespaceChars, symObjAddr: 0x8D4B0, symBinAddr: 0x1000CC060, symSize: 0x0 }
  - { offsetInCU: 0x2BB0, offset: 0x629E9, size: 0x8, addend: 0x0, symName: __ZN5Catch6Detail17unprintableStringE, symObjAddr: 0x3FC278, symBinAddr: 0x1000CC210, symSize: 0x0 }
  - { offsetInCU: 0x2C09, offset: 0x62A42, size: 0x8, addend: 0x0, symName: __ZN5Catch6Detail17rawMemoryToStringEPKvm, symObjAddr: 0x8890, symBinAddr: 0x10003D3B0, symSize: 0x1A8 }
  - { offsetInCU: 0x2C92, offset: 0x62ACB, size: 0x8, addend: 0x0, symName: __ZN5Catch6Detail10makeStringIcEENSt3__112basic_stringIcNS2_11char_traitsIcEENS2_9allocatorIcEEEERKT_, symObjAddr: 0x9A1C, symBinAddr: 0x10003E53C, symSize: 0x2C }
  - { offsetInCU: 0x7439, offset: 0x67272, size: 0x8, addend: 0x0, symName: __ZN5Catch3TbclsERNSt3__113basic_ostreamIcNS1_11char_traitsIcEEEERKNS0_4TextE, symObjAddr: 0x48F44, symBinAddr: 0x10007BB7C, symSize: 0xB4 }
  - { offsetInCU: 0x74A3, offset: 0x672DC, size: 0x8, addend: 0x0, symName: __ZN5Catch14getLineOfCharsILc126EEEPKcv, symObjAddr: 0x68A08, symBinAddr: 0x10009577C, symSize: 0x58 }
  - { offsetInCU: 0x74CE, offset: 0x67307, size: 0x8, addend: 0x0, symName: __ZZN5Catch14getLineOfCharsILc126EEEPKcvE4line, symObjAddr: 0x8D4C8, symBinAddr: 0x1000CC078, symSize: 0x0 }
  - { offsetInCU: 0x74E4, offset: 0x6731D, size: 0x8, addend: 0x0, symName: __ZN5Catch14getLineOfCharsILc45EEEPKcv, symObjAddr: 0x68BD4, symBinAddr: 0x100095948, symSize: 0x58 }
  - { offsetInCU: 0x750F, offset: 0x67348, size: 0x8, addend: 0x0, symName: __ZZN5Catch14getLineOfCharsILc45EEEPKcvE4line, symObjAddr: 0x8D518, symBinAddr: 0x1000CC0C8, symSize: 0x0 }
  - { offsetInCU: 0x7524, offset: 0x6735D, size: 0x8, addend: 0x0, symName: __ZN5Catch14getLineOfCharsILc46EEEPKcv, symObjAddr: 0x68B7C, symBinAddr: 0x1000958F0, symSize: 0x58 }
  - { offsetInCU: 0x754F, offset: 0x67388, size: 0x8, addend: 0x0, symName: __ZZN5Catch14getLineOfCharsILc46EEEPKcvE4line, symObjAddr: 0x8D568, symBinAddr: 0x1000CC118, symSize: 0x0 }
  - { offsetInCU: 0x8AF7, offset: 0x68930, size: 0x8, addend: 0x0, symName: __ZN5Catch8Matchers6EqualsERKNSt3__112basic_stringIcNS1_11char_traitsIcEENS1_9allocatorIcEEEENS_13CaseSensitive6ChoiceE, symObjAddr: 0xA5C8, symBinAddr: 0x10003F0BC, symSize: 0x40 }
  - { offsetInCU: 0x8BF8, offset: 0x68A31, size: 0x8, addend: 0x0, symName: __ZN5Catch16getResultCaptureEv, symObjAddr: 0x0, symBinAddr: 0x100034E1C, symSize: 0x9C }
  - { offsetInCU: 0x8C2D, offset: 0x68A66, size: 0x8, addend: 0x0, symName: __ZN5Catch17getCurrentContextEv, symObjAddr: 0x9C, symBinAddr: 0x100034EB8, symSize: 0x14 }
  - { offsetInCU: 0x8C4C, offset: 0x68A85, size: 0x8, addend: 0x0, symName: __ZN5Catch14createReporterERKNSt3__112basic_stringIcNS0_11char_traitsIcEENS0_9allocatorIcEEEERKNS_3PtrINS_6ConfigEEE, symObjAddr: 0xB0, symBinAddr: 0x100034ECC, symSize: 0x274 }
  - { offsetInCU: 0x8CB0, offset: 0x68AE9, size: 0x8, addend: 0x0, symName: __ZN5Catch14getRegistryHubEv, symObjAddr: 0x324, symBinAddr: 0x100035140, symSize: 0x18 }
  - { offsetInCU: 0x8CCF, offset: 0x68B08, size: 0x8, addend: 0x0, symName: __ZN5Catch12makeReporterERKNS_3PtrINS_6ConfigEEE, symObjAddr: 0x65C, symBinAddr: 0x10003531C, symSize: 0x204 }
  - { offsetInCU: 0x8D49, offset: 0x68B82, size: 0x8, addend: 0x0, symName: __ZN5Catch11addReporterERKNS_3PtrINS_18IStreamingReporterEEES4_, symObjAddr: 0xA78, symBinAddr: 0x100035704, symSize: 0x268 }
  - { offsetInCU: 0x8DAD, offset: 0x68BE6, size: 0x8, addend: 0x0, symName: __ZN5Catch12addListenersERKNS_3PtrIKNS_7IConfigEEENS0_INS_18IStreamingReporterEEE, symObjAddr: 0xDB8, symBinAddr: 0x100035A44, symSize: 0x1D4 }
  - { offsetInCU: 0x8E27, offset: 0x68C60, size: 0x8, addend: 0x0, symName: __ZN5Catch8runTestsERKNS_3PtrINS_6ConfigEEE, symObjAddr: 0x11A0, symBinAddr: 0x100035E2C, symSize: 0x470 }
  - { offsetInCU: 0x966A, offset: 0x694A3, size: 0x8, addend: 0x0, symName: __ZN5Catch21getAllTestCasesSortedERKNS_7IConfigE, symObjAddr: 0x197C, symBinAddr: 0x100036608, symSize: 0x3C }
  - { offsetInCU: 0x9698, offset: 0x694D1, size: 0x8, addend: 0x0, symName: __ZN5Catch9matchTestERKNS_8TestCaseERKNS_8TestSpecERKNS_7IConfigE, symObjAddr: 0x1AB0, symBinAddr: 0x10003673C, symSize: 0x88 }
  - { offsetInCU: 0x96E4, offset: 0x6951D, size: 0x8, addend: 0x0, symName: __ZN5Catch20applyFilenamesAsTagsERKNS_7IConfigE, symObjAddr: 0x201C, symBinAddr: 0x100036CA8, symSize: 0x228 }
  - { offsetInCU: 0x9789, offset: 0x695C2, size: 0x8, addend: 0x0, symName: __ZN5Catch7setTagsERNS_12TestCaseInfoERKNSt3__13setINS2_12basic_stringIcNS2_11char_traitsIcEENS2_9allocatorIcEEEENS2_4lessIS9_EENS7_IS9_EEEE, symObjAddr: 0x2428, symBinAddr: 0x1000370B4, symSize: 0x1E0 }
  - { offsetInCU: 0x9817, offset: 0x69650, size: 0x8, addend: 0x0, symName: __ZN5Catch27enforceNoDuplicateTestCasesERKNSt3__16vectorINS_8TestCaseENS0_9allocatorIS2_EEEE, symObjAddr: 0x2708, symBinAddr: 0x100037394, symSize: 0x238 }
  - { offsetInCU: 0x9899, offset: 0x696D2, size: 0x8, addend: 0x0, symName: __ZN5CatchlsERNSt3__113basic_ostreamIcNS0_11char_traitsIcEEEERKNS_14SourceLineInfoE, symObjAddr: 0x29B8, symBinAddr: 0x100037644, symSize: 0x48 }
  - { offsetInCU: 0x98D6, offset: 0x6970F, size: 0x8, addend: 0x0, symName: __ZN5CatchlsERNSt3__113basic_ostreamIcNS0_11char_traitsIcEEEERKNS_6ColourE, symObjAddr: 0x2A00, symBinAddr: 0x10003768C, symSize: 0x18 }
  - { offsetInCU: 0x990F, offset: 0x69748, size: 0x8, addend: 0x0, symName: __ZN5Catch4cerrEv, symObjAddr: 0x2A18, symBinAddr: 0x1000376A4, symSize: 0xC }
  - { offsetInCU: 0x992E, offset: 0x69767, size: 0x8, addend: 0x0, symName: __ZN5Catch11filterTestsERKNSt3__16vectorINS_8TestCaseENS0_9allocatorIS2_EEEERKNS_8TestSpecERKNS_7IConfigE, symObjAddr: 0x2B9C, symBinAddr: 0x100037828, symSize: 0x134 }
  - { offsetInCU: 0x99AF, offset: 0x697E8, size: 0x8, addend: 0x0, symName: __ZN5Catch16registerTestCaseEPNS_9ITestCaseEPKcRKNS_11NameAndDescERKNS_14SourceLineInfoE, symObjAddr: 0x2E7C, symBinAddr: 0x100037B08, symSize: 0x178 }
  - { offsetInCU: 0x9A06, offset: 0x6983F, size: 0x8, addend: 0x0, symName: __ZN5Catch21getMutableRegistryHubEv, symObjAddr: 0x2FF4, symBinAddr: 0x100037C80, symSize: 0x1C }
  - { offsetInCU: 0x9A25, offset: 0x6985E, size: 0x8, addend: 0x0, symName: __ZN5Catch12makeTestCaseEPNS_9ITestCaseERKNSt3__112basic_stringIcNS2_11char_traitsIcEENS2_9allocatorIcEEEESA_SA_RKNS_14SourceLineInfoE, symObjAddr: 0x3010, symBinAddr: 0x100037C9C, symSize: 0x37C }
  - { offsetInCU: 0x9B3B, offset: 0x69974, size: 0x8, addend: 0x0, symName: __ZN5Catch16extractClassNameERKNSt3__112basic_stringIcNS0_11char_traitsIcEENS0_9allocatorIcEEEE, symObjAddr: 0x338C, symBinAddr: 0x100038018, symSize: 0x17C }
  - { offsetInCU: 0x9BA0, offset: 0x699D9, size: 0x8, addend: 0x0, symName: __ZN5Catch24registerTestCaseFunctionEPFvvERKNS_14SourceLineInfoERKNS_11NameAndDescE, symObjAddr: 0x3534, symBinAddr: 0x1000381C0, symSize: 0x78 }
  - { offsetInCU: 0x9CD7, offset: 0x69B10, size: 0x8, addend: 0x0, symName: __ZN5Catch7cleanUpEv, symObjAddr: 0x3728, symBinAddr: 0x1000383B4, symSize: 0x54 }
  - { offsetInCU: 0x9CF2, offset: 0x69B2B, size: 0x8, addend: 0x0, symName: __ZN5Catch14cleanUpContextEv, symObjAddr: 0x377C, symBinAddr: 0x100038408, symSize: 0x50 }
  - { offsetInCU: 0x9D0D, offset: 0x69B46, size: 0x8, addend: 0x0, symName: __ZN5Catch24translateActiveExceptionEv, symObjAddr: 0x37CC, symBinAddr: 0x100038458, symSize: 0x40 }
  - { offsetInCU: 0xA020, offset: 0x69E59, size: 0x8, addend: 0x0, symName: __ZN5Catch4coutEv, symObjAddr: 0x41C0, symBinAddr: 0x100038DA8, symSize: 0xC }
  - { offsetInCU: 0xA03F, offset: 0x69E78, size: 0x8, addend: 0x0, symName: __ZN5Catch24getCurrentMutableContextEv, symObjAddr: 0x4234, symBinAddr: 0x100038E1C, symSize: 0x80 }
  - { offsetInCU: 0xA05E, offset: 0x69E97, size: 0x8, addend: 0x0, symName: __ZN5Catch16isDebuggerActiveEv, symObjAddr: 0x44C4, symBinAddr: 0x1000390A0, symSize: 0x118 }
  - { offsetInCU: 0xA0AA, offset: 0x69EE3, size: 0x8, addend: 0x0, symName: __ZN5Catch23createGeneratorsForTestEv, symObjAddr: 0x4784, symBinAddr: 0x100039360, symSize: 0x40 }
  - { offsetInCU: 0xA168, offset: 0x69FA1, size: 0x8, addend: 0x0, symName: __ZN5Catch4isOkENS_9ResultWas6OfTypeE, symObjAddr: 0x4BD0, symBinAddr: 0x100039754, symSize: 0x20 }
  - { offsetInCU: 0xA196, offset: 0x69FCF, size: 0x8, addend: 0x0, symName: __ZN5Catch21shouldSuppressFailureEi, symObjAddr: 0x4C48, symBinAddr: 0x1000397CC, symSize: 0x20 }
  - { offsetInCU: 0xA1C4, offset: 0x69FFD, size: 0x8, addend: 0x0, symName: __ZN5Catch11isFalseTestEi, symObjAddr: 0x4D7C, symBinAddr: 0x100039900, symSize: 0x20 }
  - { offsetInCU: 0xA1F2, offset: 0x6A02B, size: 0x8, addend: 0x0, symName: __ZN5Catch10startsWithERKNSt3__112basic_stringIcNS0_11char_traitsIcEENS0_9allocatorIcEEEES8_, symObjAddr: 0x525C, symBinAddr: 0x100039DE0, symSize: 0xE0 }
  - { offsetInCU: 0xA22F, offset: 0x6A068, size: 0x8, addend: 0x0, symName: __ZN5Catch15parseSpecialTagERKNSt3__112basic_stringIcNS0_11char_traitsIcEENS0_9allocatorIcEEEE, symObjAddr: 0x5420, symBinAddr: 0x100039FA4, symSize: 0x158 }
  - { offsetInCU: 0xA25D, offset: 0x6A096, size: 0x8, addend: 0x0, symName: __ZN5Catch21enforceNotReservedTagERKNSt3__112basic_stringIcNS0_11char_traitsIcEENS0_9allocatorIcEEEERKNS_14SourceLineInfoE, symObjAddr: 0x5578, symBinAddr: 0x10003A0FC, symSize: 0x118 }
  - { offsetInCU: 0xA2C2, offset: 0x6A0FB, size: 0x8, addend: 0x0, symName: __ZN5Catch7toLowerERKNSt3__112basic_stringIcNS0_11char_traitsIcEENS0_9allocatorIcEEEE, symObjAddr: 0x591C, symBinAddr: 0x10003A4A0, symSize: 0xA0 }
  - { offsetInCU: 0xA300, offset: 0x6A139, size: 0x8, addend: 0x0, symName: __ZN5CatchlsERNSt3__113basic_ostreamIcNS0_11char_traitsIcEEEERKNS_7VersionE, symObjAddr: 0x6628, symBinAddr: 0x10003B1AC, symSize: 0xB0 }
  - { offsetInCU: 0xA91E, offset: 0x6A757, size: 0x8, addend: 0x0, symName: __ZN5Catch8endsWithERKNSt3__112basic_stringIcNS0_11char_traitsIcEENS0_9allocatorIcEEEES8_, symObjAddr: 0x7660, symBinAddr: 0x10003C1B8, symSize: 0x104 }
  - { offsetInCU: 0xA95B, offset: 0x6A794, size: 0x8, addend: 0x0, symName: __ZN5Catch8containsERKNSt3__112basic_stringIcNS0_11char_traitsIcEENS0_9allocatorIcEEEES8_, symObjAddr: 0x7764, symBinAddr: 0x10003C2BC, symSize: 0x3C }
  - { offsetInCU: 0xA998, offset: 0x6A7D1, size: 0x8, addend: 0x0, symName: __ZN5Catch14toLowerInPlaceERNSt3__112basic_stringIcNS0_11char_traitsIcEENS0_9allocatorIcEEEE, symObjAddr: 0x7818, symBinAddr: 0x10003C370, symSize: 0x5C }
  - { offsetInCU: 0xA9C2, offset: 0x6A7FB, size: 0x8, addend: 0x0, symName: __ZN5Catch14replaceInPlaceERNSt3__112basic_stringIcNS0_11char_traitsIcEENS0_9allocatorIcEEEERKS6_S9_, symObjAddr: 0x7B5C, symBinAddr: 0x10003C6B4, symSize: 0x1F0 }
  - { offsetInCU: 0xAA75, offset: 0x6A8AE, size: 0x8, addend: 0x0, symName: __ZN5CatchlsERNSt3__113basic_ostreamIcNS0_11char_traitsIcEEEERKNS_9pluraliseE, symObjAddr: 0x7E0C, symBinAddr: 0x10003C964, symSize: 0x78 }
  - { offsetInCU: 0xAAB2, offset: 0x6A8EB, size: 0x8, addend: 0x0, symName: __ZN5Catch7seedRngERKNS_7IConfigE, symObjAddr: 0x80C8, symBinAddr: 0x10003CC20, symSize: 0x54 }
  - { offsetInCU: 0xAADC, offset: 0x6A915, size: 0x8, addend: 0x0, symName: __ZN5Catch7rngSeedEv, symObjAddr: 0x811C, symBinAddr: 0x10003CC74, symSize: 0x84 }
  - { offsetInCU: 0xAAFB, offset: 0x6A934, size: 0x8, addend: 0x0, symName: __ZN5Catch15throwLogicErrorERKNSt3__112basic_stringIcNS0_11char_traitsIcEENS0_9allocatorIcEEEERKNS_14SourceLineInfoE, symObjAddr: 0x81A0, symBinAddr: 0x10003CCF8, symSize: 0x18C }
  - { offsetInCU: 0xABDE, offset: 0x6AA17, size: 0x8, addend: 0x0, symName: __ZN5Catch19writeToDebugConsoleERKNSt3__112basic_stringIcNS0_11char_traitsIcEENS0_9allocatorIcEEEE, symObjAddr: 0x8868, symBinAddr: 0x10003D388, symSize: 0x28 }
  - { offsetInCU: 0xAC08, offset: 0x6AA41, size: 0x8, addend: 0x0, symName: __ZN5Catch8toStringERKNSt3__112basic_stringIcNS0_11char_traitsIcEENS0_9allocatorIcEEEE, symObjAddr: 0x8BAC, symBinAddr: 0x10003D6CC, symSize: 0x304 }
  - { offsetInCU: 0xAC73, offset: 0x6AAAC, size: 0x8, addend: 0x0, symName: __ZN5Catch8toStringERKNSt3__112basic_stringIwNS0_11char_traitsIwEENS0_9allocatorIwEEEE, symObjAddr: 0x8F0C, symBinAddr: 0x10003DA2C, symSize: 0x118 }
  - { offsetInCU: 0xACCD, offset: 0x6AB06, size: 0x8, addend: 0x0, symName: __ZN5Catch8toStringEPKc, symObjAddr: 0x90A8, symBinAddr: 0x10003DBC8, symSize: 0xDC }
  - { offsetInCU: 0xACFB, offset: 0x6AB34, size: 0x8, addend: 0x0, symName: __ZN5Catch8toStringEPc, symObjAddr: 0x9184, symBinAddr: 0x10003DCA4, symSize: 0x2C }
  - { offsetInCU: 0xAD29, offset: 0x6AB62, size: 0x8, addend: 0x0, symName: __ZN5Catch8toStringEPKw, symObjAddr: 0x91B0, symBinAddr: 0x10003DCD0, symSize: 0xDC }
  - { offsetInCU: 0xAD57, offset: 0x6AB90, size: 0x8, addend: 0x0, symName: __ZN5Catch8toStringEPw, symObjAddr: 0x92C0, symBinAddr: 0x10003DDE0, symSize: 0x2C }
  - { offsetInCU: 0xAD85, offset: 0x6ABBE, size: 0x8, addend: 0x0, symName: __ZN5Catch8toStringEi, symObjAddr: 0x92EC, symBinAddr: 0x10003DE0C, symSize: 0xF0 }
  - { offsetInCU: 0xADC2, offset: 0x6ABFB, size: 0x8, addend: 0x0, symName: __ZN5Catch8toStringEm, symObjAddr: 0x93DC, symBinAddr: 0x10003DEFC, symSize: 0x10C }
  - { offsetInCU: 0xAE00, offset: 0x6AC39, size: 0x8, addend: 0x0, symName: __ZN5Catch8toStringEj, symObjAddr: 0x94E8, symBinAddr: 0x10003E008, symSize: 0x30 }
  - { offsetInCU: 0xAE2E, offset: 0x6AC67, size: 0x8, addend: 0x0, symName: __ZN5Catch8toStringEd, symObjAddr: 0x9518, symBinAddr: 0x10003E038, symSize: 0x30 }
  - { offsetInCU: 0xAE5C, offset: 0x6AC95, size: 0x8, addend: 0x0, symName: __ZN5Catch10fpToStringIdEENSt3__112basic_stringIcNS1_11char_traitsIcEENS1_9allocatorIcEEEET_i, symObjAddr: 0x9548, symBinAddr: 0x10003E068, symSize: 0x1D4 }
  - { offsetInCU: 0xAED2, offset: 0x6AD0B, size: 0x8, addend: 0x0, symName: __ZN5Catch8toStringEf, symObjAddr: 0x971C, symBinAddr: 0x10003E23C, symSize: 0x78 }
  - { offsetInCU: 0xAF00, offset: 0x6AD39, size: 0x8, addend: 0x0, symName: __ZN5Catch10fpToStringIfEENSt3__112basic_stringIcNS1_11char_traitsIcEENS1_9allocatorIcEEEET_i, symObjAddr: 0x9794, symBinAddr: 0x10003E2B4, symSize: 0x1D4 }
  - { offsetInCU: 0xAF76, offset: 0x6ADAF, size: 0x8, addend: 0x0, symName: __ZN5Catch8toStringEb, symObjAddr: 0x9968, symBinAddr: 0x10003E488, symSize: 0x5C }
  - { offsetInCU: 0xAFA4, offset: 0x6ADDD, size: 0x8, addend: 0x0, symName: __ZN5Catch8toStringEc, symObjAddr: 0x99C4, symBinAddr: 0x10003E4E4, symSize: 0x58 }
  - { offsetInCU: 0xAFD2, offset: 0x6AE0B, size: 0x8, addend: 0x0, symName: __ZN5Catch8toStringEa, symObjAddr: 0x9A48, symBinAddr: 0x10003E568, symSize: 0x2C }
  - { offsetInCU: 0xB000, offset: 0x6AE39, size: 0x8, addend: 0x0, symName: __ZN5Catch8toStringEh, symObjAddr: 0x9A74, symBinAddr: 0x10003E594, symSize: 0x2C }
  - { offsetInCU: 0xB02E, offset: 0x6AE67, size: 0x8, addend: 0x0, symName: __ZN5Catch8toStringEx, symObjAddr: 0x9AA0, symBinAddr: 0x10003E5C0, symSize: 0x10C }
  - { offsetInCU: 0xB06C, offset: 0x6AEA5, size: 0x8, addend: 0x0, symName: __ZN5Catch8toStringEy, symObjAddr: 0x9BAC, symBinAddr: 0x10003E6CC, symSize: 0x10C }
  - { offsetInCU: 0xB0AA, offset: 0x6AEE3, size: 0x8, addend: 0x0, symName: __ZN5Catch8toStringEDn, symObjAddr: 0x9CB8, symBinAddr: 0x10003E7D8, symSize: 0x3C }
  - { offsetInCU: 0xB0D4, offset: 0x6AF0D, size: 0x8, addend: 0x0, symName: __ZN5Catch36capturedExpressionWithSecondArgumentERKNSt3__112basic_stringIcNS0_11char_traitsIcEENS0_9allocatorIcEEEES8_, symObjAddr: 0x9CF4, symBinAddr: 0x10003E814, symSize: 0xF8 }
  - { offsetInCU: 0xB1FC, offset: 0x6B035, size: 0x8, addend: 0x0, symName: __ZN5Catch5fatalERKNSt3__112basic_stringIcNS0_11char_traitsIcEENS0_9allocatorIcEEEEi, symObjAddr: 0x286BC, symBinAddr: 0x10005C260, symSize: 0x64 }
  - { offsetInCU: 0xB253, offset: 0x6B08C, size: 0x8, addend: 0x0, symName: __ZN5Catch9deleteAllINSt3__16vectorIPKNS_20IExceptionTranslatorENS1_9allocatorIS5_EEEEEEvRT_, symObjAddr: 0x2B304, symBinAddr: 0x10005EC1C, symSize: 0xB4 }
  - { offsetInCU: 0xB2A4, offset: 0x6B0DD, size: 0x8, addend: 0x0, symName: __ZN5Catch9deleteAllINSt3__16vectorIPNS_14IGeneratorInfoENS1_9allocatorIS4_EEEEEEvRT_, symObjAddr: 0x32D2C, symBinAddr: 0x1000660D0, symSize: 0xB4 }
  - { offsetInCU: 0xB38A, offset: 0x6B1C3, size: 0x8, addend: 0x0, symName: __ZN5Catch13isReservedTagERKNSt3__112basic_stringIcNS0_11char_traitsIcEENS0_9allocatorIcEEEE, symObjAddr: 0x364A8, symBinAddr: 0x1000697D0, symSize: 0x88 }
  - { offsetInCU: 0xB3B8, offset: 0x6B1F1, size: 0x8, addend: 0x0, symName: __ZN5Catch21makeCommandLineParserEv, symObjAddr: 0x3D414, symBinAddr: 0x10007036C, symSize: 0x160C }
  - { offsetInCU: 0xB3EF, offset: 0x6B228, size: 0x8, addend: 0x0, symName: __ZN5Catch15addReporterNameERNS_10ConfigDataERKNSt3__112basic_stringIcNS2_11char_traitsIcEENS2_9allocatorIcEEEE, symObjAddr: 0x3EFA8, symBinAddr: 0x100071F00, symSize: 0x30 }
  - { offsetInCU: 0xB428, offset: 0x6B261, size: 0x8, addend: 0x0, symName: __ZN5Catch15abortAfterFirstERNS_10ConfigDataE, symObjAddr: 0x3F080, symBinAddr: 0x100071FD8, symSize: 0x1C }
  - { offsetInCU: 0xB453, offset: 0x6B28C, size: 0x8, addend: 0x0, symName: __ZN5Catch11abortAfterXERNS_10ConfigDataEi, symObjAddr: 0x3F15C, symBinAddr: 0x1000720B4, symSize: 0x98 }
  - { offsetInCU: 0xB48C, offset: 0x6B2C5, size: 0x8, addend: 0x0, symName: __ZN5Catch10addWarningERNS_10ConfigDataERKNSt3__112basic_stringIcNS2_11char_traitsIcEENS2_9allocatorIcEEEE, symObjAddr: 0x3F1F4, symBinAddr: 0x10007214C, symSize: 0x144 }
  - { offsetInCU: 0xB4C5, offset: 0x6B2FE, size: 0x8, addend: 0x0, symName: __ZN5Catch13addTestOrTagsERNS_10ConfigDataERKNSt3__112basic_stringIcNS2_11char_traitsIcEENS2_9allocatorIcEEEE, symObjAddr: 0x3F430, symBinAddr: 0x100072388, symSize: 0x30 }
  - { offsetInCU: 0xB4FE, offset: 0x6B337, size: 0x8, addend: 0x0, symName: __ZN5Catch16setShowDurationsERNS_10ConfigDataEb, symObjAddr: 0x3F520, symBinAddr: 0x100072478, symSize: 0x38 }
  - { offsetInCU: 0xB538, offset: 0x6B371, size: 0x8, addend: 0x0, symName: __ZN5Catch21loadTestNamesFromFileERNS_10ConfigDataERKNSt3__112basic_stringIcNS2_11char_traitsIcEENS2_9allocatorIcEEEE, symObjAddr: 0x3F558, symBinAddr: 0x1000724B0, symSize: 0x368 }
  - { offsetInCU: 0xB593, offset: 0x6B3CC, size: 0x8, addend: 0x0, symName: __ZN5Catch8setOrderERNS_10ConfigDataERKNSt3__112basic_stringIcNS2_11char_traitsIcEENS2_9allocatorIcEEEE, symObjAddr: 0x3F8C0, symBinAddr: 0x100072818, symSize: 0x268 }
  - { offsetInCU: 0xB5CC, offset: 0x6B405, size: 0x8, addend: 0x0, symName: __ZN5Catch10setRngSeedERNS_10ConfigDataERKNSt3__112basic_stringIcNS2_11char_traitsIcEENS2_9allocatorIcEEEE, symObjAddr: 0x3FB28, symBinAddr: 0x100072A80, symSize: 0x150 }
  - { offsetInCU: 0xB622, offset: 0x6B45B, size: 0x8, addend: 0x0, symName: __ZN5Catch4listERKNS_6ConfigE, symObjAddr: 0x46F1C, symBinAddr: 0x100079B54, symSize: 0x230 }
  - { offsetInCU: 0xB7F3, offset: 0x6B62C, size: 0x8, addend: 0x0, symName: __ZN5Catch9listTestsERKNS_6ConfigE, symObjAddr: 0x47B80, symBinAddr: 0x10007A7B8, symSize: 0x578 }
  - { offsetInCU: 0xB8D5, offset: 0x6B70E, size: 0x8, addend: 0x0, symName: __ZN5Catch18listTestsNamesOnlyERKNS_6ConfigE, symObjAddr: 0x48158, symBinAddr: 0x10007AD90, symSize: 0x244 }
  - { offsetInCU: 0xB977, offset: 0x6B7B0, size: 0x8, addend: 0x0, symName: __ZN5Catch8listTagsERKNS_6ConfigE, symObjAddr: 0x483B8, symBinAddr: 0x10007AFF0, symSize: 0x798 }
  - { offsetInCU: 0xBAAE, offset: 0x6B8E7, size: 0x8, addend: 0x0, symName: __ZN5Catch13listReportersERKNS_6ConfigE, symObjAddr: 0x48B6C, symBinAddr: 0x10007B7A4, symSize: 0x2B8 }
  - { offsetInCU: 0xBB3A, offset: 0x6B973, size: 0x8, addend: 0x0, symName: __ZN5Catch9sortTestsERKNS_7IConfigERKNSt3__16vectorINS_8TestCaseENS3_9allocatorIS5_EEEE, symObjAddr: 0x54804, symBinAddr: 0x100081650, symSize: 0x164 }
  - { offsetInCU: 0xBBF5, offset: 0x6BA2E, size: 0x8, addend: 0x0, symName: __ZN5CatchlsERNSt3__113basic_ostreamIcNS0_11char_traitsIcEEEERKNS_9XmlEncodeE, symObjAddr: 0x65CAC, symBinAddr: 0x100092A20, symSize: 0x30 }
  - { offsetInCU: 0x35797, offset: 0x955D0, size: 0x8, addend: 0x0, symName: __ZNSt3__1L19piecewise_constructE, symObjAddr: 0x90C7A, symBinAddr: 0x1000BBB6C, symSize: 0x0 }
  - { offsetInCU: 0x4F74E, offset: 0xAF587, size: 0x8, addend: 0x0, symName: __ZNSt3__111__introsortINS_17_ClassicAlgPolicyERN5Catch7LexSortEPNS2_8TestCaseELb0EEEvT1_S7_T0_NS_15iterator_traitsIS7_E15difference_typeEb, symObjAddr: 0x56164, symBinAddr: 0x100082F5C, symSize: 0x69C }
  - { offsetInCU: 0x4F877, offset: 0xAF6B0, size: 0x8, addend: 0x0, symName: __ZNSt3__126__insertion_sort_unguardedB8ue170006INS_17_ClassicAlgPolicyERN5Catch7LexSortEPNS2_8TestCaseEEEvT1_S7_T0_, symObjAddr: 0x56C7C, symBinAddr: 0x100083A58, symSize: 0x22C }
  - { offsetInCU: 0x4F955, offset: 0xAF78E, size: 0x8, addend: 0x0, symName: __ZNSt3__111__sift_downB8ue170006INS_17_ClassicAlgPolicyERN5Catch7LexSortEPNS2_8TestCaseEEEvT1_OT0_NS_15iterator_traitsIS7_E15difference_typeES7_, symObjAddr: 0x58F20, symBinAddr: 0x100085CFC, symSize: 0x4DC }
  - { offsetInCU: 0x4FA03, offset: 0xAF83C, size: 0x8, addend: 0x0, symName: __ZNSt3__117__floyd_sift_downB8ue170006INS_17_ClassicAlgPolicyERN5Catch7LexSortEPNS2_8TestCaseEEET1_S7_OT0_NS_15iterator_traitsIS7_E15difference_typeE, symObjAddr: 0x59608, symBinAddr: 0x1000863E4, symSize: 0x214 }
  - { offsetInCU: 0x4FA9A, offset: 0xAF8D3, size: 0x8, addend: 0x0, symName: __ZNSt3__131__partition_with_equals_on_leftB8ue170006INS_17_ClassicAlgPolicyEPN5Catch8TestCaseERNS2_7LexSortEEET0_S7_S7_T1_, symObjAddr: 0x572A4, symBinAddr: 0x100084080, symSize: 0x528 }
  - { offsetInCU: 0x4FB57, offset: 0xAF990, size: 0x8, addend: 0x0, symName: __ZNSt3__118__bitset_partitionB8ue170006INS_17_ClassicAlgPolicyEPN5Catch8TestCaseERNS2_7LexSortEEENS_4pairIT0_bEES8_S8_T1_, symObjAddr: 0x577CC, symBinAddr: 0x1000845A8, symSize: 0x590 }
  - { offsetInCU: 0x4FC55, offset: 0xAFA8E, size: 0x8, addend: 0x0, symName: __ZNSt3__124__swap_bitmap_pos_withinB8ue170006INS_17_ClassicAlgPolicyEPN5Catch8TestCaseEEEvRT0_S6_RyS7_, symObjAddr: 0x5A178, symBinAddr: 0x100086F54, symSize: 0x1E8 }
  - { offsetInCU: 0x4FD22, offset: 0xAFB5B, size: 0x8, addend: 0x0, symName: __ZNSt3__132__partition_with_equals_on_rightB8ue170006INS_17_ClassicAlgPolicyEPN5Catch8TestCaseERNS2_7LexSortEEENS_4pairIT0_bEES8_S8_T1_, symObjAddr: 0x57D5C, symBinAddr: 0x100084B38, symSize: 0x4C8 }
  - { offsetInCU: 0x4FDF0, offset: 0xAFC29, size: 0x8, addend: 0x0, symName: __ZNSt3__127__insertion_sort_incompleteB8ue170006INS_17_ClassicAlgPolicyERN5Catch7LexSortEPNS2_8TestCaseEEEbT1_S7_T0_, symObjAddr: 0x58224, symBinAddr: 0x100085000, symSize: 0x4FC }
  - { offsetInCU: 0x4FEE5, offset: 0xAFD1E, size: 0x8, addend: 0x0, symName: __ZNSt3__114random_shuffleB8ue170006INS_11__wrap_iterIPN5Catch8TestCaseEEERNS2_21RandomNumberGeneratorEEEvT_S8_OT0_, symObjAddr: 0x54A10, symBinAddr: 0x10008185C, symSize: 0xFC }
  - { offsetInCU: 0x52398, offset: 0xB21D1, size: 0x8, addend: 0x0, symName: __ZNSt3__124__put_character_sequenceB8ue170006IcNS_11char_traitsIcEEEERNS_13basic_ostreamIT_T0_EES7_PKS4_m, symObjAddr: 0x6E914, symBinAddr: 0x10009B58C, symSize: 0x1EC }
  - { offsetInCU: 0x52741, offset: 0xB257A, size: 0x8, addend: 0x0, symName: __ZNSt3__17advanceB8ue170006INS_21__tree_const_iteratorINS_12basic_stringIcNS_11char_traitsIcEENS_9allocatorIcEEEEPNS_11__tree_nodeIS7_PvEElEEllvEEvRT_T0_, symObjAddr: 0x72554, symBinAddr: 0x10009F1A4, symSize: 0x38 }
  - { offsetInCU: 0x541E5, offset: 0xB401E, size: 0x8, addend: 0x0, symName: __ZNSt3__16copy_nB8ue170006IPKcmPcEENS_9enable_ifIXsr37__has_random_access_iterator_categoryIT_EE5valueET1_E4typeES5_T0_S6_, symObjAddr: 0x7558C, symBinAddr: 0x1000A21DC, symSize: 0x44 }
  - { offsetInCU: 0x5E0FF, offset: 0xBDF38, size: 0x8, addend: 0x0, symName: __ZNSt3__1lsB8ue170006INS_11char_traitsIcEEEERNS_13basic_ostreamIcT_EES6_PKc, symObjAddr: 0x4F8, symBinAddr: 0x100035228, symSize: 0x48 }
  - { offsetInCU: 0x5E145, offset: 0xBDF7E, size: 0x8, addend: 0x0, symName: __ZNSt3__1lsB8ue170006IcNS_11char_traitsIcEENS_9allocatorIcEEEERNS_13basic_ostreamIT_T0_EES9_RKNS_12basic_stringIS6_S7_T1_EE, symObjAddr: 0x540, symBinAddr: 0x100035270, symSize: 0x4C }
  - { offsetInCU: 0x5E19E, offset: 0xBDFD7, size: 0x8, addend: 0x0, symName: __ZNSt3__1neB8ue170006IPKNS_12basic_stringIcNS_11char_traitsIcEENS_9allocatorIcEEEEEEbRKNS_11__wrap_iterIT_EESD_, symObjAddr: 0xA44, symBinAddr: 0x1000356D0, symSize: 0x34 }
  - { offsetInCU: 0x5E1E1, offset: 0xBE01A, size: 0x8, addend: 0x0, symName: __ZNSt3__1neB8ue170006IPKN5Catch3PtrINS1_16IReporterFactoryEEEEEbRKNS_11__wrap_iterIT_EESB_, symObjAddr: 0x105C, symBinAddr: 0x100035CE8, symSize: 0x34 }
  - { offsetInCU: 0x5E224, offset: 0xBE05D, size: 0x8, addend: 0x0, symName: __ZNSt3__1neB8ue170006IPKN5Catch8TestCaseEEEbRKNS_11__wrap_iterIT_EES9_, symObjAddr: 0x1A30, symBinAddr: 0x1000366BC, symSize: 0x34 }
  - { offsetInCU: 0x5E92C, offset: 0xBE765, size: 0x8, addend: 0x0, symName: __ZNSt3__14endlB8ue170006IcNS_11char_traitsIcEEEERNS_13basic_ostreamIT_T0_EES7_, symObjAddr: 0x2AEC, symBinAddr: 0x100037778, symSize: 0x58 }
  - { offsetInCU: 0x5EFC8, offset: 0xBEE01, size: 0x8, addend: 0x0, symName: __ZNSt3__1plB8ue170006IcNS_11char_traitsIcEENS_9allocatorIcEEEENS_12basic_stringIT_T0_T1_EEOS9_PKS6_, symObjAddr: 0x4E80, symBinAddr: 0x100039A04, symSize: 0x40 }
  - { offsetInCU: 0x5F020, offset: 0xBEE59, size: 0x8, addend: 0x0, symName: __ZNSt3__1plB8ue170006IcNS_11char_traitsIcEENS_9allocatorIcEEEENS_12basic_stringIT_T0_T1_EEOS9_RKS9_, symObjAddr: 0x4EC0, symBinAddr: 0x100039A44, symSize: 0x40 }
  - { offsetInCU: 0x5F078, offset: 0xBEEB1, size: 0x8, addend: 0x0, symName: __ZNSt3__1plB8ue170006IcNS_11char_traitsIcEENS_9allocatorIcEEEENS_12basic_stringIT_T0_T1_EERKS9_PKS6_, symObjAddr: 0x4F00, symBinAddr: 0x100039A84, symSize: 0x11C }
  - { offsetInCU: 0x5F119, offset: 0xBEF52, size: 0x8, addend: 0x0, symName: __ZNSt3__1neB8ue170006IcNS_11char_traitsIcEENS_9allocatorIcEEEEbRKNS_12basic_stringIT_T0_T1_EESB_, symObjAddr: 0x513C, symBinAddr: 0x100039CC0, symSize: 0x34 }
  - { offsetInCU: 0x5F171, offset: 0xBEFAA, size: 0x8, addend: 0x0, symName: __ZNSt3__1neB8ue170006ERKNS_21__tree_const_iteratorINS_12basic_stringIcNS_11char_traitsIcEENS_9allocatorIcEEEEPNS_11__tree_nodeIS6_PvEElEESD_, symObjAddr: 0x58C0, symBinAddr: 0x10003A444, symSize: 0x34 }
  - { offsetInCU: 0x5F1AF, offset: 0xBEFE8, size: 0x8, addend: 0x0, symName: __ZNSt3__14swapB8ue170006IN5Catch12TestCaseInfo17SpecialPropertiesEEENS_9enable_ifIXaasr21is_move_constructibleIT_EE5valuesr18is_move_assignableIS5_EE5valueEvE4typeERS5_S8_, symObjAddr: 0x61AC, symBinAddr: 0x10003AD30, symSize: 0x3C }
  - { offsetInCU: 0x5F200, offset: 0xBF039, size: 0x8, addend: 0x0, symName: __ZNSt3__14swapB8ue170006IN5Catch14SourceLineInfoEEENS_9enable_ifIXaasr21is_move_constructibleIT_EE5valuesr18is_move_assignableIS4_EE5valueEvE4typeERS4_S7_, symObjAddr: 0x61E8, symBinAddr: 0x10003AD6C, symSize: 0x50 }
  - { offsetInCU: 0x5F250, offset: 0xBF089, size: 0x8, addend: 0x0, symName: __ZNSt3__1eqB8ue170006INS_9allocatorIcEEEEbRKNS_12basic_stringIcNS_11char_traitsIcEET_EES9_, symObjAddr: 0x633C, symBinAddr: 0x10003AEC0, symSize: 0x148 }
  - { offsetInCU: 0x5F2C3, offset: 0xBF0FC, size: 0x8, addend: 0x0, symName: __ZNSt3__1ltB8ue170006IcNS_11char_traitsIcEENS_9allocatorIcEEEEbRKNS_12basic_stringIT_T0_T1_EESB_, symObjAddr: 0x64B4, symBinAddr: 0x10003B038, symSize: 0x38 }
  - { offsetInCU: 0x5F31C, offset: 0xBF155, size: 0x8, addend: 0x0, symName: __ZNSt3__1neB8ue170006IPKN5Catch11MessageInfoEEEbRKNS_11__wrap_iterIT_EES9_, symObjAddr: 0x7024, symBinAddr: 0x10003BBA8, symSize: 0x34 }
  - { offsetInCU: 0x5F35F, offset: 0xBF198, size: 0x8, addend: 0x0, symName: __ZNSt3__19transformB8ue170006INS_11__wrap_iterIPcEES3_PFiiEEET0_T_S7_S6_T1_, symObjAddr: 0x7874, symBinAddr: 0x10003C3CC, symSize: 0x98 }
  - { offsetInCU: 0x5F3CF, offset: 0xBF208, size: 0x8, addend: 0x0, symName: __ZNSt3__1plB8ue170006IcNS_11char_traitsIcEENS_9allocatorIcEEEENS_12basic_stringIT_T0_T1_EEOS9_SA_, symObjAddr: 0x7D4C, symBinAddr: 0x10003C8A4, symSize: 0x40 }
  - { offsetInCU: 0x5F428, offset: 0xBF261, size: 0x8, addend: 0x0, symName: __ZNSt3__1lsB8ue170006INS_11char_traitsIcEEEERNS_13basic_ostreamIcT_EES6_RKNS_8__iom_t4IcEE, symObjAddr: 0x8A64, symBinAddr: 0x10003D584, symSize: 0x40 }
  - { offsetInCU: 0x5F46B, offset: 0xBF2A4, size: 0x8, addend: 0x0, symName: __ZNSt3__17setfillB8ue170006IcEENS_8__iom_t4IT_EES2_, symObjAddr: 0x8AA4, symBinAddr: 0x10003D5C4, symSize: 0x2C }
  - { offsetInCU: 0x5F49F, offset: 0xBF2D8, size: 0x8, addend: 0x0, symName: __ZNSt3__13hexB8ue170006ERNS_8ios_baseE, symObjAddr: 0x8B10, symBinAddr: 0x10003D630, symSize: 0x30 }
  - { offsetInCU: 0x5F4CD, offset: 0xBF306, size: 0x8, addend: 0x0, symName: __ZNSt3__1lsB8ue170006IcNS_11char_traitsIcEEEERNS_13basic_ostreamIT_T0_EES7_RKNS_8__iom_t6E, symObjAddr: 0x8B40, symBinAddr: 0x10003D660, symSize: 0x40 }
  - { offsetInCU: 0x5F51C, offset: 0xBF355, size: 0x8, addend: 0x0, symName: __ZNSt3__14setwB8ue170006Ei, symObjAddr: 0x8B80, symBinAddr: 0x10003D6A0, symSize: 0x2C }
  - { offsetInCU: 0x5F54A, offset: 0xBF383, size: 0x8, addend: 0x0, symName: __ZNSt3__1eqB8ue170006IcNS_11char_traitsIcEENS_9allocatorIcEEEEbRKNS_12basic_stringIT_T0_T1_EEPKS6_, symObjAddr: 0x9DEC, symBinAddr: 0x10003E90C, symSize: 0xAC }
  - { offsetInCU: 0x5F5B1, offset: 0xBF3EA, size: 0x8, addend: 0x0, symName: __ZNSt3__1plB8ue170006IcNS_11char_traitsIcEENS_9allocatorIcEEEENS_12basic_stringIT_T0_T1_EERKS9_SB_, symObjAddr: 0xAD88, symBinAddr: 0x10003F87C, symSize: 0x134 }
  - { offsetInCU: 0x5F652, offset: 0xBF48B, size: 0x8, addend: 0x0, symName: __ZNSt3__1neB8ue170006IcNS_11char_traitsIcEENS_9allocatorIcEEEEbRKNS_12basic_stringIT_T0_T1_EEPKS6_, symObjAddr: 0xAEBC, symBinAddr: 0x10003F9B0, symSize: 0x34 }
  - { offsetInCU: 0x5F6AA, offset: 0xBF4E3, size: 0x8, addend: 0x0, symName: __ZNSt3__1neB8ue170006ERKNS_20__map_const_iteratorINS_21__tree_const_iteratorINS_12__value_typeINS_12basic_stringIcNS_11char_traitsIcEENS_9allocatorIcEEEEN5Catch8TagAliasEEEPNS_11__tree_nodeISB_PvEElEEEESJ_, symObjAddr: 0xB120, symBinAddr: 0x10003FC14, symSize: 0x30 }
  - { offsetInCU: 0x5F7C7, offset: 0xBF600, size: 0x8, addend: 0x0, symName: __ZNSt3__19make_pairB8ue170006IRPKcN5Catch8TagAliasEEENS_4pairINS_18__unwrap_ref_decayIT_E4typeENS7_IT0_E4typeEEEOS8_OSB_, symObjAddr: 0xBC38, symBinAddr: 0x10004072C, symSize: 0x40 }
  - { offsetInCU: 0x5F816, offset: 0xBF64F, size: 0x8, addend: 0x0, symName: __ZNSt3__1lsB8ue170006INS_11char_traitsIcEEEERNS_13basic_ostreamIcT_EES6_c, symObjAddr: 0xDF5C, symBinAddr: 0x1000429A8, symSize: 0x34 }
  - { offsetInCU: 0x5FA67, offset: 0xBF8A0, size: 0x8, addend: 0x0, symName: __ZNSt3__1neB8ue170006ERKNS_14__map_iteratorINS_15__tree_iteratorINS_12__value_typeIiNS_6vectorINS_4pairIidEENS_9allocatorIS5_EEEEEEPNS_11__tree_nodeIS9_PvEElEEEESH_, symObjAddr: 0xF684, symBinAddr: 0x100043B2C, symSize: 0x30 }
  - { offsetInCU: 0x5FAA5, offset: 0xBF8DE, size: 0x8, addend: 0x0, symName: __ZNSt3__1neB8ue170006IPKNS_4pairIidEEEEbRKNS_11__wrap_iterIT_EES9_, symObjAddr: 0xF73C, symBinAddr: 0x100043BE4, symSize: 0x34 }
  - { offsetInCU: 0x5FAE7, offset: 0xBF920, size: 0x8, addend: 0x0, symName: __ZNSt3__1neB8ue170006ERKNS_14__map_iteratorINS_15__tree_iteratorINS_12__value_typeIiiEEPNS_11__tree_nodeIS3_PvEElEEEESB_, symObjAddr: 0x104D8, symBinAddr: 0x100044820, symSize: 0x30 }
  - { offsetInCU: 0x5FB25, offset: 0xBF95E, size: 0x8, addend: 0x0, symName: __ZNSt3__1neB8ue170006IPdEEbRKNS_11__wrap_iterIT_EES6_, symObjAddr: 0x105E0, symBinAddr: 0x100044928, symSize: 0x34 }
  - { offsetInCU: 0x603EE, offset: 0xC0227, size: 0x8, addend: 0x0, symName: __ZNSt3__122__make_exception_guardB8ue170006INS_6vectorINS_12basic_stringIcNS_11char_traitsIcEENS_9allocatorIcEEEENS5_IS7_EEE16__destroy_vectorEEENS_28__exception_guard_exceptionsIT_EESC_, symObjAddr: 0x16888, symBinAddr: 0x10004A810, symSize: 0x40 }
  - { offsetInCU: 0x60423, offset: 0xC025C, size: 0x8, addend: 0x0, symName: __ZNSt3__119__allocate_at_leastB8ue170006INS_9allocatorINS_12basic_stringIcNS_11char_traitsIcEENS1_IcEEEEEEEENS_19__allocation_resultINS_16allocator_traitsIT_E7pointerEEERSA_m, symObjAddr: 0x16B78, symBinAddr: 0x10004AB00, symSize: 0x40 }
  - { offsetInCU: 0x60466, offset: 0xC029F, size: 0x8, addend: 0x0, symName: __ZNSt3__112__to_addressB8ue170006INS_12basic_stringIcNS_11char_traitsIcEENS_9allocatorIcEEEEEEPT_S8_, symObjAddr: 0x17094, symBinAddr: 0x10004ADE8, symSize: 0x14 }
  - { offsetInCU: 0x6049A, offset: 0xC02D3, size: 0x8, addend: 0x0, symName: __ZNSt3__130__uninitialized_allocator_copyB8ue170006INS_9allocatorINS_12basic_stringIcNS_11char_traitsIcEENS1_IcEEEEEEPS6_S8_S8_EET2_RT_T0_T1_S9_, symObjAddr: 0x17144, symBinAddr: 0x10004AE98, symSize: 0x80 }
  - { offsetInCU: 0x60538, offset: 0xC0371, size: 0x8, addend: 0x0, symName: __ZNSt3__114__unwrap_rangeB8ue170006IPNS_12basic_stringIcNS_11char_traitsIcEENS_9allocatorIcEEEES7_EENS_4pairIT0_S9_EET_SB_, symObjAddr: 0x1723C, symBinAddr: 0x10004AF90, symSize: 0x60 }
  - { offsetInCU: 0x60583, offset: 0xC03BC, size: 0x8, addend: 0x0, symName: __ZNSt3__135__uninitialized_allocator_copy_implB8ue170006INS_9allocatorINS_12basic_stringIcNS_11char_traitsIcEENS1_IcEEEEEEPS6_S8_S8_EET2_RT_T0_T1_S9_, symObjAddr: 0x1729C, symBinAddr: 0x10004AFF0, symSize: 0xF4 }
  - { offsetInCU: 0x60622, offset: 0xC045B, size: 0x8, addend: 0x0, symName: __ZNSt3__113__unwrap_iterB8ue170006IPNS_12basic_stringIcNS_11char_traitsIcEENS_9allocatorIcEEEENS_18__unwrap_iter_implIS7_Lb1EEELi0EEEDTclsrT0_8__unwrapclsr3stdE7declvalIT_EEEESB_, symObjAddr: 0x17390, symBinAddr: 0x10004B0E4, symSize: 0x24 }
  - { offsetInCU: 0x60666, offset: 0xC049F, size: 0x8, addend: 0x0, symName: __ZNSt3__113__rewrap_iterB8ue170006IPNS_12basic_stringIcNS_11char_traitsIcEENS_9allocatorIcEEEES7_NS_18__unwrap_iter_implIS7_Lb1EEEEET_SA_T0_, symObjAddr: 0x173B4, symBinAddr: 0x10004B108, symSize: 0x3C }
  - { offsetInCU: 0x606BA, offset: 0xC04F3, size: 0x8, addend: 0x0, symName: __ZNSt3__19make_pairB8ue170006IPNS_12basic_stringIcNS_11char_traitsIcEENS_9allocatorIcEEEES7_EENS_4pairINS_18__unwrap_ref_decayIT_E4typeENS9_IT0_E4typeEEEOSA_OSD_, symObjAddr: 0x173F0, symBinAddr: 0x10004B144, symSize: 0x38 }
  - { offsetInCU: 0x607DE, offset: 0xC0617, size: 0x8, addend: 0x0, symName: __ZNSt3__122__make_exception_guardB8ue170006INS_29_AllocatorDestroyRangeReverseINS_9allocatorINS_12basic_stringIcNS_11char_traitsIcEENS2_IcEEEEEEPS7_EEEENS_28__exception_guard_exceptionsIT_EESC_, symObjAddr: 0x17498, symBinAddr: 0x10004B1EC, symSize: 0x4C }
  - { offsetInCU: 0x60813, offset: 0xC064C, size: 0x8, addend: 0x0, symName: __ZNSt3__119__allocator_destroyB8ue170006INS_9allocatorINS_12basic_stringIcNS_11char_traitsIcEENS1_IcEEEEEENS_16reverse_iteratorIPS6_EESA_EEvRT_T0_T1_, symObjAddr: 0x17728, symBinAddr: 0x10004B47C, symSize: 0x70 }
  - { offsetInCU: 0x60877, offset: 0xC06B0, size: 0x8, addend: 0x0, symName: __ZNSt3__1neB8ue170006IPNS_12basic_stringIcNS_11char_traitsIcEENS_9allocatorIcEEEES7_EEbRKNS_16reverse_iteratorIT_EERKNS8_IT0_EE, symObjAddr: 0x177CC, symBinAddr: 0x10004B520, symSize: 0x48 }
  - { offsetInCU: 0x608C3, offset: 0xC06FC, size: 0x8, addend: 0x0, symName: __ZNSt3__112__to_addressB8ue170006INS_16reverse_iteratorIPNS_12basic_stringIcNS_11char_traitsIcEENS_9allocatorIcEEEEEEvEEu7__decayIDTclsr19__to_address_helperIT_EE6__callclsr3stdE7declvalIRKSA_EEEEESC_, symObjAddr: 0x17840, symBinAddr: 0x10004B594, symSize: 0x24 }
  - { offsetInCU: 0x60975, offset: 0xC07AE, size: 0x8, addend: 0x0, symName: __ZNSt3__1eqB8ue170006IPKNS_12basic_stringIcNS_11char_traitsIcEENS_9allocatorIcEEEEEEbRKNS_11__wrap_iterIT_EESD_, symObjAddr: 0x17DC0, symBinAddr: 0x10004BA98, symSize: 0x48 }
  - { offsetInCU: 0x609B8, offset: 0xC07F1, size: 0x8, addend: 0x0, symName: __ZNSt3__1eqB8ue170006IPKN5Catch3PtrINS1_16IReporterFactoryEEEEEbRKNS_11__wrap_iterIT_EESB_, symObjAddr: 0x17E78, symBinAddr: 0x10004BB50, symSize: 0x48 }
  - { offsetInCU: 0x609FB, offset: 0xC0834, size: 0x8, addend: 0x0, symName: __ZNSt3__112__to_addressB8ue170006IPN5Catch16TestCaseTracking8ITrackerEEEPT_S6_, symObjAddr: 0x1981C, symBinAddr: 0x10004D4F4, symSize: 0x14 }
  - { offsetInCU: 0x60A30, offset: 0xC0869, size: 0x8, addend: 0x0, symName: __ZNSt3__112__to_addressB8ue170006IN5Catch14SectionEndInfoEEEPT_S4_, symObjAddr: 0x19D04, symBinAddr: 0x10004D9DC, symSize: 0x14 }
  - { offsetInCU: 0x60A65, offset: 0xC089E, size: 0x8, addend: 0x0, symName: __ZNSt3__122__make_exception_guardB8ue170006INS_6vectorIN5Catch11MessageInfoENS_9allocatorIS3_EEE16__destroy_vectorEEENS_28__exception_guard_exceptionsIT_EES9_, symObjAddr: 0x1A654, symBinAddr: 0x10004E32C, symSize: 0x40 }
  - { offsetInCU: 0x60A9A, offset: 0xC08D3, size: 0x8, addend: 0x0, symName: __ZNSt3__119__allocate_at_leastB8ue170006INS_9allocatorIN5Catch11MessageInfoEEEEENS_19__allocation_resultINS_16allocator_traitsIT_E7pointerEEERS7_m, symObjAddr: 0x1A944, symBinAddr: 0x10004E61C, symSize: 0x40 }
  - { offsetInCU: 0x60ADD, offset: 0xC0916, size: 0x8, addend: 0x0, symName: __ZNSt3__112__to_addressB8ue170006IN5Catch11MessageInfoEEEPT_S4_, symObjAddr: 0x1AC2C, symBinAddr: 0x10004E904, symSize: 0x14 }
  - { offsetInCU: 0x60B11, offset: 0xC094A, size: 0x8, addend: 0x0, symName: __ZNSt3__130__uninitialized_allocator_copyB8ue170006INS_9allocatorIN5Catch11MessageInfoEEEPS3_S5_S5_EET2_RT_T0_T1_S6_, symObjAddr: 0x1ACDC, symBinAddr: 0x10004E9B4, symSize: 0x80 }
  - { offsetInCU: 0x60BAF, offset: 0xC09E8, size: 0x8, addend: 0x0, symName: __ZNSt3__114__unwrap_rangeB8ue170006IPN5Catch11MessageInfoES3_EENS_4pairIT0_S5_EET_S7_, symObjAddr: 0x1ADD4, symBinAddr: 0x10004EAAC, symSize: 0x60 }
  - { offsetInCU: 0x60BFA, offset: 0xC0A33, size: 0x8, addend: 0x0, symName: __ZNSt3__135__uninitialized_allocator_copy_implB8ue170006INS_9allocatorIN5Catch11MessageInfoEEEPS3_S5_S5_EET2_RT_T0_T1_S6_, symObjAddr: 0x1AE34, symBinAddr: 0x10004EB0C, symSize: 0xF4 }
  - { offsetInCU: 0x60C99, offset: 0xC0AD2, size: 0x8, addend: 0x0, symName: __ZNSt3__113__unwrap_iterB8ue170006IPN5Catch11MessageInfoENS_18__unwrap_iter_implIS3_Lb1EEELi0EEEDTclsrT0_8__unwrapclsr3stdE7declvalIT_EEEES7_, symObjAddr: 0x1AF28, symBinAddr: 0x10004EC00, symSize: 0x24 }
  - { offsetInCU: 0x60CDD, offset: 0xC0B16, size: 0x8, addend: 0x0, symName: __ZNSt3__113__rewrap_iterB8ue170006IPN5Catch11MessageInfoES3_NS_18__unwrap_iter_implIS3_Lb1EEEEET_S6_T0_, symObjAddr: 0x1AF4C, symBinAddr: 0x10004EC24, symSize: 0x3C }
  - { offsetInCU: 0x60D31, offset: 0xC0B6A, size: 0x8, addend: 0x0, symName: __ZNSt3__19make_pairB8ue170006IPN5Catch11MessageInfoES3_EENS_4pairINS_18__unwrap_ref_decayIT_E4typeENS5_IT0_E4typeEEEOS6_OS9_, symObjAddr: 0x1AF88, symBinAddr: 0x10004EC60, symSize: 0x38 }
  - { offsetInCU: 0x60E55, offset: 0xC0C8E, size: 0x8, addend: 0x0, symName: __ZNSt3__122__make_exception_guardB8ue170006INS_29_AllocatorDestroyRangeReverseINS_9allocatorIN5Catch11MessageInfoEEEPS4_EEEENS_28__exception_guard_exceptionsIT_EES9_, symObjAddr: 0x1B030, symBinAddr: 0x10004ED08, symSize: 0x4C }
  - { offsetInCU: 0x60E8A, offset: 0xC0CC3, size: 0x8, addend: 0x0, symName: __ZNSt3__119__allocator_destroyB8ue170006INS_9allocatorIN5Catch11MessageInfoEEENS_16reverse_iteratorIPS3_EES7_EEvRT_T0_T1_, symObjAddr: 0x1B2C0, symBinAddr: 0x10004EF98, symSize: 0x70 }
  - { offsetInCU: 0x60EEE, offset: 0xC0D27, size: 0x8, addend: 0x0, symName: __ZNSt3__1neB8ue170006IPN5Catch11MessageInfoES3_EEbRKNS_16reverse_iteratorIT_EERKNS4_IT0_EE, symObjAddr: 0x1B364, symBinAddr: 0x10004F03C, symSize: 0x48 }
  - { offsetInCU: 0x60F3A, offset: 0xC0D73, size: 0x8, addend: 0x0, symName: __ZNSt3__112__to_addressB8ue170006INS_16reverse_iteratorIPN5Catch11MessageInfoEEEvEEu7__decayIDTclsr19__to_address_helperIT_EE6__callclsr3stdE7declvalIRKS6_EEEEES8_, symObjAddr: 0x1B3D8, symBinAddr: 0x10004F0B0, symSize: 0x24 }
  - { offsetInCU: 0x60FEB, offset: 0xC0E24, size: 0x8, addend: 0x0, symName: __ZNSt3__142__uninitialized_allocator_move_if_noexceptB8ue170006INS_9allocatorIN5Catch11MessageInfoEEENS_16reverse_iteratorIPS3_EES7_S7_EET2_RT_T0_T1_S8_, symObjAddr: 0x1BFB4, symBinAddr: 0x10004FC0C, symSize: 0x11C }
  - { offsetInCU: 0x6108C, offset: 0xC0EC5, size: 0x8, addend: 0x0, symName: __ZNSt3__14swapB8ue170006IPN5Catch11MessageInfoEEENS_9enable_ifIXaasr21is_move_constructibleIT_EE5valuesr18is_move_assignableIS5_EE5valueEvE4typeERS5_S8_, symObjAddr: 0x1C0D0, symBinAddr: 0x10004FD28, symSize: 0x3C }
  - { offsetInCU: 0x610DD, offset: 0xC0F16, size: 0x8, addend: 0x0, symName: __ZNSt3__122__make_exception_guardB8ue170006INS_29_AllocatorDestroyRangeReverseINS_9allocatorIN5Catch11MessageInfoEEENS_16reverse_iteratorIPS4_EEEEEENS_28__exception_guard_exceptionsIT_EESB_, symObjAddr: 0x1C10C, symBinAddr: 0x10004FD64, symSize: 0x4C }
  - { offsetInCU: 0x61112, offset: 0xC0F4B, size: 0x8, addend: 0x0, symName: __ZNSt3__119__allocator_destroyB8ue170006INS_9allocatorIN5Catch11MessageInfoEEENS_16reverse_iteratorINS5_IPS3_EEEES8_EEvRT_T0_T1_, symObjAddr: 0x1C600, symBinAddr: 0x1000501E0, symSize: 0x70 }
  - { offsetInCU: 0x61178, offset: 0xC0FB1, size: 0x8, addend: 0x0, symName: __ZNSt3__1neB8ue170006INS_16reverse_iteratorIPN5Catch11MessageInfoEEES5_EEbRKNS1_IT_EERKNS1_IT0_EE, symObjAddr: 0x1C6AC, symBinAddr: 0x10005028C, symSize: 0x60 }
  - { offsetInCU: 0x611C4, offset: 0xC0FFD, size: 0x8, addend: 0x0, symName: __ZNSt3__112__to_addressB8ue170006INS_16reverse_iteratorINS1_IPN5Catch11MessageInfoEEEEEvEEu7__decayIDTclsr19__to_address_helperIT_EE6__callclsr3stdE7declvalIRKS7_EEEEES9_, symObjAddr: 0x1C70C, symBinAddr: 0x1000502EC, symSize: 0x24 }
  - { offsetInCU: 0x61223, offset: 0xC105C, size: 0x8, addend: 0x0, symName: __ZNSt3__119__allocate_at_leastB8ue170006INS_9allocatorIPN5Catch16TestCaseTracking8ITrackerEEEEENS_19__allocation_resultINS_16allocator_traitsIT_E7pointerEEERS9_m, symObjAddr: 0x1DB74, symBinAddr: 0x100051754, symSize: 0x40 }
  - { offsetInCU: 0x61265, offset: 0xC109E, size: 0x8, addend: 0x0, symName: __ZNSt3__142__uninitialized_allocator_move_if_noexceptB8ue170006INS_9allocatorIPN5Catch16TestCaseTracking8ITrackerEEENS_16reverse_iteratorIPS5_EES9_S5_vEET1_RT_T0_SD_SA_, symObjAddr: 0x1DD28, symBinAddr: 0x100051908, symSize: 0x78 }
  - { offsetInCU: 0x612E3, offset: 0xC111C, size: 0x8, addend: 0x0, symName: __ZNSt3__14swapB8ue170006IPPN5Catch16TestCaseTracking8ITrackerEEENS_9enable_ifIXaasr21is_move_constructibleIT_EE5valuesr18is_move_assignableIS7_EE5valueEvE4typeERS7_SA_, symObjAddr: 0x1DDEC, symBinAddr: 0x1000519CC, symSize: 0x3C }
  - { offsetInCU: 0x61334, offset: 0xC116D, size: 0x8, addend: 0x0, symName: __ZNSt3__14moveB8ue170006INS_16reverse_iteratorIPPN5Catch16TestCaseTracking8ITrackerEEES7_EET0_T_S9_S8_, symObjAddr: 0x1DED4, symBinAddr: 0x100051AB4, symSize: 0x78 }
  - { offsetInCU: 0x6138E, offset: 0xC11C7, size: 0x8, addend: 0x0, symName: __ZNSt3__16__moveB8ue170006INS_17_ClassicAlgPolicyENS_16reverse_iteratorIPPN5Catch16TestCaseTracking8ITrackerEEES8_S8_EENS_4pairIT0_T2_EESA_T1_SB_, symObjAddr: 0x1DF4C, symBinAddr: 0x100051B2C, symSize: 0x64 }
  - { offsetInCU: 0x613FA, offset: 0xC1233, size: 0x8, addend: 0x0, symName: __ZNSt3__123__dispatch_copy_or_moveB8ue170006INS_17_ClassicAlgPolicyENS_11__move_loopIS1_EENS_14__move_trivialENS_16reverse_iteratorIPPN5Catch16TestCaseTracking8ITrackerEEESB_SB_EENS_4pairIT2_T4_EESD_T3_SE_, symObjAddr: 0x1DFB0, symBinAddr: 0x100051B90, symSize: 0x64 }
  - { offsetInCU: 0x61478, offset: 0xC12B1, size: 0x8, addend: 0x0, symName: __ZNSt3__121__unwrap_and_dispatchB8ue170006INS_10__overloadINS_11__move_loopINS_17_ClassicAlgPolicyEEENS_14__move_trivialEEENS_16reverse_iteratorIPPN5Catch16TestCaseTracking8ITrackerEEESD_SD_Li0EEENS_4pairIT0_T2_EESF_T1_SG_, symObjAddr: 0x1E014, symBinAddr: 0x100051BF4, symSize: 0x12C }
  - { offsetInCU: 0x61508, offset: 0xC1341, size: 0x8, addend: 0x0, symName: __ZNSt3__114__unwrap_rangeB8ue170006INS_16reverse_iteratorIPPN5Catch16TestCaseTracking8ITrackerEEES7_EENS_4pairIT0_S9_EET_SB_, symObjAddr: 0x1E140, symBinAddr: 0x100051D20, symSize: 0x84 }
  - { offsetInCU: 0x61737, offset: 0xC1570, size: 0x8, addend: 0x0, symName: __ZNSt3__113__unwrap_iterB8ue170006INS_16reverse_iteratorIPPN5Catch16TestCaseTracking8ITrackerEEENS_18__unwrap_iter_implIS7_Lb0EEELi0EEEDTclsrT0_8__unwrapclsr3stdE7declvalIT_EEEESB_, symObjAddr: 0x1E264, symBinAddr: 0x100051E44, symSize: 0x44 }
  - { offsetInCU: 0x6177A, offset: 0xC15B3, size: 0x8, addend: 0x0, symName: __ZNSt3__19make_pairB8ue170006INS_16reverse_iteratorIPPN5Catch16TestCaseTracking8ITrackerEEES7_EENS_4pairINS_18__unwrap_ref_decayIT_E4typeENS9_IT0_E4typeEEEOSA_OSD_, symObjAddr: 0x1E2A8, symBinAddr: 0x100051E88, symSize: 0x38 }
  - { offsetInCU: 0x617CA, offset: 0xC1603, size: 0x8, addend: 0x0, symName: __ZNSt3__114__rewrap_rangeB8ue170006INS_16reverse_iteratorIPPN5Catch16TestCaseTracking8ITrackerEEES7_EET_S8_T0_, symObjAddr: 0x1E2E0, symBinAddr: 0x100051EC0, symSize: 0x5C }
  - { offsetInCU: 0x61816, offset: 0xC164F, size: 0x8, addend: 0x0, symName: __ZNSt3__113__rewrap_iterB8ue170006INS_16reverse_iteratorIPPN5Catch16TestCaseTracking8ITrackerEEES7_NS_18__unwrap_iter_implIS7_Lb0EEEEET_SA_T0_, symObjAddr: 0x1E33C, symBinAddr: 0x100051F1C, symSize: 0x74 }
  - { offsetInCU: 0x6186B, offset: 0xC16A4, size: 0x8, addend: 0x0, symName: __ZNSt3__1neB8ue170006IPPN5Catch16TestCaseTracking8ITrackerES5_EEbRKNS_16reverse_iteratorIT_EERKNS6_IT0_EE, symObjAddr: 0x1E3B0, symBinAddr: 0x100051F90, symSize: 0x48 }
  - { offsetInCU: 0x61AF3, offset: 0xC192C, size: 0x8, addend: 0x0, symName: __ZNSt3__119__allocate_at_leastB8ue170006INS_9allocatorIN5Catch14SectionEndInfoEEEEENS_19__allocation_resultINS_16allocator_traitsIT_E7pointerEEERS7_m, symObjAddr: 0x1F3A8, symBinAddr: 0x100052F88, symSize: 0x40 }
  - { offsetInCU: 0x61B35, offset: 0xC196E, size: 0x8, addend: 0x0, symName: __ZNSt3__142__uninitialized_allocator_move_if_noexceptB8ue170006INS_9allocatorIN5Catch14SectionEndInfoEEENS_16reverse_iteratorIPS3_EES7_S7_EET2_RT_T0_T1_S8_, symObjAddr: 0x1F560, symBinAddr: 0x100053140, symSize: 0x12C }
  - { offsetInCU: 0x61BD6, offset: 0xC1A0F, size: 0x8, addend: 0x0, symName: __ZNSt3__14swapB8ue170006IPN5Catch14SectionEndInfoEEENS_9enable_ifIXaasr21is_move_constructibleIT_EE5valuesr18is_move_assignableIS5_EE5valueEvE4typeERS5_S8_, symObjAddr: 0x1F6D8, symBinAddr: 0x1000532B8, symSize: 0x3C }
  - { offsetInCU: 0x61C27, offset: 0xC1A60, size: 0x8, addend: 0x0, symName: __ZNSt3__122__make_exception_guardB8ue170006INS_29_AllocatorDestroyRangeReverseINS_9allocatorIN5Catch14SectionEndInfoEEENS_16reverse_iteratorIPS4_EEEEEENS_28__exception_guard_exceptionsIT_EESB_, symObjAddr: 0x1F7DC, symBinAddr: 0x1000533BC, symSize: 0x4C }
  - { offsetInCU: 0x61C5D, offset: 0xC1A96, size: 0x8, addend: 0x0, symName: __ZNSt3__1neB8ue170006IPN5Catch14SectionEndInfoES3_EEbRKNS_16reverse_iteratorIT_EERKNS4_IT0_EE, symObjAddr: 0x1F86C, symBinAddr: 0x10005344C, symSize: 0x48 }
  - { offsetInCU: 0x61CA9, offset: 0xC1AE2, size: 0x8, addend: 0x0, symName: __ZNSt3__112__to_addressB8ue170006INS_16reverse_iteratorIPN5Catch14SectionEndInfoEEEvEEu7__decayIDTclsr19__to_address_helperIT_EE6__callclsr3stdE7declvalIRKS6_EEEEES8_, symObjAddr: 0x1F8E8, symBinAddr: 0x1000534C8, symSize: 0x24 }
  - { offsetInCU: 0x61D07, offset: 0xC1B40, size: 0x8, addend: 0x0, symName: __ZNSt3__119__allocator_destroyB8ue170006INS_9allocatorIN5Catch14SectionEndInfoEEENS_16reverse_iteratorINS5_IPS3_EEEES8_EEvRT_T0_T1_, symObjAddr: 0x1FCD4, symBinAddr: 0x1000538B4, symSize: 0x70 }
  - { offsetInCU: 0x61D6D, offset: 0xC1BA6, size: 0x8, addend: 0x0, symName: __ZNSt3__1neB8ue170006INS_16reverse_iteratorIPN5Catch14SectionEndInfoEEES5_EEbRKNS1_IT_EERKNS1_IT0_EE, symObjAddr: 0x1FD80, symBinAddr: 0x100053960, symSize: 0x60 }
  - { offsetInCU: 0x61DB9, offset: 0xC1BF2, size: 0x8, addend: 0x0, symName: __ZNSt3__112__to_addressB8ue170006INS_16reverse_iteratorINS1_IPN5Catch14SectionEndInfoEEEEEvEEu7__decayIDTclsr19__to_address_helperIT_EE6__callclsr3stdE7declvalIRKS7_EEEEES9_, symObjAddr: 0x1FDE0, symBinAddr: 0x1000539C0, symSize: 0x24 }
  - { offsetInCU: 0x61E18, offset: 0xC1C51, size: 0x8, addend: 0x0, symName: __ZNSt3__16removeB8ue170006INS_11__wrap_iterIPN5Catch11MessageInfoEEES3_EET_S6_S6_RKT0_, symObjAddr: 0x20228, symBinAddr: 0x100053E08, symSize: 0xF4 }
  - { offsetInCU: 0x61E8E, offset: 0xC1CC7, size: 0x8, addend: 0x0, symName: __ZNSt3__1miB8ue170006IPKN5Catch11MessageInfoEPS2_EEDTmicldtfp_4baseEcldtfp0_4baseEERKNS_11__wrap_iterIT_EERKNS7_IT0_EE, symObjAddr: 0x203B8, symBinAddr: 0x100053F98, symSize: 0x48 }
  - { offsetInCU: 0x61EDA, offset: 0xC1D13, size: 0x8, addend: 0x0, symName: __ZNSt3__14moveB8ue170006IPN5Catch11MessageInfoES3_EET0_T_S5_S4_, symObjAddr: 0x2044C, symBinAddr: 0x10005402C, symSize: 0x40 }
  - { offsetInCU: 0x61F34, offset: 0xC1D6D, size: 0x8, addend: 0x0, symName: __ZNSt3__1miB8ue170006IPKN5Catch11MessageInfoES4_EEDTmicldtfp_4baseEcldtfp0_4baseEERKNS_11__wrap_iterIT_EERKNS6_IT0_EE, symObjAddr: 0x2048C, symBinAddr: 0x10005406C, symSize: 0x48 }
  - { offsetInCU: 0x61F80, offset: 0xC1DB9, size: 0x8, addend: 0x0, symName: __ZNSt3__16__moveB8ue170006INS_17_ClassicAlgPolicyEPN5Catch11MessageInfoES4_S4_EENS_4pairIT0_T2_EES6_T1_S7_, symObjAddr: 0x20534, symBinAddr: 0x100054114, symSize: 0x44 }
  - { offsetInCU: 0x61FEC, offset: 0xC1E25, size: 0x8, addend: 0x0, symName: __ZNSt3__123__dispatch_copy_or_moveB8ue170006INS_17_ClassicAlgPolicyENS_11__move_loopIS1_EENS_14__move_trivialEPN5Catch11MessageInfoES7_S7_EENS_4pairIT2_T4_EES9_T3_SA_, symObjAddr: 0x20578, symBinAddr: 0x100054158, symSize: 0x44 }
  - { offsetInCU: 0x6206A, offset: 0xC1EA3, size: 0x8, addend: 0x0, symName: __ZNSt3__121__unwrap_and_dispatchB8ue170006INS_10__overloadINS_11__move_loopINS_17_ClassicAlgPolicyEEENS_14__move_trivialEEEPN5Catch11MessageInfoES9_S9_Li0EEENS_4pairIT0_T2_EESB_T1_SC_, symObjAddr: 0x205BC, symBinAddr: 0x10005419C, symSize: 0xB4 }
  - { offsetInCU: 0x620F8, offset: 0xC1F31, size: 0x8, addend: 0x0, symName: __ZNSt3__114__rewrap_rangeB8ue170006IPN5Catch11MessageInfoES3_EET_S4_T0_, symObjAddr: 0x20700, symBinAddr: 0x1000542E0, symSize: 0x2C }
  - { offsetInCU: 0x62168, offset: 0xC1FA1, size: 0x8, addend: 0x0, symName: __ZNSt3__14findB8ue170006INS_11__wrap_iterIPN5Catch11MessageInfoEEES3_EET_S6_S6_RKT0_, symObjAddr: 0x20820, symBinAddr: 0x100054400, symSize: 0x78 }
  - { offsetInCU: 0x621D0, offset: 0xC2009, size: 0x8, addend: 0x0, symName: __ZNSt3__1neB8ue170006IPN5Catch11MessageInfoEEEbRKNS_11__wrap_iterIT_EES8_, symObjAddr: 0x20898, symBinAddr: 0x100054478, symSize: 0x34 }
  - { offsetInCU: 0x62213, offset: 0xC204C, size: 0x8, addend: 0x0, symName: __ZNSt3__113__rewrap_iterB8ue170006INS_11__wrap_iterIPN5Catch11MessageInfoEEES4_NS_18__unwrap_iter_implIS5_Lb1EEEEET_S8_T0_, symObjAddr: 0x20934, symBinAddr: 0x100054514, symSize: 0x4C }
  - { offsetInCU: 0x62268, offset: 0xC20A1, size: 0x8, addend: 0x0, symName: __ZNSt3__111__find_implB8ue170006IPN5Catch11MessageInfoES3_S2_NS_10__identityEEET_S5_T0_RKT1_RT2_, symObjAddr: 0x20980, symBinAddr: 0x100054560, symSize: 0x7C }
  - { offsetInCU: 0x622E2, offset: 0xC211B, size: 0x8, addend: 0x0, symName: __ZNSt3__113__unwrap_iterB8ue170006INS_11__wrap_iterIPN5Catch11MessageInfoEEENS_18__unwrap_iter_implIS5_Lb1EEELi0EEEDTclsrT0_8__unwrapclsr3stdE7declvalIT_EEEES9_, symObjAddr: 0x209FC, symBinAddr: 0x1000545DC, symSize: 0x2C }
  - { offsetInCU: 0x62379, offset: 0xC21B2, size: 0x8, addend: 0x0, symName: __ZNSt3__112__to_addressB8ue170006INS_11__wrap_iterIPN5Catch11MessageInfoEEEvEEu7__decayIDTclsr19__to_address_helperIT_EE6__callclsr3stdE7declvalIRKS6_EEEEES8_, symObjAddr: 0x20AC0, symBinAddr: 0x1000546A0, symSize: 0x24 }
  - { offsetInCU: 0x62453, offset: 0xC228C, size: 0x8, addend: 0x0, symName: __ZNSt3__18__invokeB8ue170006IRNS_10__identityEJRN5Catch11MessageInfoEEEEDTclclsr3stdE7declvalIT_EEspclsr3stdE7declvalIT0_EEEEOS6_DpOS7_, symObjAddr: 0x20B70, symBinAddr: 0x100054750, symSize: 0x2C }
  - { offsetInCU: 0x624F5, offset: 0xC232E, size: 0x8, addend: 0x0, symName: __ZNSt3__1eqB8ue170006IPN5Catch11MessageInfoEEEbRKNS_11__wrap_iterIT_EES8_, symObjAddr: 0x20BDC, symBinAddr: 0x1000547BC, symSize: 0x48 }
  - { offsetInCU: 0x62538, offset: 0xC2371, size: 0x8, addend: 0x0, symName: __ZNSt3__1neB8ue170006INS_11__wrap_iterIPKN5Catch14SectionEndInfoEEES6_EEbRKNS_16reverse_iteratorIT_EERKNS7_IT0_EE, symObjAddr: 0x20EF0, symBinAddr: 0x100054AD0, symSize: 0x54 }
  - { offsetInCU: 0x62584, offset: 0xC23BD, size: 0x8, addend: 0x0, symName: __ZNSt3__1neB8ue170006IPKN5Catch14SectionEndInfoEEEbRKNS_11__wrap_iterIT_EES9_, symObjAddr: 0x21250, symBinAddr: 0x100054E30, symSize: 0x34 }
  - { offsetInCU: 0x625C7, offset: 0xC2400, size: 0x8, addend: 0x0, symName: __ZNSt3__1eqB8ue170006IPKN5Catch14SectionEndInfoEEEbRKNS_11__wrap_iterIT_EES9_, symObjAddr: 0x212A4, symBinAddr: 0x100054E84, symSize: 0x48 }
  - { offsetInCU: 0x6260A, offset: 0xC2443, size: 0x8, addend: 0x0, symName: __ZNSt3__122__make_exception_guardB8ue170006INS_6vectorIN5Catch8TestSpec6FilterENS_9allocatorIS4_EEE16__destroy_vectorEEENS_28__exception_guard_exceptionsIT_EESA_, symObjAddr: 0x219A0, symBinAddr: 0x100055580, symSize: 0x40 }
  - { offsetInCU: 0x6263F, offset: 0xC2478, size: 0x8, addend: 0x0, symName: __ZNSt3__119__allocate_at_leastB8ue170006INS_9allocatorIN5Catch8TestSpec6FilterEEEEENS_19__allocation_resultINS_16allocator_traitsIT_E7pointerEEERS8_m, symObjAddr: 0x21C90, symBinAddr: 0x100055870, symSize: 0x40 }
  - { offsetInCU: 0x62682, offset: 0xC24BB, size: 0x8, addend: 0x0, symName: __ZNSt3__112__to_addressB8ue170006IN5Catch8TestSpec6FilterEEEPT_S5_, symObjAddr: 0x21F78, symBinAddr: 0x100055B58, symSize: 0x14 }
  - { offsetInCU: 0x626B6, offset: 0xC24EF, size: 0x8, addend: 0x0, symName: __ZNSt3__130__uninitialized_allocator_copyB8ue170006INS_9allocatorIN5Catch8TestSpec6FilterEEEPS4_S6_S6_EET2_RT_T0_T1_S7_, symObjAddr: 0x22028, symBinAddr: 0x100055C08, symSize: 0x80 }
  - { offsetInCU: 0x62754, offset: 0xC258D, size: 0x8, addend: 0x0, symName: __ZNSt3__114__unwrap_rangeB8ue170006IPN5Catch8TestSpec6FilterES4_EENS_4pairIT0_S6_EET_S8_, symObjAddr: 0x22120, symBinAddr: 0x100055D00, symSize: 0x60 }
  - { offsetInCU: 0x6279F, offset: 0xC25D8, size: 0x8, addend: 0x0, symName: __ZNSt3__135__uninitialized_allocator_copy_implB8ue170006INS_9allocatorIN5Catch8TestSpec6FilterEEEPS4_S6_S6_EET2_RT_T0_T1_S7_, symObjAddr: 0x22180, symBinAddr: 0x100055D60, symSize: 0xF4 }
  - { offsetInCU: 0x6283E, offset: 0xC2677, size: 0x8, addend: 0x0, symName: __ZNSt3__113__unwrap_iterB8ue170006IPN5Catch8TestSpec6FilterENS_18__unwrap_iter_implIS4_Lb1EEELi0EEEDTclsrT0_8__unwrapclsr3stdE7declvalIT_EEEES8_, symObjAddr: 0x22274, symBinAddr: 0x100055E54, symSize: 0x24 }
  - { offsetInCU: 0x62882, offset: 0xC26BB, size: 0x8, addend: 0x0, symName: __ZNSt3__113__rewrap_iterB8ue170006IPN5Catch8TestSpec6FilterES4_NS_18__unwrap_iter_implIS4_Lb1EEEEET_S7_T0_, symObjAddr: 0x22298, symBinAddr: 0x100055E78, symSize: 0x3C }
  - { offsetInCU: 0x628D6, offset: 0xC270F, size: 0x8, addend: 0x0, symName: __ZNSt3__19make_pairB8ue170006IPN5Catch8TestSpec6FilterES4_EENS_4pairINS_18__unwrap_ref_decayIT_E4typeENS6_IT0_E4typeEEEOS7_OSA_, symObjAddr: 0x222D4, symBinAddr: 0x100055EB4, symSize: 0x38 }
  - { offsetInCU: 0x629FA, offset: 0xC2833, size: 0x8, addend: 0x0, symName: __ZNSt3__122__make_exception_guardB8ue170006INS_29_AllocatorDestroyRangeReverseINS_9allocatorIN5Catch8TestSpec6FilterEEEPS5_EEEENS_28__exception_guard_exceptionsIT_EESA_, symObjAddr: 0x2237C, symBinAddr: 0x100055F5C, symSize: 0x4C }
  - { offsetInCU: 0x62A30, offset: 0xC2869, size: 0x8, addend: 0x0, symName: __ZNSt3__122__make_exception_guardB8ue170006INS_6vectorIN5Catch3PtrINS2_8TestSpec7PatternEEENS_9allocatorIS6_EEE16__destroy_vectorEEENS_28__exception_guard_exceptionsIT_EESC_, symObjAddr: 0x22888, symBinAddr: 0x100056468, symSize: 0x40 }
  - { offsetInCU: 0x62A65, offset: 0xC289E, size: 0x8, addend: 0x0, symName: __ZNSt3__119__allocate_at_leastB8ue170006INS_9allocatorIN5Catch3PtrINS2_8TestSpec7PatternEEEEEEENS_19__allocation_resultINS_16allocator_traitsIT_E7pointerEEERSA_m, symObjAddr: 0x22B70, symBinAddr: 0x100056750, symSize: 0x40 }
  - { offsetInCU: 0x62AA8, offset: 0xC28E1, size: 0x8, addend: 0x0, symName: __ZNSt3__112__to_addressB8ue170006IN5Catch3PtrINS1_8TestSpec7PatternEEEEEPT_S7_, symObjAddr: 0x22E34, symBinAddr: 0x100056A14, symSize: 0x14 }
  - { offsetInCU: 0x62ADC, offset: 0xC2915, size: 0x8, addend: 0x0, symName: __ZNSt3__130__uninitialized_allocator_copyB8ue170006INS_9allocatorIN5Catch3PtrINS2_8TestSpec7PatternEEEEEPS6_S8_S8_EET2_RT_T0_T1_S9_, symObjAddr: 0x22EE4, symBinAddr: 0x100056AC4, symSize: 0x80 }
  - { offsetInCU: 0x62B7A, offset: 0xC29B3, size: 0x8, addend: 0x0, symName: __ZNSt3__114__unwrap_rangeB8ue170006IPN5Catch3PtrINS1_8TestSpec7PatternEEES6_EENS_4pairIT0_S8_EET_SA_, symObjAddr: 0x22FD4, symBinAddr: 0x100056BB4, symSize: 0x60 }
  - { offsetInCU: 0x62BC5, offset: 0xC29FE, size: 0x8, addend: 0x0, symName: __ZNSt3__135__uninitialized_allocator_copy_implB8ue170006INS_9allocatorIN5Catch3PtrINS2_8TestSpec7PatternEEEEEPS6_S8_S8_EET2_RT_T0_T1_S9_, symObjAddr: 0x23034, symBinAddr: 0x100056C14, symSize: 0xF4 }
  - { offsetInCU: 0x62C64, offset: 0xC2A9D, size: 0x8, addend: 0x0, symName: __ZNSt3__113__unwrap_iterB8ue170006IPN5Catch3PtrINS1_8TestSpec7PatternEEENS_18__unwrap_iter_implIS6_Lb1EEELi0EEEDTclsrT0_8__unwrapclsr3stdE7declvalIT_EEEESA_, symObjAddr: 0x23128, symBinAddr: 0x100056D08, symSize: 0x24 }
  - { offsetInCU: 0x62CA8, offset: 0xC2AE1, size: 0x8, addend: 0x0, symName: __ZNSt3__113__rewrap_iterB8ue170006IPN5Catch3PtrINS1_8TestSpec7PatternEEES6_NS_18__unwrap_iter_implIS6_Lb1EEEEET_S9_T0_, symObjAddr: 0x2314C, symBinAddr: 0x100056D2C, symSize: 0x3C }
  - { offsetInCU: 0x62CFC, offset: 0xC2B35, size: 0x8, addend: 0x0, symName: __ZNSt3__19make_pairB8ue170006IPN5Catch3PtrINS1_8TestSpec7PatternEEES6_EENS_4pairINS_18__unwrap_ref_decayIT_E4typeENS8_IT0_E4typeEEEOS9_OSC_, symObjAddr: 0x23188, symBinAddr: 0x100056D68, symSize: 0x38 }
  - { offsetInCU: 0x62E20, offset: 0xC2C59, size: 0x8, addend: 0x0, symName: __ZNSt3__122__make_exception_guardB8ue170006INS_29_AllocatorDestroyRangeReverseINS_9allocatorIN5Catch3PtrINS3_8TestSpec7PatternEEEEEPS7_EEEENS_28__exception_guard_exceptionsIT_EESC_, symObjAddr: 0x23230, symBinAddr: 0x100056E10, symSize: 0x4C }
  - { offsetInCU: 0x62E55, offset: 0xC2C8E, size: 0x8, addend: 0x0, symName: __ZNSt3__119__allocator_destroyB8ue170006INS_9allocatorIN5Catch3PtrINS2_8TestSpec7PatternEEEEENS_16reverse_iteratorIPS6_EESA_EEvRT_T0_T1_, symObjAddr: 0x23560, symBinAddr: 0x100057140, symSize: 0x70 }
  - { offsetInCU: 0x62EB9, offset: 0xC2CF2, size: 0x8, addend: 0x0, symName: __ZNSt3__1neB8ue170006IPN5Catch3PtrINS1_8TestSpec7PatternEEES6_EEbRKNS_16reverse_iteratorIT_EERKNS7_IT0_EE, symObjAddr: 0x23604, symBinAddr: 0x1000571E4, symSize: 0x48 }
  - { offsetInCU: 0x62F05, offset: 0xC2D3E, size: 0x8, addend: 0x0, symName: __ZNSt3__112__to_addressB8ue170006INS_16reverse_iteratorIPN5Catch3PtrINS2_8TestSpec7PatternEEEEEvEEu7__decayIDTclsr19__to_address_helperIT_EE6__callclsr3stdE7declvalIRKS9_EEEEESB_, symObjAddr: 0x23678, symBinAddr: 0x100057258, symSize: 0x24 }
  - { offsetInCU: 0x62FB6, offset: 0xC2DEF, size: 0x8, addend: 0x0, symName: __ZNSt3__119__allocator_destroyB8ue170006INS_9allocatorIN5Catch8TestSpec6FilterEEENS_16reverse_iteratorIPS4_EES8_EEvRT_T0_T1_, symObjAddr: 0x23BB4, symBinAddr: 0x100057794, symSize: 0x70 }
  - { offsetInCU: 0x6301A, offset: 0xC2E53, size: 0x8, addend: 0x0, symName: __ZNSt3__1neB8ue170006IPN5Catch8TestSpec6FilterES4_EEbRKNS_16reverse_iteratorIT_EERKNS5_IT0_EE, symObjAddr: 0x23C58, symBinAddr: 0x100057838, symSize: 0x48 }
  - { offsetInCU: 0x63066, offset: 0xC2E9F, size: 0x8, addend: 0x0, symName: __ZNSt3__112__to_addressB8ue170006INS_16reverse_iteratorIPN5Catch8TestSpec6FilterEEEvEEu7__decayIDTclsr19__to_address_helperIT_EE6__callclsr3stdE7declvalIRKS7_EEEEES9_, symObjAddr: 0x23CCC, symBinAddr: 0x1000578AC, symSize: 0x24 }
  - { offsetInCU: 0x63117, offset: 0xC2F50, size: 0x8, addend: 0x0, symName: __ZNSt3__142__uninitialized_allocator_move_if_noexceptB8ue170006INS_9allocatorIN5Catch8TestSpec6FilterEEENS_16reverse_iteratorIPS4_EES8_S8_EET2_RT_T0_T1_S9_, symObjAddr: 0x2542C, symBinAddr: 0x10005900C, symSize: 0x11C }
  - { offsetInCU: 0x631B8, offset: 0xC2FF1, size: 0x8, addend: 0x0, symName: __ZNSt3__14swapB8ue170006IPN5Catch8TestSpec6FilterEEENS_9enable_ifIXaasr21is_move_constructibleIT_EE5valuesr18is_move_assignableIS6_EE5valueEvE4typeERS6_S9_, symObjAddr: 0x25548, symBinAddr: 0x100059128, symSize: 0x3C }
  - { offsetInCU: 0x63209, offset: 0xC3042, size: 0x8, addend: 0x0, symName: __ZNSt3__122__make_exception_guardB8ue170006INS_29_AllocatorDestroyRangeReverseINS_9allocatorIN5Catch8TestSpec6FilterEEENS_16reverse_iteratorIPS5_EEEEEENS_28__exception_guard_exceptionsIT_EESC_, symObjAddr: 0x25584, symBinAddr: 0x100059164, symSize: 0x4C }
  - { offsetInCU: 0x6323E, offset: 0xC3077, size: 0x8, addend: 0x0, symName: __ZNSt3__119__allocator_destroyB8ue170006INS_9allocatorIN5Catch8TestSpec6FilterEEENS_16reverse_iteratorINS6_IPS4_EEEES9_EEvRT_T0_T1_, symObjAddr: 0x259C0, symBinAddr: 0x1000595A0, symSize: 0x70 }
  - { offsetInCU: 0x632A4, offset: 0xC30DD, size: 0x8, addend: 0x0, symName: __ZNSt3__1neB8ue170006INS_16reverse_iteratorIPN5Catch8TestSpec6FilterEEES6_EEbRKNS1_IT_EERKNS1_IT0_EE, symObjAddr: 0x25A6C, symBinAddr: 0x10005964C, symSize: 0x60 }
  - { offsetInCU: 0x632F0, offset: 0xC3129, size: 0x8, addend: 0x0, symName: __ZNSt3__112__to_addressB8ue170006INS_16reverse_iteratorINS1_IPN5Catch8TestSpec6FilterEEEEEvEEu7__decayIDTclsr19__to_address_helperIT_EE6__callclsr3stdE7declvalIRKS8_EEEEESA_, symObjAddr: 0x25ACC, symBinAddr: 0x1000596AC, symSize: 0x24 }
  - { offsetInCU: 0x6334F, offset: 0xC3188, size: 0x8, addend: 0x0, symName: __ZNSt3__14swapB8ue170006IPN5Catch8TestSpec7PatternEEENS_9enable_ifIXaasr21is_move_constructibleIT_EE5valuesr18is_move_assignableIS6_EE5valueEvE4typeERS6_S9_, symObjAddr: 0x26418, symBinAddr: 0x100059FF8, symSize: 0x3C }
  - { offsetInCU: 0x6339F, offset: 0xC31D8, size: 0x8, addend: 0x0, symName: __ZNSt3__142__uninitialized_allocator_move_if_noexceptB8ue170006INS_9allocatorIN5Catch3PtrINS2_8TestSpec7PatternEEEEENS_16reverse_iteratorIPS6_EESA_SA_EET2_RT_T0_T1_SB_, symObjAddr: 0x26A80, symBinAddr: 0x10005A660, symSize: 0x11C }
  - { offsetInCU: 0x63440, offset: 0xC3279, size: 0x8, addend: 0x0, symName: __ZNSt3__14swapB8ue170006IPN5Catch3PtrINS1_8TestSpec7PatternEEEEENS_9enable_ifIXaasr21is_move_constructibleIT_EE5valuesr18is_move_assignableIS8_EE5valueEvE4typeERS8_SB_, symObjAddr: 0x26B9C, symBinAddr: 0x10005A77C, symSize: 0x3C }
  - { offsetInCU: 0x63491, offset: 0xC32CA, size: 0x8, addend: 0x0, symName: __ZNSt3__122__make_exception_guardB8ue170006INS_29_AllocatorDestroyRangeReverseINS_9allocatorIN5Catch3PtrINS3_8TestSpec7PatternEEEEENS_16reverse_iteratorIPS7_EEEEEENS_28__exception_guard_exceptionsIT_EESE_, symObjAddr: 0x26BD8, symBinAddr: 0x10005A7B8, symSize: 0x4C }
  - { offsetInCU: 0x634C6, offset: 0xC32FF, size: 0x8, addend: 0x0, symName: __ZNSt3__119__allocator_destroyB8ue170006INS_9allocatorIN5Catch3PtrINS2_8TestSpec7PatternEEEEENS_16reverse_iteratorINS8_IPS6_EEEESB_EEvRT_T0_T1_, symObjAddr: 0x26E50, symBinAddr: 0x10005AA30, symSize: 0x70 }
  - { offsetInCU: 0x6352C, offset: 0xC3365, size: 0x8, addend: 0x0, symName: __ZNSt3__1neB8ue170006INS_16reverse_iteratorIPN5Catch3PtrINS2_8TestSpec7PatternEEEEES8_EEbRKNS1_IT_EERKNS1_IT0_EE, symObjAddr: 0x26EFC, symBinAddr: 0x10005AADC, symSize: 0x60 }
  - { offsetInCU: 0x63578, offset: 0xC33B1, size: 0x8, addend: 0x0, symName: __ZNSt3__112__to_addressB8ue170006INS_16reverse_iteratorINS1_IPN5Catch3PtrINS2_8TestSpec7PatternEEEEEEEvEEu7__decayIDTclsr19__to_address_helperIT_EE6__callclsr3stdE7declvalIRKSA_EEEEESC_, symObjAddr: 0x26F5C, symBinAddr: 0x10005AB3C, symSize: 0x24 }
  - { offsetInCU: 0x635D7, offset: 0xC3410, size: 0x8, addend: 0x0, symName: __ZNSt3__1eqB8ue170006IPKN5Catch8TestCaseEEEbRKNS_11__wrap_iterIT_EES9_, symObjAddr: 0x279C0, symBinAddr: 0x10005B5A0, symSize: 0x48 }
  - { offsetInCU: 0x6361A, offset: 0xC3453, size: 0x8, addend: 0x0, symName: __ZNSt3__14swapB8ue170006IPN5Catch16TestCaseTracking8ITrackerEEENS_9enable_ifIXaasr21is_move_constructibleIT_EE5valuesr18is_move_assignableIS6_EE5valueEvE4typeERS6_S9_, symObjAddr: 0x28170, symBinAddr: 0x10005BD50, symSize: 0x3C }
  - { offsetInCU: 0x6366B, offset: 0xC34A4, size: 0x8, addend: 0x0, symName: __ZNSt3__1neB8ue170006IPKN5Catch8TestSpec6FilterEEEbRKNS_11__wrap_iterIT_EESA_, symObjAddr: 0x28D10, symBinAddr: 0x10005C750, symSize: 0x34 }
  - { offsetInCU: 0x636AE, offset: 0xC34E7, size: 0x8, addend: 0x0, symName: __ZNSt3__1eqB8ue170006IPKN5Catch8TestSpec6FilterEEEbRKNS_11__wrap_iterIT_EESA_, symObjAddr: 0x28ECC, symBinAddr: 0x10005C90C, symSize: 0x48 }
  - { offsetInCU: 0x636F1, offset: 0xC352A, size: 0x8, addend: 0x0, symName: __ZNSt3__112__to_addressB8ue170006IKN5Catch8TestSpec6FilterEEEPT_S6_, symObjAddr: 0x28F2C, symBinAddr: 0x10005C96C, symSize: 0x14 }
  - { offsetInCU: 0x63726, offset: 0xC355F, size: 0x8, addend: 0x0, symName: __ZNSt3__1neB8ue170006IPKN5Catch3PtrINS1_8TestSpec7PatternEEEEEbRKNS_11__wrap_iterIT_EESC_, symObjAddr: 0x28FA0, symBinAddr: 0x10005C9E0, symSize: 0x34 }
  - { offsetInCU: 0x63769, offset: 0xC35A2, size: 0x8, addend: 0x0, symName: __ZNSt3__1eqB8ue170006IPKN5Catch3PtrINS1_8TestSpec7PatternEEEEEbRKNS_11__wrap_iterIT_EESC_, symObjAddr: 0x290A8, symBinAddr: 0x10005CAE8, symSize: 0x48 }
  - { offsetInCU: 0x637AC, offset: 0xC35E5, size: 0x8, addend: 0x0, symName: __ZNSt3__112__to_addressB8ue170006IKN5Catch8TestCaseEEEPT_S5_, symObjAddr: 0x29108, symBinAddr: 0x10005CB48, symSize: 0x14 }
  - { offsetInCU: 0x637E0, offset: 0xC3619, size: 0x8, addend: 0x0, symName: __ZNSt3__111__str_rfindB8ue170006IcmNS_11char_traitsIcEELm18446744073709551615EEET0_PKT_S3_S6_S3_S3_, symObjAddr: 0x29190, symBinAddr: 0x10005CBD0, symSize: 0x128 }
  - { offsetInCU: 0x63888, offset: 0xC36C1, size: 0x8, addend: 0x0, symName: __ZNSt3__118__find_end_classicB8ue170006IPKcS2_FbccEEET_S4_S4_T0_S5_RT1_, symObjAddr: 0x292EC, symBinAddr: 0x10005CCF8, symSize: 0x64 }
  - { offsetInCU: 0x63915, offset: 0xC374E, size: 0x8, addend: 0x0, symName: __ZNSt3__115__find_end_implB8ue170006INS_17_ClassicAlgPolicyEPKcS3_S3_S3_FbccENS_10__identityES5_EENS_4pairIT0_S7_EES7_T1_T2_T3_RT4_RT5_RT6_NS_20forward_iterator_tagESI_, symObjAddr: 0x29378, symBinAddr: 0x10005CD84, symSize: 0x1F4 }
  - { offsetInCU: 0x63B3B, offset: 0xC3974, size: 0x8, addend: 0x0, symName: __ZNSt3__18__invokeB8ue170006IRFbccEJRKcS4_EEEDTclclsr3stdE7declvalIT_EEspclsr3stdE7declvalIT0_EEEEOS5_DpOS6_, symObjAddr: 0x295C0, symBinAddr: 0x10005CFCC, symSize: 0x40 }
  - { offsetInCU: 0x63BA0, offset: 0xC39D9, size: 0x8, addend: 0x0, symName: __ZNSt3__18__invokeB8ue170006IRNS_10__identityEJRKcEEEDTclclsr3stdE7declvalIT_EEspclsr3stdE7declvalIT0_EEEEOS5_DpOS6_, symObjAddr: 0x29600, symBinAddr: 0x10005D00C, symSize: 0x2C }
  - { offsetInCU: 0x63BF1, offset: 0xC3A2A, size: 0x8, addend: 0x0, symName: __ZNSt3__1eqB8ue170006ERKNS_20__map_const_iteratorINS_21__tree_const_iteratorINS_12__value_typeINS_12basic_stringIcNS_11char_traitsIcEENS_9allocatorIcEEEEN5Catch3PtrINS9_16IReporterFactoryEEEEEPNS_11__tree_nodeISD_PvEElEEEESL_, symObjAddr: 0x2A908, symBinAddr: 0x10005E220, symSize: 0x30 }
  - { offsetInCU: 0x63C2E, offset: 0xC3A67, size: 0x8, addend: 0x0, symName: __ZNSt3__1neB8ue170006ERKNS_21__tree_const_iteratorINS_12__value_typeINS_12basic_stringIcNS_11char_traitsIcEENS_9allocatorIcEEEEN5Catch3PtrINS8_16IReporterFactoryEEEEEPNS_11__tree_nodeISC_PvEElEESJ_, symObjAddr: 0x2AB6C, symBinAddr: 0x10005E484, symSize: 0x34 }
  - { offsetInCU: 0x63C6B, offset: 0xC3AA4, size: 0x8, addend: 0x0, symName: __ZNSt3__1eqB8ue170006ERKNS_21__tree_const_iteratorINS_12__value_typeINS_12basic_stringIcNS_11char_traitsIcEENS_9allocatorIcEEEEN5Catch3PtrINS8_16IReporterFactoryEEEEEPNS_11__tree_nodeISC_PvEElEESJ_, symObjAddr: 0x2AD58, symBinAddr: 0x10005E670, symSize: 0x30 }
  - { offsetInCU: 0x63D0F, offset: 0xC3B48, size: 0x8, addend: 0x0, symName: __ZNSt3__1neB8ue170006IPKPKN5Catch20IExceptionTranslatorEEEbRKNS_11__wrap_iterIT_EESB_, symObjAddr: 0x2B480, symBinAddr: 0x10005ED98, symSize: 0x34 }
  - { offsetInCU: 0x63D52, offset: 0xC3B8B, size: 0x8, addend: 0x0, symName: __ZNSt3__1eqB8ue170006IPKPKN5Catch20IExceptionTranslatorEEEbRKNS_11__wrap_iterIT_EESB_, symObjAddr: 0x2B5C8, symBinAddr: 0x10005EEE0, symSize: 0x48 }
  - { offsetInCU: 0x63D95, offset: 0xC3BCE, size: 0x8, addend: 0x0, symName: __ZNSt3__112__to_addressB8ue170006IPKN5Catch20IExceptionTranslatorEEEPT_S6_, symObjAddr: 0x2B984, symBinAddr: 0x10005F29C, symSize: 0x14 }
  - { offsetInCU: 0x63DCA, offset: 0xC3C03, size: 0x8, addend: 0x0, symName: __ZNSt3__119__allocate_at_leastB8ue170006INS_9allocatorIPKN5Catch20IExceptionTranslatorEEEEENS_19__allocation_resultINS_16allocator_traitsIT_E7pointerEEERS9_m, symObjAddr: 0x2C4E8, symBinAddr: 0x10005FE00, symSize: 0x40 }
  - { offsetInCU: 0x63E0C, offset: 0xC3C45, size: 0x8, addend: 0x0, symName: __ZNSt3__142__uninitialized_allocator_move_if_noexceptB8ue170006INS_9allocatorIPKN5Catch20IExceptionTranslatorEEENS_16reverse_iteratorIPS5_EES9_S5_vEET1_RT_T0_SD_SA_, symObjAddr: 0x2C69C, symBinAddr: 0x10005FFB4, symSize: 0x78 }
  - { offsetInCU: 0x63E8A, offset: 0xC3CC3, size: 0x8, addend: 0x0, symName: __ZNSt3__14swapB8ue170006IPPKN5Catch20IExceptionTranslatorEEENS_9enable_ifIXaasr21is_move_constructibleIT_EE5valuesr18is_move_assignableIS7_EE5valueEvE4typeERS7_SA_, symObjAddr: 0x2C760, symBinAddr: 0x100060078, symSize: 0x3C }
  - { offsetInCU: 0x63EDB, offset: 0xC3D14, size: 0x8, addend: 0x0, symName: __ZNSt3__14moveB8ue170006INS_16reverse_iteratorIPPKN5Catch20IExceptionTranslatorEEES7_EET0_T_S9_S8_, symObjAddr: 0x2C848, symBinAddr: 0x100060160, symSize: 0x78 }
  - { offsetInCU: 0x63F35, offset: 0xC3D6E, size: 0x8, addend: 0x0, symName: __ZNSt3__16__moveB8ue170006INS_17_ClassicAlgPolicyENS_16reverse_iteratorIPPKN5Catch20IExceptionTranslatorEEES8_S8_EENS_4pairIT0_T2_EESA_T1_SB_, symObjAddr: 0x2C8C0, symBinAddr: 0x1000601D8, symSize: 0x64 }
  - { offsetInCU: 0x63FA1, offset: 0xC3DDA, size: 0x8, addend: 0x0, symName: __ZNSt3__123__dispatch_copy_or_moveB8ue170006INS_17_ClassicAlgPolicyENS_11__move_loopIS1_EENS_14__move_trivialENS_16reverse_iteratorIPPKN5Catch20IExceptionTranslatorEEESB_SB_EENS_4pairIT2_T4_EESD_T3_SE_, symObjAddr: 0x2C924, symBinAddr: 0x10006023C, symSize: 0x64 }
  - { offsetInCU: 0x6401F, offset: 0xC3E58, size: 0x8, addend: 0x0, symName: __ZNSt3__121__unwrap_and_dispatchB8ue170006INS_10__overloadINS_11__move_loopINS_17_ClassicAlgPolicyEEENS_14__move_trivialEEENS_16reverse_iteratorIPPKN5Catch20IExceptionTranslatorEEESD_SD_Li0EEENS_4pairIT0_T2_EESF_T1_SG_, symObjAddr: 0x2C988, symBinAddr: 0x1000602A0, symSize: 0x12C }
  - { offsetInCU: 0x640AF, offset: 0xC3EE8, size: 0x8, addend: 0x0, symName: __ZNSt3__114__unwrap_rangeB8ue170006INS_16reverse_iteratorIPPKN5Catch20IExceptionTranslatorEEES7_EENS_4pairIT0_S9_EET_SB_, symObjAddr: 0x2CAB4, symBinAddr: 0x1000603CC, symSize: 0x84 }
  - { offsetInCU: 0x641CF, offset: 0xC4008, size: 0x8, addend: 0x0, symName: __ZNSt3__113__unwrap_iterB8ue170006INS_16reverse_iteratorIPPKN5Catch20IExceptionTranslatorEEENS_18__unwrap_iter_implIS7_Lb0EEELi0EEEDTclsrT0_8__unwrapclsr3stdE7declvalIT_EEEESB_, symObjAddr: 0x2CBD8, symBinAddr: 0x1000604F0, symSize: 0x44 }
  - { offsetInCU: 0x64212, offset: 0xC404B, size: 0x8, addend: 0x0, symName: __ZNSt3__19make_pairB8ue170006INS_16reverse_iteratorIPPKN5Catch20IExceptionTranslatorEEES7_EENS_4pairINS_18__unwrap_ref_decayIT_E4typeENS9_IT0_E4typeEEEOSA_OSD_, symObjAddr: 0x2CC1C, symBinAddr: 0x100060534, symSize: 0x38 }
  - { offsetInCU: 0x64262, offset: 0xC409B, size: 0x8, addend: 0x0, symName: __ZNSt3__114__rewrap_rangeB8ue170006INS_16reverse_iteratorIPPKN5Catch20IExceptionTranslatorEEES7_EET_S8_T0_, symObjAddr: 0x2CC54, symBinAddr: 0x10006056C, symSize: 0x5C }
  - { offsetInCU: 0x642AE, offset: 0xC40E7, size: 0x8, addend: 0x0, symName: __ZNSt3__113__rewrap_iterB8ue170006INS_16reverse_iteratorIPPKN5Catch20IExceptionTranslatorEEES7_NS_18__unwrap_iter_implIS7_Lb0EEEEET_SA_T0_, symObjAddr: 0x2CCB0, symBinAddr: 0x1000605C8, symSize: 0x74 }
  - { offsetInCU: 0x64303, offset: 0xC413C, size: 0x8, addend: 0x0, symName: __ZNSt3__1neB8ue170006IPPKN5Catch20IExceptionTranslatorES5_EEbRKNS_16reverse_iteratorIT_EERKNS6_IT0_EE, symObjAddr: 0x2CD24, symBinAddr: 0x10006063C, symSize: 0x48 }
  - { offsetInCU: 0x64492, offset: 0xC42CB, size: 0x8, addend: 0x0, symName: __ZNSt3__19make_pairB8ue170006IRKNS_12basic_stringIcNS_11char_traitsIcEENS_9allocatorIcEEEERKN5Catch3PtrINS9_16IReporterFactoryEEEEENS_4pairINS_18__unwrap_ref_decayIT_E4typeENSG_IT0_E4typeEEEOSH_OSK_, symObjAddr: 0x2D208, symBinAddr: 0x100060B20, symSize: 0x40 }
  - { offsetInCU: 0x64509, offset: 0xC4342, size: 0x8, addend: 0x0, symName: __ZNSt3__112__to_addressB8ue170006IN5Catch3PtrINS1_16IReporterFactoryEEEEEPT_S6_, symObjAddr: 0x2EA14, symBinAddr: 0x100061DE4, symSize: 0x14 }
  - { offsetInCU: 0x6453E, offset: 0xC4377, size: 0x8, addend: 0x0, symName: __ZNSt3__119__allocate_at_leastB8ue170006INS_9allocatorIN5Catch3PtrINS2_16IReporterFactoryEEEEEEENS_19__allocation_resultINS_16allocator_traitsIT_E7pointerEEERS9_m, symObjAddr: 0x2F040, symBinAddr: 0x100062410, symSize: 0x40 }
  - { offsetInCU: 0x64580, offset: 0xC43B9, size: 0x8, addend: 0x0, symName: __ZNSt3__142__uninitialized_allocator_move_if_noexceptB8ue170006INS_9allocatorIN5Catch3PtrINS2_16IReporterFactoryEEEEENS_16reverse_iteratorIPS5_EES9_S9_EET2_RT_T0_T1_SA_, symObjAddr: 0x2F2AC, symBinAddr: 0x10006267C, symSize: 0x12C }
  - { offsetInCU: 0x64621, offset: 0xC445A, size: 0x8, addend: 0x0, symName: __ZNSt3__14swapB8ue170006IPN5Catch3PtrINS1_16IReporterFactoryEEEEENS_9enable_ifIXaasr21is_move_constructibleIT_EE5valuesr18is_move_assignableIS7_EE5valueEvE4typeERS7_SA_, symObjAddr: 0x2F424, symBinAddr: 0x1000627F4, symSize: 0x3C }
  - { offsetInCU: 0x64672, offset: 0xC44AB, size: 0x8, addend: 0x0, symName: __ZNSt3__122__make_exception_guardB8ue170006INS_29_AllocatorDestroyRangeReverseINS_9allocatorIN5Catch3PtrINS3_16IReporterFactoryEEEEENS_16reverse_iteratorIPS6_EEEEEENS_28__exception_guard_exceptionsIT_EESD_, symObjAddr: 0x2F554, symBinAddr: 0x100062924, symSize: 0x4C }
  - { offsetInCU: 0x646A8, offset: 0xC44E1, size: 0x8, addend: 0x0, symName: __ZNSt3__1neB8ue170006IPN5Catch3PtrINS1_16IReporterFactoryEEES5_EEbRKNS_16reverse_iteratorIT_EERKNS6_IT0_EE, symObjAddr: 0x2F5E4, symBinAddr: 0x1000629B4, symSize: 0x48 }
  - { offsetInCU: 0x646F4, offset: 0xC452D, size: 0x8, addend: 0x0, symName: __ZNSt3__112__to_addressB8ue170006INS_16reverse_iteratorIPN5Catch3PtrINS2_16IReporterFactoryEEEEEvEEu7__decayIDTclsr19__to_address_helperIT_EE6__callclsr3stdE7declvalIRKS8_EEEEESA_, symObjAddr: 0x2F62C, symBinAddr: 0x1000629FC, symSize: 0x24 }
  - { offsetInCU: 0x64752, offset: 0xC458B, size: 0x8, addend: 0x0, symName: __ZNSt3__119__allocator_destroyB8ue170006INS_9allocatorIN5Catch3PtrINS2_16IReporterFactoryEEEEENS_16reverse_iteratorINS7_IPS5_EEEESA_EEvRT_T0_T1_, symObjAddr: 0x2F8DC, symBinAddr: 0x100062CAC, symSize: 0x70 }
  - { offsetInCU: 0x647B8, offset: 0xC45F1, size: 0x8, addend: 0x0, symName: __ZNSt3__1neB8ue170006INS_16reverse_iteratorIPN5Catch3PtrINS2_16IReporterFactoryEEEEES7_EEbRKNS1_IT_EERKNS1_IT0_EE, symObjAddr: 0x2F988, symBinAddr: 0x100062D58, symSize: 0x60 }
  - { offsetInCU: 0x64804, offset: 0xC463D, size: 0x8, addend: 0x0, symName: __ZNSt3__112__to_addressB8ue170006INS_16reverse_iteratorINS1_IPN5Catch3PtrINS2_16IReporterFactoryEEEEEEEvEEu7__decayIDTclsr19__to_address_helperIT_EE6__callclsr3stdE7declvalIRKS9_EEEEESB_, symObjAddr: 0x2FA14, symBinAddr: 0x100062DE4, symSize: 0x24 }
  - { offsetInCU: 0x64942, offset: 0xC477B, size: 0x8, addend: 0x0, symName: __ZNSt3__19make_pairB8ue170006IRNS_12basic_stringIcNS_11char_traitsIcEENS_9allocatorIcEEEERPN5Catch18IGeneratorsForTestEEENS_4pairINS_18__unwrap_ref_decayIT_E4typeENSD_IT0_E4typeEEEOSE_OSH_, symObjAddr: 0x30B04, symBinAddr: 0x100063EA8, symSize: 0x40 }
  - { offsetInCU: 0x64991, offset: 0xC47CA, size: 0x8, addend: 0x0, symName: __ZNSt3__1neB8ue170006ERKNS_20__map_const_iteratorINS_21__tree_const_iteratorINS_12__value_typeINS_12basic_stringIcNS_11char_traitsIcEENS_9allocatorIcEEEEPN5Catch18IGeneratorsForTestEEEPNS_11__tree_nodeISC_PvEElEEEESK_, symObjAddr: 0x30BE4, symBinAddr: 0x100063F88, symSize: 0x30 }
  - { offsetInCU: 0x649CE, offset: 0xC4807, size: 0x8, addend: 0x0, symName: __ZNSt3__1neB8ue170006ERKNS_15__tree_iteratorINS_12__value_typeINS_12basic_stringIcNS_11char_traitsIcEENS_9allocatorIcEEEEPN5Catch18IGeneratorsForTestEEEPNS_11__tree_nodeISB_PvEElEESI_, symObjAddr: 0x30E48, symBinAddr: 0x1000641EC, symSize: 0x34 }
  - { offsetInCU: 0x64A0B, offset: 0xC4844, size: 0x8, addend: 0x0, symName: __ZNSt3__1eqB8ue170006ERKNS_15__tree_iteratorINS_12__value_typeINS_12basic_stringIcNS_11char_traitsIcEENS_9allocatorIcEEEEPN5Catch18IGeneratorsForTestEEEPNS_11__tree_nodeISB_PvEElEESI_, symObjAddr: 0x31000, symBinAddr: 0x1000643A4, symSize: 0x30 }
  - { offsetInCU: 0x64A48, offset: 0xC4881, size: 0x8, addend: 0x0, symName: __ZNSt3__1neB8ue170006ERKNS_21__tree_const_iteratorINS_12__value_typeINS_12basic_stringIcNS_11char_traitsIcEENS_9allocatorIcEEEEPN5Catch18IGeneratorsForTestEEEPNS_11__tree_nodeISB_PvEElEESI_, symObjAddr: 0x31130, symBinAddr: 0x1000644D4, symSize: 0x34 }
  - { offsetInCU: 0x64A85, offset: 0xC48BE, size: 0x8, addend: 0x0, symName: __ZNSt3__1eqB8ue170006ERKNS_21__tree_const_iteratorINS_12__value_typeINS_12basic_stringIcNS_11char_traitsIcEENS_9allocatorIcEEEEPN5Catch18IGeneratorsForTestEEEPNS_11__tree_nodeISB_PvEElEESI_, symObjAddr: 0x31164, symBinAddr: 0x100064508, symSize: 0x30 }
  - { offsetInCU: 0x64B47, offset: 0xC4980, size: 0x8, addend: 0x0, symName: __ZNSt3__14swapB8ue170006IPKN5Catch7IConfigEEENS_9enable_ifIXaasr21is_move_constructibleIT_EE5valuesr18is_move_assignableIS6_EE5valueEvE4typeERS6_S9_, symObjAddr: 0x32040, symBinAddr: 0x1000653E4, symSize: 0x3C }
  - { offsetInCU: 0x64B98, offset: 0xC49D1, size: 0x8, addend: 0x0, symName: __ZNSt3__1neB8ue170006IPKPN5Catch14IGeneratorInfoEEEbRKNS_11__wrap_iterIT_EESA_, symObjAddr: 0x32ED4, symBinAddr: 0x100066278, symSize: 0x34 }
  - { offsetInCU: 0x64BDB, offset: 0xC4A14, size: 0x8, addend: 0x0, symName: __ZNSt3__1eqB8ue170006IPKPN5Catch14IGeneratorInfoEEEbRKNS_11__wrap_iterIT_EESA_, symObjAddr: 0x3301C, symBinAddr: 0x1000663C0, symSize: 0x48 }
  - { offsetInCU: 0x64C1E, offset: 0xC4A57, size: 0x8, addend: 0x0, symName: __ZNSt3__112__to_addressB8ue170006IPN5Catch14IGeneratorInfoEEEPT_S5_, symObjAddr: 0x333D8, symBinAddr: 0x10006677C, symSize: 0x14 }
  - { offsetInCU: 0x64C52, offset: 0xC4A8B, size: 0x8, addend: 0x0, symName: __ZNSt3__1eqB8ue170006ERKNS_20__map_const_iteratorINS_21__tree_const_iteratorINS_12__value_typeINS_12basic_stringIcNS_11char_traitsIcEENS_9allocatorIcEEEEPN5Catch14IGeneratorInfoEEEPNS_11__tree_nodeISC_PvEElEEEESK_, symObjAddr: 0x338FC, symBinAddr: 0x100066CA0, symSize: 0x30 }
  - { offsetInCU: 0x64D6F, offset: 0xC4BA8, size: 0x8, addend: 0x0, symName: __ZNSt3__19make_pairB8ue170006IRKNS_12basic_stringIcNS_11char_traitsIcEENS_9allocatorIcEEEERPN5Catch14IGeneratorInfoEEENS_4pairINS_18__unwrap_ref_decayIT_E4typeENSE_IT0_E4typeEEEOSF_OSI_, symObjAddr: 0x339E4, symBinAddr: 0x100066D88, symSize: 0x40 }
  - { offsetInCU: 0x64DBE, offset: 0xC4BF7, size: 0x8, addend: 0x0, symName: __ZNSt3__1neB8ue170006ERKNS_15__tree_iteratorINS_12__value_typeINS_12basic_stringIcNS_11char_traitsIcEENS_9allocatorIcEEEEPN5Catch14IGeneratorInfoEEEPNS_11__tree_nodeISB_PvEElEESI_, symObjAddr: 0x33CB8, symBinAddr: 0x10006705C, symSize: 0x34 }
  - { offsetInCU: 0x64DFB, offset: 0xC4C34, size: 0x8, addend: 0x0, symName: __ZNSt3__1eqB8ue170006ERKNS_15__tree_iteratorINS_12__value_typeINS_12basic_stringIcNS_11char_traitsIcEENS_9allocatorIcEEEEPN5Catch14IGeneratorInfoEEEPNS_11__tree_nodeISB_PvEElEESI_, symObjAddr: 0x33E70, symBinAddr: 0x100067214, symSize: 0x30 }
  - { offsetInCU: 0x64E38, offset: 0xC4C71, size: 0x8, addend: 0x0, symName: __ZNSt3__1eqB8ue170006ERKNS_21__tree_const_iteratorINS_12__value_typeINS_12basic_stringIcNS_11char_traitsIcEENS_9allocatorIcEEEEPN5Catch14IGeneratorInfoEEEPNS_11__tree_nodeISB_PvEElEESI_, symObjAddr: 0x33FA0, symBinAddr: 0x100067344, symSize: 0x30 }
  - { offsetInCU: 0x64E94, offset: 0xC4CCD, size: 0x8, addend: 0x0, symName: __ZNSt3__119__allocate_at_leastB8ue170006INS_9allocatorIPN5Catch14IGeneratorInfoEEEEENS_19__allocation_resultINS_16allocator_traitsIT_E7pointerEEERS8_m, symObjAddr: 0x35640, symBinAddr: 0x1000689E4, symSize: 0x40 }
  - { offsetInCU: 0x64ED6, offset: 0xC4D0F, size: 0x8, addend: 0x0, symName: __ZNSt3__142__uninitialized_allocator_move_if_noexceptB8ue170006INS_9allocatorIPN5Catch14IGeneratorInfoEEENS_16reverse_iteratorIPS4_EES8_S4_vEET1_RT_T0_SC_S9_, symObjAddr: 0x357F4, symBinAddr: 0x100068B98, symSize: 0x78 }
  - { offsetInCU: 0x64F54, offset: 0xC4D8D, size: 0x8, addend: 0x0, symName: __ZNSt3__14swapB8ue170006IPPN5Catch14IGeneratorInfoEEENS_9enable_ifIXaasr21is_move_constructibleIT_EE5valuesr18is_move_assignableIS6_EE5valueEvE4typeERS6_S9_, symObjAddr: 0x358B8, symBinAddr: 0x100068C5C, symSize: 0x3C }
  - { offsetInCU: 0x64FA5, offset: 0xC4DDE, size: 0x8, addend: 0x0, symName: __ZNSt3__14moveB8ue170006INS_16reverse_iteratorIPPN5Catch14IGeneratorInfoEEES6_EET0_T_S8_S7_, symObjAddr: 0x359A0, symBinAddr: 0x100068D44, symSize: 0x78 }
  - { offsetInCU: 0x64FFF, offset: 0xC4E38, size: 0x8, addend: 0x0, symName: __ZNSt3__16__moveB8ue170006INS_17_ClassicAlgPolicyENS_16reverse_iteratorIPPN5Catch14IGeneratorInfoEEES7_S7_EENS_4pairIT0_T2_EES9_T1_SA_, symObjAddr: 0x35A18, symBinAddr: 0x100068DBC, symSize: 0x64 }
  - { offsetInCU: 0x6506B, offset: 0xC4EA4, size: 0x8, addend: 0x0, symName: __ZNSt3__123__dispatch_copy_or_moveB8ue170006INS_17_ClassicAlgPolicyENS_11__move_loopIS1_EENS_14__move_trivialENS_16reverse_iteratorIPPN5Catch14IGeneratorInfoEEESA_SA_EENS_4pairIT2_T4_EESC_T3_SD_, symObjAddr: 0x35A7C, symBinAddr: 0x100068E20, symSize: 0x64 }
  - { offsetInCU: 0x650E9, offset: 0xC4F22, size: 0x8, addend: 0x0, symName: __ZNSt3__121__unwrap_and_dispatchB8ue170006INS_10__overloadINS_11__move_loopINS_17_ClassicAlgPolicyEEENS_14__move_trivialEEENS_16reverse_iteratorIPPN5Catch14IGeneratorInfoEEESC_SC_Li0EEENS_4pairIT0_T2_EESE_T1_SF_, symObjAddr: 0x35AE0, symBinAddr: 0x100068E84, symSize: 0x12C }
  - { offsetInCU: 0x65179, offset: 0xC4FB2, size: 0x8, addend: 0x0, symName: __ZNSt3__114__unwrap_rangeB8ue170006INS_16reverse_iteratorIPPN5Catch14IGeneratorInfoEEES6_EENS_4pairIT0_S8_EET_SA_, symObjAddr: 0x35C0C, symBinAddr: 0x100068FB0, symSize: 0x84 }
  - { offsetInCU: 0x65299, offset: 0xC50D2, size: 0x8, addend: 0x0, symName: __ZNSt3__113__unwrap_iterB8ue170006INS_16reverse_iteratorIPPN5Catch14IGeneratorInfoEEENS_18__unwrap_iter_implIS6_Lb0EEELi0EEEDTclsrT0_8__unwrapclsr3stdE7declvalIT_EEEESA_, symObjAddr: 0x35D30, symBinAddr: 0x1000690D4, symSize: 0x44 }
  - { offsetInCU: 0x652DC, offset: 0xC5115, size: 0x8, addend: 0x0, symName: __ZNSt3__19make_pairB8ue170006INS_16reverse_iteratorIPPN5Catch14IGeneratorInfoEEES6_EENS_4pairINS_18__unwrap_ref_decayIT_E4typeENS8_IT0_E4typeEEEOS9_OSC_, symObjAddr: 0x35D74, symBinAddr: 0x100069118, symSize: 0x38 }
  - { offsetInCU: 0x6532C, offset: 0xC5165, size: 0x8, addend: 0x0, symName: __ZNSt3__114__rewrap_rangeB8ue170006INS_16reverse_iteratorIPPN5Catch14IGeneratorInfoEEES6_EET_S7_T0_, symObjAddr: 0x35DAC, symBinAddr: 0x100069150, symSize: 0x5C }
  - { offsetInCU: 0x65378, offset: 0xC51B1, size: 0x8, addend: 0x0, symName: __ZNSt3__113__rewrap_iterB8ue170006INS_16reverse_iteratorIPPN5Catch14IGeneratorInfoEEES6_NS_18__unwrap_iter_implIS6_Lb0EEEEET_S9_T0_, symObjAddr: 0x35E08, symBinAddr: 0x1000691AC, symSize: 0x74 }
  - { offsetInCU: 0x653CD, offset: 0xC5206, size: 0x8, addend: 0x0, symName: __ZNSt3__1neB8ue170006IPPN5Catch14IGeneratorInfoES4_EEbRKNS_16reverse_iteratorIT_EERKNS5_IT0_EE, symObjAddr: 0x35E7C, symBinAddr: 0x100069220, symSize: 0x48 }
  - { offsetInCU: 0x654EB, offset: 0xC5324, size: 0x8, addend: 0x0, symName: __ZNSt3__1eqB8ue170006IPKN5Catch11MessageInfoEEEbRKNS_11__wrap_iterIT_EES9_, symObjAddr: 0x36754, symBinAddr: 0x100069A7C, symSize: 0x48 }
  - { offsetInCU: 0x6552E, offset: 0xC5367, size: 0x8, addend: 0x0, symName: __ZNSt3__112__to_addressB8ue170006IKN5Catch11MessageInfoEEEPT_S5_, symObjAddr: 0x3679C, symBinAddr: 0x100069AC4, symSize: 0x14 }
  - { offsetInCU: 0x65563, offset: 0xC539C, size: 0x8, addend: 0x0, symName: __ZNSt3__112__to_addressB8ue170006IN5Catch3PtrINS1_8Matchers4Impl7MatcherINS_12basic_stringIcNS_11char_traitsIcEENS_9allocatorIcEEEEEEEEEEPT_SF_, symObjAddr: 0x3726C, symBinAddr: 0x10006A460, symSize: 0x14 }
  - { offsetInCU: 0x65598, offset: 0xC53D1, size: 0x8, addend: 0x0, symName: __ZNSt3__122__make_exception_guardB8ue170006INS_6vectorIN5Catch3PtrINS2_8Matchers4Impl7MatcherINS_12basic_stringIcNS_11char_traitsIcEENS_9allocatorIcEEEEEEEENSA_ISE_EEE16__destroy_vectorEEENS_28__exception_guard_exceptionsIT_EESJ_, symObjAddr: 0x37904, symBinAddr: 0x10006AAF8, symSize: 0x40 }
  - { offsetInCU: 0x655CD, offset: 0xC5406, size: 0x8, addend: 0x0, symName: __ZNSt3__119__allocate_at_leastB8ue170006INS_9allocatorIN5Catch3PtrINS2_8Matchers4Impl7MatcherINS_12basic_stringIcNS_11char_traitsIcEENS1_IcEEEEEEEEEEEENS_19__allocation_resultINS_16allocator_traitsIT_E7pointerEEERSH_m, symObjAddr: 0x37B98, symBinAddr: 0x10006AD8C, symSize: 0x40 }
  - { offsetInCU: 0x6560F, offset: 0xC5448, size: 0x8, addend: 0x0, symName: __ZNSt3__130__uninitialized_allocator_copyB8ue170006INS_9allocatorIN5Catch3PtrINS2_8Matchers4Impl7MatcherINS_12basic_stringIcNS_11char_traitsIcEENS1_IcEEEEEEEEEEPSD_SF_SF_EET2_RT_T0_T1_SG_, symObjAddr: 0x37DB0, symBinAddr: 0x10006AFA4, symSize: 0x80 }
  - { offsetInCU: 0x656AD, offset: 0xC54E6, size: 0x8, addend: 0x0, symName: __ZNSt3__114__unwrap_rangeB8ue170006IPN5Catch3PtrINS1_8Matchers4Impl7MatcherINS_12basic_stringIcNS_11char_traitsIcEENS_9allocatorIcEEEEEEEESE_EENS_4pairIT0_SG_EET_SI_, symObjAddr: 0x37EA0, symBinAddr: 0x10006B094, symSize: 0x60 }
  - { offsetInCU: 0x656F8, offset: 0xC5531, size: 0x8, addend: 0x0, symName: __ZNSt3__135__uninitialized_allocator_copy_implB8ue170006INS_9allocatorIN5Catch3PtrINS2_8Matchers4Impl7MatcherINS_12basic_stringIcNS_11char_traitsIcEENS1_IcEEEEEEEEEEPSD_SF_SF_EET2_RT_T0_T1_SG_, symObjAddr: 0x37F00, symBinAddr: 0x10006B0F4, symSize: 0xF4 }
  - { offsetInCU: 0x65797, offset: 0xC55D0, size: 0x8, addend: 0x0, symName: __ZNSt3__113__unwrap_iterB8ue170006IPN5Catch3PtrINS1_8Matchers4Impl7MatcherINS_12basic_stringIcNS_11char_traitsIcEENS_9allocatorIcEEEEEEEENS_18__unwrap_iter_implISE_Lb1EEELi0EEEDTclsrT0_8__unwrapclsr3stdE7declvalIT_EEEESI_, symObjAddr: 0x37FF4, symBinAddr: 0x10006B1E8, symSize: 0x24 }
  - { offsetInCU: 0x657DB, offset: 0xC5614, size: 0x8, addend: 0x0, symName: __ZNSt3__113__rewrap_iterB8ue170006IPN5Catch3PtrINS1_8Matchers4Impl7MatcherINS_12basic_stringIcNS_11char_traitsIcEENS_9allocatorIcEEEEEEEESE_NS_18__unwrap_iter_implISE_Lb1EEEEET_SH_T0_, symObjAddr: 0x38018, symBinAddr: 0x10006B20C, symSize: 0x3C }
  - { offsetInCU: 0x6582F, offset: 0xC5668, size: 0x8, addend: 0x0, symName: __ZNSt3__19make_pairB8ue170006IPN5Catch3PtrINS1_8Matchers4Impl7MatcherINS_12basic_stringIcNS_11char_traitsIcEENS_9allocatorIcEEEEEEEESE_EENS_4pairINS_18__unwrap_ref_decayIT_E4typeENSG_IT0_E4typeEEEOSH_OSK_, symObjAddr: 0x38054, symBinAddr: 0x10006B248, symSize: 0x38 }
  - { offsetInCU: 0x65953, offset: 0xC578C, size: 0x8, addend: 0x0, symName: __ZNSt3__122__make_exception_guardB8ue170006INS_29_AllocatorDestroyRangeReverseINS_9allocatorIN5Catch3PtrINS3_8Matchers4Impl7MatcherINS_12basic_stringIcNS_11char_traitsIcEENS2_IcEEEEEEEEEEPSE_EEEENS_28__exception_guard_exceptionsIT_EESJ_, symObjAddr: 0x380FC, symBinAddr: 0x10006B2F0, symSize: 0x4C }
  - { offsetInCU: 0x65988, offset: 0xC57C1, size: 0x8, addend: 0x0, symName: __ZNSt3__119__allocator_destroyB8ue170006INS_9allocatorIN5Catch3PtrINS2_8Matchers4Impl7MatcherINS_12basic_stringIcNS_11char_traitsIcEENS1_IcEEEEEEEEEENS_16reverse_iteratorIPSD_EESH_EEvRT_T0_T1_, symObjAddr: 0x3842C, symBinAddr: 0x10006B620, symSize: 0x70 }
  - { offsetInCU: 0x659EC, offset: 0xC5825, size: 0x8, addend: 0x0, symName: __ZNSt3__1neB8ue170006IPN5Catch3PtrINS1_8Matchers4Impl7MatcherINS_12basic_stringIcNS_11char_traitsIcEENS_9allocatorIcEEEEEEEESE_EEbRKNS_16reverse_iteratorIT_EERKNSF_IT0_EE, symObjAddr: 0x384D0, symBinAddr: 0x10006B6C4, symSize: 0x48 }
  - { offsetInCU: 0x65A38, offset: 0xC5871, size: 0x8, addend: 0x0, symName: __ZNSt3__112__to_addressB8ue170006INS_16reverse_iteratorIPN5Catch3PtrINS2_8Matchers4Impl7MatcherINS_12basic_stringIcNS_11char_traitsIcEENS_9allocatorIcEEEEEEEEEEvEEu7__decayIDTclsr19__to_address_helperIT_EE6__callclsr3stdE7declvalIRKSH_EEEEESJ_, symObjAddr: 0x38518, symBinAddr: 0x10006B70C, symSize: 0x24 }
  - { offsetInCU: 0x65AEA, offset: 0xC5923, size: 0x8, addend: 0x0, symName: __ZNSt3__112__to_addressB8ue170006IN5Catch3PtrINS1_18IStreamingReporterEEEEEPT_S6_, symObjAddr: 0x39DE4, symBinAddr: 0x10006CFD8, symSize: 0x14 }
  - { offsetInCU: 0x65B1F, offset: 0xC5958, size: 0x8, addend: 0x0, symName: __ZNSt3__1neB8ue170006IPKN5Catch3PtrINS1_18IStreamingReporterEEEEEbRKNS_11__wrap_iterIT_EESB_, symObjAddr: 0x3A028, symBinAddr: 0x10006D21C, symSize: 0x34 }
  - { offsetInCU: 0x65B62, offset: 0xC599B, size: 0x8, addend: 0x0, symName: __ZNSt3__1eqB8ue170006IPKN5Catch3PtrINS1_18IStreamingReporterEEEEEbRKNS_11__wrap_iterIT_EESB_, symObjAddr: 0x3A170, symBinAddr: 0x10006D364, symSize: 0x48 }
  - { offsetInCU: 0x65BA5, offset: 0xC59DE, size: 0x8, addend: 0x0, symName: __ZNSt3__119__allocate_at_leastB8ue170006INS_9allocatorIN5Catch3PtrINS2_18IStreamingReporterEEEEEEENS_19__allocation_resultINS_16allocator_traitsIT_E7pointerEEERS9_m, symObjAddr: 0x3A98C, symBinAddr: 0x10006DB80, symSize: 0x40 }
  - { offsetInCU: 0x65BE7, offset: 0xC5A20, size: 0x8, addend: 0x0, symName: __ZNSt3__142__uninitialized_allocator_move_if_noexceptB8ue170006INS_9allocatorIN5Catch3PtrINS2_18IStreamingReporterEEEEENS_16reverse_iteratorIPS5_EES9_S9_EET2_RT_T0_T1_SA_, symObjAddr: 0x3AB40, symBinAddr: 0x10006DD34, symSize: 0x12C }
  - { offsetInCU: 0x65C88, offset: 0xC5AC1, size: 0x8, addend: 0x0, symName: __ZNSt3__14swapB8ue170006IPN5Catch3PtrINS1_18IStreamingReporterEEEEENS_9enable_ifIXaasr21is_move_constructibleIT_EE5valuesr18is_move_assignableIS7_EE5valueEvE4typeERS7_SA_, symObjAddr: 0x3ACB8, symBinAddr: 0x10006DEAC, symSize: 0x3C }
  - { offsetInCU: 0x65CD9, offset: 0xC5B12, size: 0x8, addend: 0x0, symName: __ZNSt3__122__make_exception_guardB8ue170006INS_29_AllocatorDestroyRangeReverseINS_9allocatorIN5Catch3PtrINS3_18IStreamingReporterEEEEENS_16reverse_iteratorIPS6_EEEEEENS_28__exception_guard_exceptionsIT_EESD_, symObjAddr: 0x3ADA0, symBinAddr: 0x10006DF94, symSize: 0x4C }
  - { offsetInCU: 0x65D0F, offset: 0xC5B48, size: 0x8, addend: 0x0, symName: __ZNSt3__1neB8ue170006IPN5Catch3PtrINS1_18IStreamingReporterEEES5_EEbRKNS_16reverse_iteratorIT_EERKNS6_IT0_EE, symObjAddr: 0x3AE30, symBinAddr: 0x10006E024, symSize: 0x48 }
  - { offsetInCU: 0x65D5B, offset: 0xC5B94, size: 0x8, addend: 0x0, symName: __ZNSt3__112__to_addressB8ue170006INS_16reverse_iteratorIPN5Catch3PtrINS2_18IStreamingReporterEEEEEvEEu7__decayIDTclsr19__to_address_helperIT_EE6__callclsr3stdE7declvalIRKS8_EEEEESA_, symObjAddr: 0x3AE78, symBinAddr: 0x10006E06C, symSize: 0x24 }
  - { offsetInCU: 0x65DB9, offset: 0xC5BF2, size: 0x8, addend: 0x0, symName: __ZNSt3__119__allocator_destroyB8ue170006INS_9allocatorIN5Catch3PtrINS2_18IStreamingReporterEEEEENS_16reverse_iteratorINS7_IPS5_EEEESA_EEvRT_T0_T1_, symObjAddr: 0x3B128, symBinAddr: 0x10006E31C, symSize: 0x70 }
  - { offsetInCU: 0x65E1F, offset: 0xC5C58, size: 0x8, addend: 0x0, symName: __ZNSt3__1neB8ue170006INS_16reverse_iteratorIPN5Catch3PtrINS2_18IStreamingReporterEEEEES7_EEbRKNS1_IT_EERKNS1_IT0_EE, symObjAddr: 0x3B1D4, symBinAddr: 0x10006E3C8, symSize: 0x60 }
  - { offsetInCU: 0x65E6B, offset: 0xC5CA4, size: 0x8, addend: 0x0, symName: __ZNSt3__112__to_addressB8ue170006INS_16reverse_iteratorINS1_IPN5Catch3PtrINS2_18IStreamingReporterEEEEEEEvEEu7__decayIDTclsr19__to_address_helperIT_EE6__callclsr3stdE7declvalIRKS9_EEEEESB_, symObjAddr: 0x3B234, symBinAddr: 0x10006E428, symSize: 0x24 }
  - { offsetInCU: 0x65EC9, offset: 0xC5D02, size: 0x8, addend: 0x0, symName: __ZNSt3__1neB8ue170006ERKNS_16__deque_iteratorIiPiRiPS1_lLl1024EEES6_, symObjAddr: 0x3C1E8, symBinAddr: 0x10006F2C8, symSize: 0x34 }
  - { offsetInCU: 0x65F06, offset: 0xC5D3F, size: 0x8, addend: 0x0, symName: __ZNSt3__1eqB8ue170006ERKNS_16__deque_iteratorIiPiRiPS1_lLl1024EEES6_, symObjAddr: 0x3C534, symBinAddr: 0x10006F5D4, symSize: 0x30 }
  - { offsetInCU: 0x65F44, offset: 0xC5D7D, size: 0x8, addend: 0x0, symName: __ZNSt3__112__to_addressB8ue170006IPiEEPT_S3_, symObjAddr: 0x3CF7C, symBinAddr: 0x10006FFA0, symSize: 0x14 }
  - { offsetInCU: 0x65F79, offset: 0xC5DB2, size: 0x8, addend: 0x0, symName: __ZNSt3__1eqB8ue170006IPKNS_4pairIidEEEEbRKNS_11__wrap_iterIT_EES9_, symObjAddr: 0x3D110, symBinAddr: 0x1000700D4, symSize: 0x48 }
  - { offsetInCU: 0x65FBC, offset: 0xC5DF5, size: 0x8, addend: 0x0, symName: __ZNSt3__1eqB8ue170006IPdEEbRKNS_11__wrap_iterIT_EES6_, symObjAddr: 0x3D1DC, symBinAddr: 0x100070134, symSize: 0x48 }
  - { offsetInCU: 0x65FFF, offset: 0xC5E38, size: 0x8, addend: 0x0, symName: __ZNSt3__112__to_addressB8ue170006IN5Catch5Clara11CommandLineINS1_10ConfigDataEE3ArgEEEPT_S8_, symObjAddr: 0x41140, symBinAddr: 0x100074098, symSize: 0x14 }
  - { offsetInCU: 0x66034, offset: 0xC5E6D, size: 0x8, addend: 0x0, symName: __ZNSt3__119__allocate_at_leastB8ue170006INS_9allocatorIN5Catch5Clara11CommandLineINS2_10ConfigDataEE3ArgEEEEENS_19__allocation_resultINS_16allocator_traitsIT_E7pointerEEERSB_m, symObjAddr: 0x41A6C, symBinAddr: 0x1000749C4, symSize: 0x40 }
  - { offsetInCU: 0x66076, offset: 0xC5EAF, size: 0x8, addend: 0x0, symName: __ZNSt3__142__uninitialized_allocator_move_if_noexceptB8ue170006INS_9allocatorIN5Catch5Clara11CommandLineINS2_10ConfigDataEE3ArgEEENS_16reverse_iteratorIPS7_EESB_SB_EET2_RT_T0_T1_SC_, symObjAddr: 0x41CF8, symBinAddr: 0x100074C50, symSize: 0x12C }
  - { offsetInCU: 0x66117, offset: 0xC5F50, size: 0x8, addend: 0x0, symName: __ZNSt3__14swapB8ue170006IPN5Catch5Clara11CommandLineINS1_10ConfigDataEE3ArgEEENS_9enable_ifIXaasr21is_move_constructibleIT_EE5valuesr18is_move_assignableIS9_EE5valueEvE4typeERS9_SC_, symObjAddr: 0x41E70, symBinAddr: 0x100074DC8, symSize: 0x3C }
  - { offsetInCU: 0x66168, offset: 0xC5FA1, size: 0x8, addend: 0x0, symName: __ZNSt3__122__make_exception_guardB8ue170006INS_29_AllocatorDestroyRangeReverseINS_9allocatorIN5Catch5Clara11CommandLineINS3_10ConfigDataEE3ArgEEENS_16reverse_iteratorIPS8_EEEEEENS_28__exception_guard_exceptionsIT_EESF_, symObjAddr: 0x41FBC, symBinAddr: 0x100074F14, symSize: 0x4C }
  - { offsetInCU: 0x6619E, offset: 0xC5FD7, size: 0x8, addend: 0x0, symName: __ZNSt3__1neB8ue170006IPN5Catch5Clara11CommandLineINS1_10ConfigDataEE3ArgES7_EEbRKNS_16reverse_iteratorIT_EERKNS8_IT0_EE, symObjAddr: 0x4204C, symBinAddr: 0x100074FA4, symSize: 0x48 }
  - { offsetInCU: 0x661EA, offset: 0xC6023, size: 0x8, addend: 0x0, symName: __ZNSt3__112__to_addressB8ue170006INS_16reverse_iteratorIPN5Catch5Clara11CommandLineINS2_10ConfigDataEE3ArgEEEvEEu7__decayIDTclsr19__to_address_helperIT_EE6__callclsr3stdE7declvalIRKSA_EEEEESC_, symObjAddr: 0x420C8, symBinAddr: 0x100075020, symSize: 0x24 }
  - { offsetInCU: 0x66248, offset: 0xC6081, size: 0x8, addend: 0x0, symName: __ZNSt3__119__allocator_destroyB8ue170006INS_9allocatorIN5Catch5Clara11CommandLineINS2_10ConfigDataEE3ArgEEENS_16reverse_iteratorINS9_IPS7_EEEESC_EEvRT_T0_T1_, symObjAddr: 0x425F8, symBinAddr: 0x100075550, symSize: 0x70 }
  - { offsetInCU: 0x662AE, offset: 0xC60E7, size: 0x8, addend: 0x0, symName: __ZNSt3__1neB8ue170006INS_16reverse_iteratorIPN5Catch5Clara11CommandLineINS2_10ConfigDataEE3ArgEEES9_EEbRKNS1_IT_EERKNS1_IT0_EE, symObjAddr: 0x426A4, symBinAddr: 0x1000755FC, symSize: 0x60 }
  - { offsetInCU: 0x662FA, offset: 0xC6133, size: 0x8, addend: 0x0, symName: __ZNSt3__112__to_addressB8ue170006INS_16reverse_iteratorINS1_IPN5Catch5Clara11CommandLineINS2_10ConfigDataEE3ArgEEEEEvEEu7__decayIDTclsr19__to_address_helperIT_EE6__callclsr3stdE7declvalIRKSB_EEEEESD_, symObjAddr: 0x42730, symBinAddr: 0x100075688, symSize: 0x24 }
  - { offsetInCU: 0x66358, offset: 0xC6191, size: 0x8, addend: 0x0, symName: __ZNSt3__142__uninitialized_allocator_move_if_noexceptB8ue170006INS_9allocatorINS_12basic_stringIcNS_11char_traitsIcEENS1_IcEEEEEENS_16reverse_iteratorIPS6_EESA_SA_EET2_RT_T0_T1_SB_, symObjAddr: 0x43E80, symBinAddr: 0x100076DD8, symSize: 0x11C }
  - { offsetInCU: 0x663F9, offset: 0xC6232, size: 0x8, addend: 0x0, symName: __ZNSt3__14swapB8ue170006IPNS_12basic_stringIcNS_11char_traitsIcEENS_9allocatorIcEEEEEENS_9enable_ifIXaasr21is_move_constructibleIT_EE5valuesr18is_move_assignableIS9_EE5valueEvE4typeERS9_SC_, symObjAddr: 0x43F9C, symBinAddr: 0x100076EF4, symSize: 0x3C }
  - { offsetInCU: 0x6644A, offset: 0xC6283, size: 0x8, addend: 0x0, symName: __ZNSt3__122__make_exception_guardB8ue170006INS_29_AllocatorDestroyRangeReverseINS_9allocatorINS_12basic_stringIcNS_11char_traitsIcEENS2_IcEEEEEENS_16reverse_iteratorIPS7_EEEEEENS_28__exception_guard_exceptionsIT_EESE_, symObjAddr: 0x43FD8, symBinAddr: 0x100076F30, symSize: 0x4C }
  - { offsetInCU: 0x6647F, offset: 0xC62B8, size: 0x8, addend: 0x0, symName: __ZNSt3__119__allocator_destroyB8ue170006INS_9allocatorINS_12basic_stringIcNS_11char_traitsIcEENS1_IcEEEEEENS_16reverse_iteratorINS8_IPS6_EEEESB_EEvRT_T0_T1_, symObjAddr: 0x442B4, symBinAddr: 0x10007720C, symSize: 0x70 }
  - { offsetInCU: 0x664E5, offset: 0xC631E, size: 0x8, addend: 0x0, symName: __ZNSt3__1neB8ue170006INS_16reverse_iteratorIPNS_12basic_stringIcNS_11char_traitsIcEENS_9allocatorIcEEEEEES9_EEbRKNS1_IT_EERKNS1_IT0_EE, symObjAddr: 0x44360, symBinAddr: 0x1000772B8, symSize: 0x60 }
  - { offsetInCU: 0x66531, offset: 0xC636A, size: 0x8, addend: 0x0, symName: __ZNSt3__112__to_addressB8ue170006INS_16reverse_iteratorINS1_IPNS_12basic_stringIcNS_11char_traitsIcEENS_9allocatorIcEEEEEEEEvEEu7__decayIDTclsr19__to_address_helperIT_EE6__callclsr3stdE7declvalIRKSB_EEEEESD_, symObjAddr: 0x443C0, symBinAddr: 0x100077318, symSize: 0x24 }
  - { offsetInCU: 0x66E70, offset: 0xC6CA9, size: 0x8, addend: 0x0, symName: __ZNSt3__17getlineB8ue170006IcNS_11char_traitsIcEENS_9allocatorIcEEEERNS_13basic_istreamIT_T0_EES9_RNS_12basic_stringIS6_S7_T1_EE, symObjAddr: 0x45858, symBinAddr: 0x100078604, symSize: 0x5C }
  - { offsetInCU: 0x66ED3, offset: 0xC6D0C, size: 0x8, addend: 0x0, symName: __ZNSt3__17getlineB8ue170006IcNS_11char_traitsIcEENS_9allocatorIcEEEERNS_13basic_istreamIT_T0_EES9_RNS_12basic_stringIS6_S7_T1_EES6_, symObjAddr: 0x459A4, symBinAddr: 0x100078684, symSize: 0x238 }
  - { offsetInCU: 0x66F94, offset: 0xC6DCD, size: 0x8, addend: 0x0, symName: __ZNSt3__19use_facetB8ue170006INS_5ctypeIcEEEERKT_RKNS_6localeE, symObjAddr: 0x45F44, symBinAddr: 0x100078C08, symSize: 0x2C }
  - { offsetInCU: 0x6746C, offset: 0xC72A5, size: 0x8, addend: 0x0, symName: __ZNSt3__112__to_addressB8ue170006IN5Catch5Clara6Parser5TokenEEEPT_S6_, symObjAddr: 0x46668, symBinAddr: 0x1000792A0, symSize: 0x14 }
  - { offsetInCU: 0x676A2, offset: 0xC74DB, size: 0x8, addend: 0x0, symName: __ZNSt3__14swapB8ue170006IPN5Catch6ConfigEEENS_9enable_ifIXaasr21is_move_constructibleIT_EE5valuesr18is_move_assignableIS5_EE5valueEvE4typeERS5_S8_, symObjAddr: 0x47AA4, symBinAddr: 0x10007A6DC, symSize: 0x3C }
  - { offsetInCU: 0x676F2, offset: 0xC752B, size: 0x8, addend: 0x0, symName: __ZNSt3__118__str_find_last_ofB8ue170006IcmNS_11char_traitsIcEELm18446744073709551615EEET0_PKT_S3_S6_S3_S3_, symObjAddr: 0x49C4C, symBinAddr: 0x10007C78C, symSize: 0xFC }
  - { offsetInCU: 0x677C5, offset: 0xC75FE, size: 0x8, addend: 0x0, symName: __ZNSt3__118__constexpr_memchrB8ue170006IKccEEPT_S3_T0_m, symObjAddr: 0x49DB8, symBinAddr: 0x10007C8F8, symSize: 0x40 }
  - { offsetInCU: 0x6783A, offset: 0xC7673, size: 0x8, addend: 0x0, symName: __ZNSt3__1eqB8ue170006ERKNS_14__map_iteratorINS_15__tree_iteratorINS_12__value_typeINS_12basic_stringIcNS_11char_traitsIcEENS_9allocatorIcEEEEN5Catch7TagInfoEEEPNS_11__tree_nodeISB_PvEElEEEESJ_, symObjAddr: 0x49F50, symBinAddr: 0x10007CA90, symSize: 0x30 }
  - { offsetInCU: 0x67957, offset: 0xC7790, size: 0x8, addend: 0x0, symName: __ZNSt3__19make_pairB8ue170006IRNS_12basic_stringIcNS_11char_traitsIcEENS_9allocatorIcEEEEN5Catch7TagInfoEEENS_4pairINS_18__unwrap_ref_decayIT_E4typeENSB_IT0_E4typeEEEOSC_OSF_, symObjAddr: 0x4A004, symBinAddr: 0x10007CB44, symSize: 0x40 }
  - { offsetInCU: 0x679A6, offset: 0xC77DF, size: 0x8, addend: 0x0, symName: __ZNSt3__1neB8ue170006ERKNS_20__map_const_iteratorINS_21__tree_const_iteratorINS_12__value_typeINS_12basic_stringIcNS_11char_traitsIcEENS_9allocatorIcEEEEN5Catch7TagInfoEEEPNS_11__tree_nodeISB_PvEElEEEESJ_, symObjAddr: 0x4A1A0, symBinAddr: 0x10007CCE0, symSize: 0x30 }
  - { offsetInCU: 0x679E3, offset: 0xC781C, size: 0x8, addend: 0x0, symName: __ZNSt3__1neB8ue170006ERKNS_15__tree_iteratorINS_12__value_typeINS_12basic_stringIcNS_11char_traitsIcEENS_9allocatorIcEEEEN5Catch7TagInfoEEEPNS_11__tree_nodeISA_PvEElEESH_, symObjAddr: 0x4A90C, symBinAddr: 0x10007D44C, symSize: 0x34 }
  - { offsetInCU: 0x67A20, offset: 0xC7859, size: 0x8, addend: 0x0, symName: __ZNSt3__1eqB8ue170006ERKNS_15__tree_iteratorINS_12__value_typeINS_12basic_stringIcNS_11char_traitsIcEENS_9allocatorIcEEEEN5Catch7TagInfoEEEPNS_11__tree_nodeISA_PvEElEESH_, symObjAddr: 0x4AB14, symBinAddr: 0x10007D654, symSize: 0x30 }
  - { offsetInCU: 0x67AE1, offset: 0xC791A, size: 0x8, addend: 0x0, symName: __ZNSt3__1neB8ue170006ERKNS_21__tree_const_iteratorINS_12__value_typeINS_12basic_stringIcNS_11char_traitsIcEENS_9allocatorIcEEEEN5Catch7TagInfoEEEPNS_11__tree_nodeISA_PvEElEESH_, symObjAddr: 0x4BF4C, symBinAddr: 0x10007EA8C, symSize: 0x34 }
  - { offsetInCU: 0x67B1E, offset: 0xC7957, size: 0x8, addend: 0x0, symName: __ZNSt3__1eqB8ue170006ERKNS_21__tree_const_iteratorINS_12__value_typeINS_12basic_stringIcNS_11char_traitsIcEENS_9allocatorIcEEEEN5Catch7TagInfoEEEPNS_11__tree_nodeISA_PvEElEESH_, symObjAddr: 0x4BF80, symBinAddr: 0x10007EAC0, symSize: 0x30 }
  - { offsetInCU: 0x67BC2, offset: 0xC79FB, size: 0x8, addend: 0x0, symName: __ZNSt3__116__tree_next_iterB8ue170006IPNS_15__tree_end_nodeIPNS_16__tree_node_baseIPvEEEES5_EET_T0_, symObjAddr: 0x4C054, symBinAddr: 0x10007EB94, symSize: 0x80 }
  - { offsetInCU: 0x67C00, offset: 0xC7A39, size: 0x8, addend: 0x0, symName: __ZNSt3__110__tree_minB8ue170006IPNS_16__tree_node_baseIPvEEEET_S5_, symObjAddr: 0x4C0D4, symBinAddr: 0x10007EC14, symSize: 0x40 }
  - { offsetInCU: 0x67C34, offset: 0xC7A6D, size: 0x8, addend: 0x0, symName: __ZNSt3__1neB8ue170006ERKNS_20__map_const_iteratorINS_21__tree_const_iteratorINS_12__value_typeINS_12basic_stringIcNS_11char_traitsIcEENS_9allocatorIcEEEEN5Catch3PtrINS9_16IReporterFactoryEEEEEPNS_11__tree_nodeISD_PvEElEEEESL_, symObjAddr: 0x4C2FC, symBinAddr: 0x10007EE3C, symSize: 0x30 }
  - { offsetInCU: 0x67D30, offset: 0xC7B69, size: 0x8, addend: 0x0, symName: __ZNSt3__112__to_addressB8ue170006IN5Catch3PtrINS1_16TestCaseTracking8ITrackerEEEEEPT_S7_, symObjAddr: 0x52E98, symBinAddr: 0x10007FCE4, symSize: 0x14 }
  - { offsetInCU: 0x67D65, offset: 0xC7B9E, size: 0x8, addend: 0x0, symName: __ZNSt3__119__allocate_at_leastB8ue170006INS_9allocatorIN5Catch3PtrINS2_16TestCaseTracking8ITrackerEEEEEEENS_19__allocation_resultINS_16allocator_traitsIT_E7pointerEEERSA_m, symObjAddr: 0x53564, symBinAddr: 0x1000803B0, symSize: 0x40 }
  - { offsetInCU: 0x67DA7, offset: 0xC7BE0, size: 0x8, addend: 0x0, symName: __ZNSt3__142__uninitialized_allocator_move_if_noexceptB8ue170006INS_9allocatorIN5Catch3PtrINS2_16TestCaseTracking8ITrackerEEEEENS_16reverse_iteratorIPS6_EESA_SA_EET2_RT_T0_T1_SB_, symObjAddr: 0x537D0, symBinAddr: 0x10008061C, symSize: 0x12C }
  - { offsetInCU: 0x67E48, offset: 0xC7C81, size: 0x8, addend: 0x0, symName: __ZNSt3__14swapB8ue170006IPN5Catch3PtrINS1_16TestCaseTracking8ITrackerEEEEENS_9enable_ifIXaasr21is_move_constructibleIT_EE5valuesr18is_move_assignableIS8_EE5valueEvE4typeERS8_SB_, symObjAddr: 0x53948, symBinAddr: 0x100080794, symSize: 0x3C }
  - { offsetInCU: 0x67E99, offset: 0xC7CD2, size: 0x8, addend: 0x0, symName: __ZNSt3__122__make_exception_guardB8ue170006INS_29_AllocatorDestroyRangeReverseINS_9allocatorIN5Catch3PtrINS3_16TestCaseTracking8ITrackerEEEEENS_16reverse_iteratorIPS7_EEEEEENS_28__exception_guard_exceptionsIT_EESE_, symObjAddr: 0x53A78, symBinAddr: 0x1000808C4, symSize: 0x4C }
  - { offsetInCU: 0x67ECF, offset: 0xC7D08, size: 0x8, addend: 0x0, symName: __ZNSt3__1neB8ue170006IPN5Catch3PtrINS1_16TestCaseTracking8ITrackerEEES6_EEbRKNS_16reverse_iteratorIT_EERKNS7_IT0_EE, symObjAddr: 0x53B08, symBinAddr: 0x100080954, symSize: 0x48 }
  - { offsetInCU: 0x67F1B, offset: 0xC7D54, size: 0x8, addend: 0x0, symName: __ZNSt3__112__to_addressB8ue170006INS_16reverse_iteratorIPN5Catch3PtrINS2_16TestCaseTracking8ITrackerEEEEEvEEu7__decayIDTclsr19__to_address_helperIT_EE6__callclsr3stdE7declvalIRKS9_EEEEESB_, symObjAddr: 0x53B50, symBinAddr: 0x10008099C, symSize: 0x24 }
  - { offsetInCU: 0x67F79, offset: 0xC7DB2, size: 0x8, addend: 0x0, symName: __ZNSt3__119__allocator_destroyB8ue170006INS_9allocatorIN5Catch3PtrINS2_16TestCaseTracking8ITrackerEEEEENS_16reverse_iteratorINS8_IPS6_EEEESB_EEvRT_T0_T1_, symObjAddr: 0x53E00, symBinAddr: 0x100080C4C, symSize: 0x70 }
  - { offsetInCU: 0x67FDF, offset: 0xC7E18, size: 0x8, addend: 0x0, symName: __ZNSt3__1neB8ue170006INS_16reverse_iteratorIPN5Catch3PtrINS2_16TestCaseTracking8ITrackerEEEEES8_EEbRKNS1_IT_EERKNS1_IT0_EE, symObjAddr: 0x53EAC, symBinAddr: 0x100080CF8, symSize: 0x60 }
  - { offsetInCU: 0x6802B, offset: 0xC7E64, size: 0x8, addend: 0x0, symName: __ZNSt3__112__to_addressB8ue170006INS_16reverse_iteratorINS1_IPN5Catch3PtrINS2_16TestCaseTracking8ITrackerEEEEEEEvEEu7__decayIDTclsr19__to_address_helperIT_EE6__callclsr3stdE7declvalIRKSA_EEEEESC_, symObjAddr: 0x53F38, symBinAddr: 0x100080D84, symSize: 0x24 }
  - { offsetInCU: 0x6808A, offset: 0xC7EC3, size: 0x8, addend: 0x0, symName: __ZNSt3__17find_ifB8ue170006INS_11__wrap_iterIPN5Catch3PtrINS2_16TestCaseTracking8ITrackerEEEEENS4_11TrackerBase14TrackerHasNameEEET_SB_SB_T0_, symObjAddr: 0x5433C, symBinAddr: 0x100081188, symSize: 0x7C }
  - { offsetInCU: 0x680E5, offset: 0xC7F1E, size: 0x8, addend: 0x0, symName: __ZNSt3__1neB8ue170006IPKN5Catch3PtrINS1_16TestCaseTracking8ITrackerEEEPS5_EEbRKNS_11__wrap_iterIT_EERKNS9_IT0_EE, symObjAddr: 0x544B4, symBinAddr: 0x100081300, symSize: 0x34 }
  - { offsetInCU: 0x68131, offset: 0xC7F6A, size: 0x8, addend: 0x0, symName: __ZNSt3__1neB8ue170006IPN5Catch3PtrINS1_16TestCaseTracking8ITrackerEEEEEbRKNS_11__wrap_iterIT_EESB_, symObjAddr: 0x54510, symBinAddr: 0x10008135C, symSize: 0x34 }
  - { offsetInCU: 0x68174, offset: 0xC7FAD, size: 0x8, addend: 0x0, symName: __ZNSt3__1eqB8ue170006IPN5Catch3PtrINS1_16TestCaseTracking8ITrackerEEEEEbRKNS_11__wrap_iterIT_EESB_, symObjAddr: 0x545E4, symBinAddr: 0x100081430, symSize: 0x48 }
  - { offsetInCU: 0x681B7, offset: 0xC7FF0, size: 0x8, addend: 0x0, symName: __ZNSt3__1eqB8ue170006IPKN5Catch3PtrINS1_16TestCaseTracking8ITrackerEEEPS5_EEbRKNS_11__wrap_iterIT_EERKNS9_IT0_EE, symObjAddr: 0x54768, symBinAddr: 0x1000815B4, symSize: 0x48 }
  - { offsetInCU: 0x68203, offset: 0xC803C, size: 0x8, addend: 0x0, symName: __ZNSt3__112__to_addressB8ue170006IKN5Catch3PtrINS1_16TestCaseTracking8ITrackerEEEEEPT_S8_, symObjAddr: 0x547C8, symBinAddr: 0x100081614, symSize: 0x14 }
  - { offsetInCU: 0x68237, offset: 0xC8070, size: 0x8, addend: 0x0, symName: __ZNSt3__14sortB8ue170006INS_11__wrap_iterIPN5Catch8TestCaseEEENS2_7LexSortEEEvT_S7_T0_, symObjAddr: 0x549D0, symBinAddr: 0x10008181C, symSize: 0x40 }
  - { offsetInCU: 0x68292, offset: 0xC80CB, size: 0x8, addend: 0x0, symName: __ZNSt3__122__make_exception_guardB8ue170006INS_6vectorIN5Catch8TestCaseENS_9allocatorIS3_EEE16__destroy_vectorEEENS_28__exception_guard_exceptionsIT_EES9_, symObjAddr: 0x54D7C, symBinAddr: 0x100081BC8, symSize: 0x40 }
  - { offsetInCU: 0x682C7, offset: 0xC8100, size: 0x8, addend: 0x0, symName: __ZNSt3__119__allocate_at_leastB8ue170006INS_9allocatorIN5Catch8TestCaseEEEEENS_19__allocation_resultINS_16allocator_traitsIT_E7pointerEEERS7_m, symObjAddr: 0x5506C, symBinAddr: 0x100081EB8, symSize: 0x40 }
  - { offsetInCU: 0x6830A, offset: 0xC8143, size: 0x8, addend: 0x0, symName: __ZNSt3__112__to_addressB8ue170006IN5Catch8TestCaseEEEPT_S4_, symObjAddr: 0x55354, symBinAddr: 0x1000821A0, symSize: 0x14 }
  - { offsetInCU: 0x6833E, offset: 0xC8177, size: 0x8, addend: 0x0, symName: __ZNSt3__130__uninitialized_allocator_copyB8ue170006INS_9allocatorIN5Catch8TestCaseEEEPS3_S5_S5_EET2_RT_T0_T1_S6_, symObjAddr: 0x55404, symBinAddr: 0x100082250, symSize: 0x80 }
  - { offsetInCU: 0x683DC, offset: 0xC8215, size: 0x8, addend: 0x0, symName: __ZNSt3__114__unwrap_rangeB8ue170006IPN5Catch8TestCaseES3_EENS_4pairIT0_S5_EET_S7_, symObjAddr: 0x554FC, symBinAddr: 0x100082348, symSize: 0x60 }
  - { offsetInCU: 0x68427, offset: 0xC8260, size: 0x8, addend: 0x0, symName: __ZNSt3__135__uninitialized_allocator_copy_implB8ue170006INS_9allocatorIN5Catch8TestCaseEEEPS3_S5_S5_EET2_RT_T0_T1_S6_, symObjAddr: 0x5555C, symBinAddr: 0x1000823A8, symSize: 0xF4 }
  - { offsetInCU: 0x684C6, offset: 0xC82FF, size: 0x8, addend: 0x0, symName: __ZNSt3__113__unwrap_iterB8ue170006IPN5Catch8TestCaseENS_18__unwrap_iter_implIS3_Lb1EEELi0EEEDTclsrT0_8__unwrapclsr3stdE7declvalIT_EEEES7_, symObjAddr: 0x55650, symBinAddr: 0x10008249C, symSize: 0x24 }
  - { offsetInCU: 0x6850A, offset: 0xC8343, size: 0x8, addend: 0x0, symName: __ZNSt3__113__rewrap_iterB8ue170006IPN5Catch8TestCaseES3_NS_18__unwrap_iter_implIS3_Lb1EEEEET_S6_T0_, symObjAddr: 0x55674, symBinAddr: 0x1000824C0, symSize: 0x3C }
  - { offsetInCU: 0x6855E, offset: 0xC8397, size: 0x8, addend: 0x0, symName: __ZNSt3__19make_pairB8ue170006IPN5Catch8TestCaseES3_EENS_4pairINS_18__unwrap_ref_decayIT_E4typeENS5_IT0_E4typeEEEOS6_OS9_, symObjAddr: 0x556B0, symBinAddr: 0x1000824FC, symSize: 0x38 }
  - { offsetInCU: 0x68682, offset: 0xC84BB, size: 0x8, addend: 0x0, symName: __ZNSt3__122__make_exception_guardB8ue170006INS_29_AllocatorDestroyRangeReverseINS_9allocatorIN5Catch8TestCaseEEEPS4_EEEENS_28__exception_guard_exceptionsIT_EES9_, symObjAddr: 0x55758, symBinAddr: 0x1000825A4, symSize: 0x4C }
  - { offsetInCU: 0x686B7, offset: 0xC84F0, size: 0x8, addend: 0x0, symName: __ZNSt3__119__allocator_destroyB8ue170006INS_9allocatorIN5Catch8TestCaseEEENS_16reverse_iteratorIPS3_EES7_EEvRT_T0_T1_, symObjAddr: 0x559E8, symBinAddr: 0x100082834, symSize: 0x70 }
  - { offsetInCU: 0x6871B, offset: 0xC8554, size: 0x8, addend: 0x0, symName: __ZNSt3__1neB8ue170006IPN5Catch8TestCaseES3_EEbRKNS_16reverse_iteratorIT_EERKNS4_IT0_EE, symObjAddr: 0x55A8C, symBinAddr: 0x1000828D8, symSize: 0x48 }
  - { offsetInCU: 0x68767, offset: 0xC85A0, size: 0x8, addend: 0x0, symName: __ZNSt3__112__to_addressB8ue170006INS_16reverse_iteratorIPN5Catch8TestCaseEEEvEEu7__decayIDTclsr19__to_address_helperIT_EE6__callclsr3stdE7declvalIRKS6_EEEEES8_, symObjAddr: 0x55B00, symBinAddr: 0x10008294C, symSize: 0x24 }
  - { offsetInCU: 0x68818, offset: 0xC8651, size: 0x8, addend: 0x0, symName: __ZNSt3__111__sort_implB8ue170006INS_17_ClassicAlgPolicyENS_11__wrap_iterIPN5Catch8TestCaseEEENS3_7LexSortEEEvT0_S8_RT1_, symObjAddr: 0x55FAC, symBinAddr: 0x100082DF8, symSize: 0xA8 }
  - { offsetInCU: 0x6887C, offset: 0xC86B5, size: 0x8, addend: 0x0, symName: __ZNSt3__123__debug_randomize_rangeB8ue170006INS_17_ClassicAlgPolicyENS_11__wrap_iterIPN5Catch8TestCaseEEES6_EEvT0_T1_, symObjAddr: 0x56054, symBinAddr: 0x100082EA0, symSize: 0x14 }
  - { offsetInCU: 0x688CD, offset: 0xC8706, size: 0x8, addend: 0x0, symName: __ZNSt3__115__sort_dispatchB8ue170006INS_17_ClassicAlgPolicyEPN5Catch8TestCaseENS2_7LexSortEEEvT0_S6_RT1_, symObjAddr: 0x56068, symBinAddr: 0x100082EB4, symSize: 0x64 }
  - { offsetInCU: 0x6894C, offset: 0xC8785, size: 0x8, addend: 0x0, symName: __ZNSt3__113__unwrap_iterB8ue170006INS_11__wrap_iterIPN5Catch8TestCaseEEENS_18__unwrap_iter_implIS5_Lb1EEELi0EEEDTclsrT0_8__unwrapclsr3stdE7declvalIT_EEEES9_, symObjAddr: 0x560CC, symBinAddr: 0x100082F18, symSize: 0x2C }
  - { offsetInCU: 0x68990, offset: 0xC87C9, size: 0x8, addend: 0x0, symName: __ZNSt3__135__check_strict_weak_ordering_sortedB8ue170006IPN5Catch8TestCaseENS1_7LexSortEEEvT_S5_RT0_, symObjAddr: 0x560F8, symBinAddr: 0x100082F44, symSize: 0x18 }
  - { offsetInCU: 0x689E7, offset: 0xC8820, size: 0x8, addend: 0x0, symName: __ZNSt3__124__sort3_maybe_branchlessB8ue170006INS_17_ClassicAlgPolicyERN5Catch7LexSortEPNS2_8TestCaseEEENS_9enable_ifIXntsr21__use_branchless_sortIT0_T1_EE5valueEvE4typeES9_S9_S9_S8_, symObjAddr: 0x568A8, symBinAddr: 0x100083684, symSize: 0x3C }
  - { offsetInCU: 0x68A58, offset: 0xC8891, size: 0x8, addend: 0x0, symName: __ZNSt3__124__sort4_maybe_branchlessB8ue170006INS_17_ClassicAlgPolicyERN5Catch7LexSortEPNS2_8TestCaseEEENS_9enable_ifIXntsr21__use_branchless_sortIT0_T1_EE5valueEvE4typeES9_S9_S9_S9_S8_, symObjAddr: 0x568E4, symBinAddr: 0x1000836C0, symSize: 0x44 }
  - { offsetInCU: 0x68AD7, offset: 0xC8910, size: 0x8, addend: 0x0, symName: __ZNSt3__124__sort5_maybe_branchlessB8ue170006INS_17_ClassicAlgPolicyERN5Catch7LexSortEPNS2_8TestCaseEEENS_9enable_ifIXntsr21__use_branchless_sortIT0_T1_EE5valueEvE4typeES9_S9_S9_S9_S9_S8_, symObjAddr: 0x56928, symBinAddr: 0x100083704, symSize: 0x4C }
  - { offsetInCU: 0x68B64, offset: 0xC899D, size: 0x8, addend: 0x0, symName: __ZNSt3__116__insertion_sortB8ue170006INS_17_ClassicAlgPolicyERN5Catch7LexSortEPNS2_8TestCaseEEEvT1_S7_T0_, symObjAddr: 0x56974, symBinAddr: 0x100083750, symSize: 0x308 }
  - { offsetInCU: 0x68C1B, offset: 0xC8A54, size: 0x8, addend: 0x0, symName: __ZNSt3__114__partial_sortB8ue170006INS_17_ClassicAlgPolicyERN5Catch7LexSortEPNS2_8TestCaseES6_EET1_S7_S7_T2_RT0_, symObjAddr: 0x56EA8, symBinAddr: 0x100083C84, symSize: 0x94 }
  - { offsetInCU: 0x68CA3, offset: 0xC8ADC, size: 0x8, addend: 0x0, symName: __ZNSt3__17__sort3B8ue170006INS_17_ClassicAlgPolicyERN5Catch7LexSortEPNS2_8TestCaseEEEjT1_S7_S7_T0_, symObjAddr: 0x56F3C, symBinAddr: 0x100083D18, symSize: 0x334 }
  - { offsetInCU: 0x68D22, offset: 0xC8B5B, size: 0x8, addend: 0x0, symName: __ZNSt3__19iter_swapB8ue170006IPN5Catch8TestCaseES3_EEvT_T0_, symObjAddr: 0x58738, symBinAddr: 0x100085514, symSize: 0x2C }
  - { offsetInCU: 0x68D6A, offset: 0xC8BA3, size: 0x8, addend: 0x0, symName: __ZNSt3__14swapB8ue170006IN5Catch8TestCaseEEENS_9enable_ifIXaasr21is_move_constructibleIT_EE5valuesr18is_move_assignableIS4_EE5valueEvE4typeERS4_S7_, symObjAddr: 0x58764, symBinAddr: 0x100085540, symSize: 0x8C }
  - { offsetInCU: 0x68DBB, offset: 0xC8BF4, size: 0x8, addend: 0x0, symName: __ZNSt3__17__sort4B8ue170006INS_17_ClassicAlgPolicyERN5Catch7LexSortEPNS2_8TestCaseEEEvT1_S7_S7_S7_T0_, symObjAddr: 0x587F0, symBinAddr: 0x1000855CC, symSize: 0x1E8 }
  - { offsetInCU: 0x68E36, offset: 0xC8C6F, size: 0x8, addend: 0x0, symName: __ZNSt3__17__sort5B8ue170006INS_17_ClassicAlgPolicyERN5Catch7LexSortEPNS2_8TestCaseEEEvT1_S7_S7_S7_S7_T0_, symObjAddr: 0x589D8, symBinAddr: 0x1000857B4, symSize: 0x278 }
  - { offsetInCU: 0x68EE3, offset: 0xC8D1C, size: 0x8, addend: 0x0, symName: __ZNSt3__123__debug_randomize_rangeB8ue170006INS_17_ClassicAlgPolicyEPN5Catch8TestCaseES4_EEvT0_T1_, symObjAddr: 0x58C94, symBinAddr: 0x100085A70, symSize: 0x14 }
  - { offsetInCU: 0x68F35, offset: 0xC8D6E, size: 0x8, addend: 0x0, symName: __ZNSt3__119__partial_sort_implB8ue170006INS_17_ClassicAlgPolicyERN5Catch7LexSortEPNS2_8TestCaseES6_EET1_S7_S7_T2_OT0_, symObjAddr: 0x58CA8, symBinAddr: 0x100085A84, symSize: 0x1B8 }
  - { offsetInCU: 0x68FCC, offset: 0xC8E05, size: 0x8, addend: 0x0, symName: __ZNSt3__111__make_heapB8ue170006INS_17_ClassicAlgPolicyERN5Catch7LexSortEPNS2_8TestCaseEEEvT1_S7_OT0_, symObjAddr: 0x58E60, symBinAddr: 0x100085C3C, symSize: 0xC0 }
  - { offsetInCU: 0x6906E, offset: 0xC8EA7, size: 0x8, addend: 0x0, symName: __ZNSt3__111__sort_heapB8ue170006INS_17_ClassicAlgPolicyERN5Catch7LexSortEPNS2_8TestCaseEEEvT1_S7_OT0_, symObjAddr: 0x593FC, symBinAddr: 0x1000861D8, symSize: 0xA8 }
  - { offsetInCU: 0x69110, offset: 0xC8F49, size: 0x8, addend: 0x0, symName: __ZNSt3__110__pop_heapB8ue170006INS_17_ClassicAlgPolicyEN5Catch7LexSortEPNS2_8TestCaseEEEvT1_S6_RT0_NS_15iterator_traitsIS6_E15difference_typeE, symObjAddr: 0x594A4, symBinAddr: 0x100086280, symSize: 0x164 }
  - { offsetInCU: 0x691B9, offset: 0xC8FF2, size: 0x8, addend: 0x0, symName: __ZNSt3__19__sift_upB8ue170006INS_17_ClassicAlgPolicyERN5Catch7LexSortEPNS2_8TestCaseEEEvT1_S7_OT0_NS_15iterator_traitsIS7_E15difference_typeE, symObjAddr: 0x5981C, symBinAddr: 0x1000865F8, symSize: 0x238 }
  - { offsetInCU: 0x6925B, offset: 0xC9094, size: 0x8, addend: 0x0, symName: __ZNSt3__122__populate_left_bitsetB8ue170006IRN5Catch7LexSortEPNS1_8TestCaseES4_EEvT0_T_RT1_Ry, symObjAddr: 0x59A54, symBinAddr: 0x100086830, symSize: 0x134 }
  - { offsetInCU: 0x69308, offset: 0xC9141, size: 0x8, addend: 0x0, symName: __ZNSt3__123__populate_right_bitsetB8ue170006IRN5Catch7LexSortEPNS1_8TestCaseES4_EEvT0_T_RT1_Ry, symObjAddr: 0x59B88, symBinAddr: 0x100086964, symSize: 0x124 }
  - { offsetInCU: 0x693B5, offset: 0xC91EE, size: 0x8, addend: 0x0, symName: __ZNSt3__117__swap_bitmap_posB8ue170006INS_17_ClassicAlgPolicyEPN5Catch8TestCaseEEEvT0_S5_RyS6_, symObjAddr: 0x59CAC, symBinAddr: 0x100086A88, symSize: 0x104 }
  - { offsetInCU: 0x69456, offset: 0xC928F, size: 0x8, addend: 0x0, symName: __ZNSt3__133__bitset_partition_partial_blocksB8ue170006INS_17_ClassicAlgPolicyERN5Catch7LexSortEPNS2_8TestCaseES5_EEvRT1_S8_T0_RT2_RySC_, symObjAddr: 0x59DB0, symBinAddr: 0x100086B8C, symSize: 0x3C8 }
  - { offsetInCU: 0x695C3, offset: 0xC93FC, size: 0x8, addend: 0x0, symName: __ZNSt3__19make_pairB8ue170006IRPN5Catch8TestCaseERbEENS_4pairINS_18__unwrap_ref_decayIT_E4typeENS7_IT0_E4typeEEEOS8_OSB_, symObjAddr: 0x5A360, symBinAddr: 0x10008713C, symSize: 0x38 }
  - { offsetInCU: 0x6973A, offset: 0xC9573, size: 0x8, addend: 0x0, symName: __ZNSt3__112__to_addressB8ue170006INS_11__wrap_iterIPN5Catch8TestCaseEEEvEEu7__decayIDTclsr19__to_address_helperIT_EE6__callclsr3stdE7declvalIRKS6_EEEEES8_, symObjAddr: 0x5A4D0, symBinAddr: 0x100087244, symSize: 0x24 }
  - { offsetInCU: 0x69815, offset: 0xC964E, size: 0x8, addend: 0x0, symName: __ZNSt3__1miB8ue170006IPN5Catch8TestCaseES3_EEDTmicldtfp_4baseEcldtfp0_4baseEERKNS_11__wrap_iterIT_EERKNS5_IT0_EE, symObjAddr: 0x5A550, symBinAddr: 0x1000872C4, symSize: 0x48 }
  - { offsetInCU: 0x69861, offset: 0xC969A, size: 0x8, addend: 0x0, symName: __ZNSt3__1ltB8ue170006IPN5Catch8TestCaseEEEbRKNS_11__wrap_iterIT_EES8_, symObjAddr: 0x5A5B8, symBinAddr: 0x10008732C, symSize: 0x48 }
  - { offsetInCU: 0x698A4, offset: 0xC96DD, size: 0x8, addend: 0x0, symName: __ZNSt3__112__to_addressB8ue170006IN5Catch11SectionInfoEEEPT_S4_, symObjAddr: 0x5ADD0, symBinAddr: 0x100087B44, symSize: 0x14 }
  - { offsetInCU: 0x698D9, offset: 0xC9712, size: 0x8, addend: 0x0, symName: __ZNSt3__119__allocate_at_leastB8ue170006INS_9allocatorIN5Catch11SectionInfoEEEEENS_19__allocation_resultINS_16allocator_traitsIT_E7pointerEEERS7_m, symObjAddr: 0x5B414, symBinAddr: 0x100088188, symSize: 0x40 }
  - { offsetInCU: 0x6991B, offset: 0xC9754, size: 0x8, addend: 0x0, symName: __ZNSt3__142__uninitialized_allocator_move_if_noexceptB8ue170006INS_9allocatorIN5Catch11SectionInfoEEENS_16reverse_iteratorIPS3_EES7_S7_EET2_RT_T0_T1_S8_, symObjAddr: 0x5B6BC, symBinAddr: 0x100088430, symSize: 0x12C }
  - { offsetInCU: 0x699BC, offset: 0xC97F5, size: 0x8, addend: 0x0, symName: __ZNSt3__14swapB8ue170006IPN5Catch11SectionInfoEEENS_9enable_ifIXaasr21is_move_constructibleIT_EE5valuesr18is_move_assignableIS5_EE5valueEvE4typeERS5_S8_, symObjAddr: 0x5B834, symBinAddr: 0x1000885A8, symSize: 0x3C }
  - { offsetInCU: 0x69A0D, offset: 0xC9846, size: 0x8, addend: 0x0, symName: __ZNSt3__122__make_exception_guardB8ue170006INS_29_AllocatorDestroyRangeReverseINS_9allocatorIN5Catch11SectionInfoEEENS_16reverse_iteratorIPS4_EEEEEENS_28__exception_guard_exceptionsIT_EESB_, symObjAddr: 0x5B980, symBinAddr: 0x1000886F4, symSize: 0x4C }
  - { offsetInCU: 0x69A43, offset: 0xC987C, size: 0x8, addend: 0x0, symName: __ZNSt3__1neB8ue170006IPN5Catch11SectionInfoES3_EEbRKNS_16reverse_iteratorIT_EERKNS4_IT0_EE, symObjAddr: 0x5BA10, symBinAddr: 0x100088784, symSize: 0x48 }
  - { offsetInCU: 0x69A8F, offset: 0xC98C8, size: 0x8, addend: 0x0, symName: __ZNSt3__112__to_addressB8ue170006INS_16reverse_iteratorIPN5Catch11SectionInfoEEEvEEu7__decayIDTclsr19__to_address_helperIT_EE6__callclsr3stdE7declvalIRKS6_EEEEES8_, symObjAddr: 0x5BA8C, symBinAddr: 0x100088800, symSize: 0x24 }
  - { offsetInCU: 0x69AED, offset: 0xC9926, size: 0x8, addend: 0x0, symName: __ZNSt3__119__allocator_destroyB8ue170006INS_9allocatorIN5Catch11SectionInfoEEENS_16reverse_iteratorINS5_IPS3_EEEES8_EEvRT_T0_T1_, symObjAddr: 0x5BD6C, symBinAddr: 0x100088AE0, symSize: 0x70 }
  - { offsetInCU: 0x69B53, offset: 0xC998C, size: 0x8, addend: 0x0, symName: __ZNSt3__1neB8ue170006INS_16reverse_iteratorIPN5Catch11SectionInfoEEES5_EEbRKNS1_IT_EERKNS1_IT0_EE, symObjAddr: 0x5BE18, symBinAddr: 0x100088B8C, symSize: 0x60 }
  - { offsetInCU: 0x69B9F, offset: 0xC99D8, size: 0x8, addend: 0x0, symName: __ZNSt3__112__to_addressB8ue170006INS_16reverse_iteratorINS1_IPN5Catch11SectionInfoEEEEEvEEu7__decayIDTclsr19__to_address_helperIT_EE6__callclsr3stdE7declvalIRKS7_EEEEES9_, symObjAddr: 0x5BEA4, symBinAddr: 0x100088C18, symSize: 0x24 }
  - { offsetInCU: 0x69BFE, offset: 0xC9A37, size: 0x8, addend: 0x0, symName: __ZNSt3__17find_ifB8ue170006INS_11__wrap_iterIPN5Catch3PtrINS2_22CumulativeReporterBase11SectionNodeEEEEENS4_13BySectionInfoEEET_SA_SA_T0_, symObjAddr: 0x5C6B4, symBinAddr: 0x100089428, symSize: 0x7C }
  - { offsetInCU: 0x69C59, offset: 0xC9A92, size: 0x8, addend: 0x0, symName: __ZNSt3__1eqB8ue170006IPKN5Catch3PtrINS1_22CumulativeReporterBase11SectionNodeEEEPS5_EEbRKNS_11__wrap_iterIT_EERKNS9_IT0_EE, symObjAddr: 0x5C800, symBinAddr: 0x100089574, symSize: 0x48 }
  - { offsetInCU: 0x69CA5, offset: 0xC9ADE, size: 0x8, addend: 0x0, symName: __ZNSt3__14swapB8ue170006IPN5Catch22CumulativeReporterBase11SectionNodeEEENS_9enable_ifIXaasr21is_move_constructibleIT_EE5valuesr18is_move_assignableIS6_EE5valueEvE4typeERS6_S9_, symObjAddr: 0x5CDEC, symBinAddr: 0x100089B60, symSize: 0x3C }
  - { offsetInCU: 0x69CF6, offset: 0xC9B2F, size: 0x8, addend: 0x0, symName: __ZNSt3__1neB8ue170006IPN5Catch3PtrINS1_22CumulativeReporterBase11SectionNodeEEEEEbRKNS_11__wrap_iterIT_EESB_, symObjAddr: 0x5CEC8, symBinAddr: 0x100089C3C, symSize: 0x34 }
  - { offsetInCU: 0x69D39, offset: 0xC9B72, size: 0x8, addend: 0x0, symName: __ZNSt3__1eqB8ue170006IPN5Catch3PtrINS1_22CumulativeReporterBase11SectionNodeEEEEEbRKNS_11__wrap_iterIT_EESB_, symObjAddr: 0x5CF7C, symBinAddr: 0x100089CF0, symSize: 0x48 }
  - { offsetInCU: 0x69D7C, offset: 0xC9BB5, size: 0x8, addend: 0x0, symName: __ZNSt3__112__to_addressB8ue170006IN5Catch3PtrINS1_22CumulativeReporterBase11SectionNodeEEEEEPT_S7_, symObjAddr: 0x5D350, symBinAddr: 0x10008A0C4, symSize: 0x14 }
  - { offsetInCU: 0x69DB1, offset: 0xC9BEA, size: 0x8, addend: 0x0, symName: __ZNSt3__119__allocate_at_leastB8ue170006INS_9allocatorIN5Catch3PtrINS2_22CumulativeReporterBase11SectionNodeEEEEEEENS_19__allocation_resultINS_16allocator_traitsIT_E7pointerEEERSA_m, symObjAddr: 0x5D97C, symBinAddr: 0x10008A6F0, symSize: 0x40 }
  - { offsetInCU: 0x69DF3, offset: 0xC9C2C, size: 0x8, addend: 0x0, symName: __ZNSt3__142__uninitialized_allocator_move_if_noexceptB8ue170006INS_9allocatorIN5Catch3PtrINS2_22CumulativeReporterBase11SectionNodeEEEEENS_16reverse_iteratorIPS6_EESA_SA_EET2_RT_T0_T1_SB_, symObjAddr: 0x5DBE8, symBinAddr: 0x10008A95C, symSize: 0x12C }
  - { offsetInCU: 0x69E94, offset: 0xC9CCD, size: 0x8, addend: 0x0, symName: __ZNSt3__14swapB8ue170006IPN5Catch3PtrINS1_22CumulativeReporterBase11SectionNodeEEEEENS_9enable_ifIXaasr21is_move_constructibleIT_EE5valuesr18is_move_assignableIS8_EE5valueEvE4typeERS8_SB_, symObjAddr: 0x5DD60, symBinAddr: 0x10008AAD4, symSize: 0x3C }
  - { offsetInCU: 0x69EE5, offset: 0xC9D1E, size: 0x8, addend: 0x0, symName: __ZNSt3__122__make_exception_guardB8ue170006INS_29_AllocatorDestroyRangeReverseINS_9allocatorIN5Catch3PtrINS3_22CumulativeReporterBase11SectionNodeEEEEENS_16reverse_iteratorIPS7_EEEEEENS_28__exception_guard_exceptionsIT_EESE_, symObjAddr: 0x5DE90, symBinAddr: 0x10008AC04, symSize: 0x4C }
  - { offsetInCU: 0x69F1B, offset: 0xC9D54, size: 0x8, addend: 0x0, symName: __ZNSt3__1neB8ue170006IPN5Catch3PtrINS1_22CumulativeReporterBase11SectionNodeEEES6_EEbRKNS_16reverse_iteratorIT_EERKNS7_IT0_EE, symObjAddr: 0x5DF20, symBinAddr: 0x10008AC94, symSize: 0x48 }
  - { offsetInCU: 0x69F67, offset: 0xC9DA0, size: 0x8, addend: 0x0, symName: __ZNSt3__112__to_addressB8ue170006INS_16reverse_iteratorIPN5Catch3PtrINS2_22CumulativeReporterBase11SectionNodeEEEEEvEEu7__decayIDTclsr19__to_address_helperIT_EE6__callclsr3stdE7declvalIRKS9_EEEEESB_, symObjAddr: 0x5DF68, symBinAddr: 0x10008ACDC, symSize: 0x24 }
  - { offsetInCU: 0x69FC5, offset: 0xC9DFE, size: 0x8, addend: 0x0, symName: __ZNSt3__119__allocator_destroyB8ue170006INS_9allocatorIN5Catch3PtrINS2_22CumulativeReporterBase11SectionNodeEEEEENS_16reverse_iteratorINS8_IPS6_EEEESB_EEvRT_T0_T1_, symObjAddr: 0x5E218, symBinAddr: 0x10008AF8C, symSize: 0x70 }
  - { offsetInCU: 0x6A02B, offset: 0xC9E64, size: 0x8, addend: 0x0, symName: __ZNSt3__1neB8ue170006INS_16reverse_iteratorIPN5Catch3PtrINS2_22CumulativeReporterBase11SectionNodeEEEEES8_EEbRKNS1_IT_EERKNS1_IT0_EE, symObjAddr: 0x5E2C4, symBinAddr: 0x10008B038, symSize: 0x60 }
  - { offsetInCU: 0x6A077, offset: 0xC9EB0, size: 0x8, addend: 0x0, symName: __ZNSt3__112__to_addressB8ue170006INS_16reverse_iteratorINS1_IPN5Catch3PtrINS2_22CumulativeReporterBase11SectionNodeEEEEEEEvEEu7__decayIDTclsr19__to_address_helperIT_EE6__callclsr3stdE7declvalIRKSA_EEEEESC_, symObjAddr: 0x5E350, symBinAddr: 0x10008B0C4, symSize: 0x24 }
  - { offsetInCU: 0x6A0D6, offset: 0xC9F0F, size: 0x8, addend: 0x0, symName: __ZNSt3__112__to_addressB8ue170006IN5Catch14AssertionStatsEEEPT_S4_, symObjAddr: 0x5EA20, symBinAddr: 0x10008B794, symSize: 0x14 }
  - { offsetInCU: 0x6A10B, offset: 0xC9F44, size: 0x8, addend: 0x0, symName: __ZNSt3__119__allocate_at_leastB8ue170006INS_9allocatorIN5Catch14AssertionStatsEEEEENS_19__allocation_resultINS_16allocator_traitsIT_E7pointerEEERS7_m, symObjAddr: 0x5F144, symBinAddr: 0x10008BEB8, symSize: 0x40 }
  - { offsetInCU: 0x6A14D, offset: 0xC9F86, size: 0x8, addend: 0x0, symName: __ZNSt3__142__uninitialized_allocator_move_if_noexceptB8ue170006INS_9allocatorIN5Catch14AssertionStatsEEENS_16reverse_iteratorIPS3_EES7_S7_EET2_RT_T0_T1_S8_, symObjAddr: 0x5F3D0, symBinAddr: 0x10008C144, symSize: 0x12C }
  - { offsetInCU: 0x6A1EE, offset: 0xCA027, size: 0x8, addend: 0x0, symName: __ZNSt3__14swapB8ue170006IPN5Catch14AssertionStatsEEENS_9enable_ifIXaasr21is_move_constructibleIT_EE5valuesr18is_move_assignableIS5_EE5valueEvE4typeERS5_S8_, symObjAddr: 0x5F548, symBinAddr: 0x10008C2BC, symSize: 0x3C }
  - { offsetInCU: 0x6A23F, offset: 0xCA078, size: 0x8, addend: 0x0, symName: __ZNSt3__122__make_exception_guardB8ue170006INS_29_AllocatorDestroyRangeReverseINS_9allocatorIN5Catch14AssertionStatsEEENS_16reverse_iteratorIPS4_EEEEEENS_28__exception_guard_exceptionsIT_EESB_, symObjAddr: 0x5F694, symBinAddr: 0x10008C408, symSize: 0x4C }
  - { offsetInCU: 0x6A275, offset: 0xCA0AE, size: 0x8, addend: 0x0, symName: __ZNSt3__1neB8ue170006IPN5Catch14AssertionStatsES3_EEbRKNS_16reverse_iteratorIT_EERKNS4_IT0_EE, symObjAddr: 0x5F724, symBinAddr: 0x10008C498, symSize: 0x48 }
  - { offsetInCU: 0x6A2C1, offset: 0xCA0FA, size: 0x8, addend: 0x0, symName: __ZNSt3__112__to_addressB8ue170006INS_16reverse_iteratorIPN5Catch14AssertionStatsEEEvEEu7__decayIDTclsr19__to_address_helperIT_EE6__callclsr3stdE7declvalIRKS6_EEEEES8_, symObjAddr: 0x5F7A0, symBinAddr: 0x10008C514, symSize: 0x24 }
  - { offsetInCU: 0x6A31F, offset: 0xCA158, size: 0x8, addend: 0x0, symName: __ZNSt3__119__allocator_destroyB8ue170006INS_9allocatorIN5Catch14AssertionStatsEEENS_16reverse_iteratorINS5_IPS3_EEEES8_EEvRT_T0_T1_, symObjAddr: 0x5FDC4, symBinAddr: 0x10008CB38, symSize: 0x70 }
  - { offsetInCU: 0x6A385, offset: 0xCA1BE, size: 0x8, addend: 0x0, symName: __ZNSt3__1neB8ue170006INS_16reverse_iteratorIPN5Catch14AssertionStatsEEES5_EEbRKNS1_IT_EERKNS1_IT0_EE, symObjAddr: 0x5FE70, symBinAddr: 0x10008CBE4, symSize: 0x60 }
  - { offsetInCU: 0x6A3D1, offset: 0xCA20A, size: 0x8, addend: 0x0, symName: __ZNSt3__112__to_addressB8ue170006INS_16reverse_iteratorINS1_IPN5Catch14AssertionStatsEEEEEvEEu7__decayIDTclsr19__to_address_helperIT_EE6__callclsr3stdE7declvalIRKS7_EEEEES9_, symObjAddr: 0x5FEFC, symBinAddr: 0x10008CC70, symSize: 0x24 }
  - { offsetInCU: 0x6A430, offset: 0xCA269, size: 0x8, addend: 0x0, symName: __ZNSt3__112__to_addressB8ue170006IN5Catch3PtrINS1_22CumulativeReporterBase4NodeINS1_13TestCaseStatsENS3_11SectionNodeEEEEEEEPT_SA_, symObjAddr: 0x60C08, symBinAddr: 0x10008D97C, symSize: 0x14 }
  - { offsetInCU: 0x6A465, offset: 0xCA29E, size: 0x8, addend: 0x0, symName: __ZNSt3__119__allocate_at_leastB8ue170006INS_9allocatorIN5Catch3PtrINS2_22CumulativeReporterBase4NodeINS2_13TestCaseStatsENS4_11SectionNodeEEEEEEEEENS_19__allocation_resultINS_16allocator_traitsIT_E7pointerEEERSD_m, symObjAddr: 0x612D4, symBinAddr: 0x10008E048, symSize: 0x40 }
  - { offsetInCU: 0x6A4A7, offset: 0xCA2E0, size: 0x8, addend: 0x0, symName: __ZNSt3__142__uninitialized_allocator_move_if_noexceptB8ue170006INS_9allocatorIN5Catch3PtrINS2_22CumulativeReporterBase4NodeINS2_13TestCaseStatsENS4_11SectionNodeEEEEEEENS_16reverse_iteratorIPS9_EESD_SD_EET2_RT_T0_T1_SE_, symObjAddr: 0x6155C, symBinAddr: 0x10008E2D0, symSize: 0x12C }
  - { offsetInCU: 0x6A548, offset: 0xCA381, size: 0x8, addend: 0x0, symName: __ZNSt3__14swapB8ue170006IPN5Catch3PtrINS1_22CumulativeReporterBase4NodeINS1_13TestCaseStatsENS3_11SectionNodeEEEEEEENS_9enable_ifIXaasr21is_move_constructibleIT_EE5valuesr18is_move_assignableISB_EE5valueEvE4typeERSB_SE_, symObjAddr: 0x616D4, symBinAddr: 0x10008E448, symSize: 0x3C }
  - { offsetInCU: 0x6A599, offset: 0xCA3D2, size: 0x8, addend: 0x0, symName: __ZNSt3__122__make_exception_guardB8ue170006INS_29_AllocatorDestroyRangeReverseINS_9allocatorIN5Catch3PtrINS3_22CumulativeReporterBase4NodeINS3_13TestCaseStatsENS5_11SectionNodeEEEEEEENS_16reverse_iteratorIPSA_EEEEEENS_28__exception_guard_exceptionsIT_EESH_, symObjAddr: 0x61804, symBinAddr: 0x10008E578, symSize: 0x4C }
  - { offsetInCU: 0x6A5CF, offset: 0xCA408, size: 0x8, addend: 0x0, symName: __ZNSt3__1neB8ue170006IPN5Catch3PtrINS1_22CumulativeReporterBase4NodeINS1_13TestCaseStatsENS3_11SectionNodeEEEEES9_EEbRKNS_16reverse_iteratorIT_EERKNSA_IT0_EE, symObjAddr: 0x61894, symBinAddr: 0x10008E608, symSize: 0x48 }
  - { offsetInCU: 0x6A61B, offset: 0xCA454, size: 0x8, addend: 0x0, symName: __ZNSt3__112__to_addressB8ue170006INS_16reverse_iteratorIPN5Catch3PtrINS2_22CumulativeReporterBase4NodeINS2_13TestCaseStatsENS4_11SectionNodeEEEEEEEvEEu7__decayIDTclsr19__to_address_helperIT_EE6__callclsr3stdE7declvalIRKSC_EEEEESE_, symObjAddr: 0x618DC, symBinAddr: 0x10008E650, symSize: 0x24 }
